///////////////////////////////////////////////////////////////////////////////
//
// IAR C/C++ Compiler V10.10.1.4655 for 8051              26/Mar/2023  16:30:17
// Copyright 2004-2017 IAR Systems AB.
// Standalone license - IAR Embedded Workbench for 8051
//
//    Core               =  plain
//    Code model         =  banked
//    Data model         =  large
//    Calling convention =  xdata reentrant
//    Constant location  =  data_rom
//    Dptr setup         =  1,16
//                          
//    Source file        =  
//        D:\×ÀÃæ\¡¶ZigBee3.0¿ª·¢Ö¸ÄÏ¡·ÅäÌ××ÊÔ´£¨¸½¼Ó²¿·Ö£©\¿ÎÍâÆª£ºÏîÄ¿ÊµÕ½\»ùÓÚZigbeeµÄÎÂÊª¶È
//        &
//        ¹âÕÕ¶È²É¼¯ÏµÍ³\ZigBeeÉè±¸¶Ë¹Ì¼þÓëÔ´Âë\Ô´Âë\Components\stack\GP\gp_common.c
//    Command line       =  
//        -f C:\Users\11148\AppData\Local\Temp\EWB9AF.tmp
//        ("D:\×ÀÃæ\¡¶ZigBee3.0¿ª·¢Ö¸ÄÏ¡·ÅäÌ××ÊÔ´£¨¸½¼Ó²¿·Ö£©\¿ÎÍâÆª£ºÏîÄ¿ÊµÕ½\»ùÓÚZigbeeµÄÎÂÊª¶È
//        &
//        ¹âÕÕ¶È²É¼¯ÏµÍ³\ZigBeeÉè±¸¶Ë¹Ì¼þÓëÔ´Âë\Ô´Âë\Components\stack\GP\gp_common.c"
//        -D SECURE=1 -D TC_LINKKEY_JOIN -D NV_INIT -D NV_RESTORE -D xZTOOL_P1
//        -D xMT_TASK -D xMT_APP_FUNC -D xMT_SYS_FUNC -D xMT_ZDO_FUNC -D
//        xMT_ZDO_MGMT -D xMT_APP_CNF_FUNC -D LCD_SUPPORTED=DEBUG -D
//        MULTICAST_ENABLED=FALSE -D ZCL_READ -D ZCL_DISCOVER -D ZCL_WRITE -D
//        ZCL_BASIC -D ZCL_IDENTIFY -D ZCL_ON_OFF -D ZCL_GROUPS -D
//        ZCL_LEVEL_CTRL -D HAL_KEY=TRUE -D xISR_KEYINTERRUPT -D HAL_UART=TRUE
//        -D INT_HEAP_LEN=2048 -D HAL_LCD=TRUE -D HAL_LCD_OLED12864=TRUE -lC
//        "D:\×ÀÃæ\¡¶ZigBee3.0¿ª·¢Ö¸ÄÏ¡·ÅäÌ××ÊÔ´£¨¸½¼Ó²¿·Ö£©\¿ÎÍâÆª£ºÏîÄ¿ÊµÕ½\»ùÓÚZigbeeµÄÎÂÊª¶È
//        &
//        ¹âÕÕ¶È²É¼¯ÏµÍ³\ZigBeeÉè±¸¶Ë¹Ì¼þÓëÔ´Âë\Ô´Âë\Projects\CC2530\Category\Coordinator\List"
//        -lA
//        "D:\×ÀÃæ\¡¶ZigBee3.0¿ª·¢Ö¸ÄÏ¡·ÅäÌ××ÊÔ´£¨¸½¼Ó²¿·Ö£©\¿ÎÍâÆª£ºÏîÄ¿ÊµÕ½\»ùÓÚZigbeeµÄÎÂÊª¶È
//        &
//        ¹âÕÕ¶È²É¼¯ÏµÍ³\ZigBeeÉè±¸¶Ë¹Ì¼þÓëÔ´Âë\Ô´Âë\Projects\CC2530\Category\Coordinator\List"
//        --diag_suppress Pe001,Pa010 -o
//        "D:\×ÀÃæ\¡¶ZigBee3.0¿ª·¢Ö¸ÄÏ¡·ÅäÌ××ÊÔ´£¨¸½¼Ó²¿·Ö£©\¿ÎÍâÆª£ºÏîÄ¿ÊµÕ½\»ùÓÚZigbeeµÄÎÂÊª¶È
//        &
//        ¹âÕÕ¶È²É¼¯ÏµÍ³\ZigBeeÉè±¸¶Ë¹Ì¼þÓëÔ´Âë\Ô´Âë\Projects\CC2530\Category\Coordinator\Obj"
//        -e --debug --core=plain --dptr=16,1 --data_model=large
//        --code_model=banked --calling_convention=xdata_reentrant
//        --place_constants=data_rom --nr_virtual_regs 16 -f
//        "D:\×ÀÃæ\¡¶ZigBee3.0¿ª·¢Ö¸ÄÏ¡·ÅäÌ××ÊÔ´£¨¸½¼Ó²¿·Ö£©\¿ÎÍâÆª£ºÏîÄ¿ÊµÕ½\»ùÓÚZigbeeµÄÎÂÊª¶È
//        &
//        ¹âÕÕ¶È²É¼¯ÏµÍ³\ZigBeeÉè±¸¶Ë¹Ì¼þÓëÔ´Âë\Ô´Âë\Projects\CC2530\Tools\f8wCoord.cfg"
//        (-DCPU32MHZ -DROOT=__near_func -DMAC_CFG_APP_PENDING_QUEUE=TRUE
//        -DMAC_CFG_TX_DATA_MAX=5 -DMAC_CFG_TX_MAX=8 -DMAC_CFG_RX_MAX=5
//        -DZDO_COORDINATOR -DRTR_NWK) -f
//        "D:\×ÀÃæ\¡¶ZigBee3.0¿ª·¢Ö¸ÄÏ¡·ÅäÌ××ÊÔ´£¨¸½¼Ó²¿·Ö£©\¿ÎÍâÆª£ºÏîÄ¿ÊµÕ½\»ùÓÚZigbeeµÄÎÂÊª¶È
//        &
//        ¹âÕÕ¶È²É¼¯ÏµÍ³\ZigBeeÉè±¸¶Ë¹Ì¼þÓëÔ´Âë\Ô´Âë\Projects\CC2530\Tools\f8wConfig.cfg"
//        (-DZIGBEEPRO -DSECURE=1 -DZG_SECURE_DYNAMIC=0 -DREFLECTOR
//        -DDEFAULT_CHANLIST=0x00000800 -DZDAPP_CONFIG_PAN_ID=0x0402
//        -DNWK_START_DELAY=100 -DEXTENDED_JOINING_RANDOM_MASK=0x007F
//        -DBEACON_REQUEST_DELAY=100 -DBEACON_REQ_DELAY_MASK=0x00FF
//        -DLINK_STATUS_JITTER_MASK=0x007F -DROUTE_EXPIRY_TIME=30
//        -DAPSC_ACK_WAIT_DURATION_POLLED=3000 -DNWK_INDIRECT_MSG_TIMEOUT=7
//        -DMAX_RREQ_ENTRIES=8 -DAPSC_MAX_FRAME_RETRIES=3
//        -DNWK_MAX_DATA_RETRIES=2 -DMAX_POLL_FAILURE_RETRIES=2 -DMAX_BCAST=9
//        -DAPS_MAX_GROUPS=16 -DMAX_RTG_ENTRIES=40 -DNWK_MAX_BINDING_ENTRIES=4
//        -DMAX_BINDING_CLUSTER_IDS=4 "-DDEFAULT_KEY={0x5a, 0x69, 0x67, 0x42,
//        0x65,0x65, 0x41, 0x6c, 0x6c, 0x69, 0x61, 0x6e, 0x63, 0x65, 0x30,
//        0x39}" -DMAC_MAX_FRAME_SIZE=116 -DZDNWKMGR_MIN_TRANSMISSIONS=20
//        "-DCONST=const __code" -DGENERIC=__generic -DRFD_RCVC_ALWAYS_ON=FALSE
//        -DPOLL_RATE=1000 -DQUEUED_POLL_RATE=100 -DRESPONSE_POLL_RATE=100
//        -DREJOIN_POLL_RATE=440 -DREJOIN_BACKOFF=900000 -DREJOIN_SCAN=900000
//        -DENABLE_LED4_DISABLE_S1) -f
//        "D:\×ÀÃæ\¡¶ZigBee3.0¿ª·¢Ö¸ÄÏ¡·ÅäÌ××ÊÔ´£¨¸½¼Ó²¿·Ö£©\¿ÎÍâÆª£ºÏîÄ¿ÊµÕ½\»ùÓÚZigbeeµÄÎÂÊª¶È
//        &
//        ¹âÕÕ¶È²É¼¯ÏµÍ³\ZigBeeÉè±¸¶Ë¹Ì¼þÓëÔ´Âë\Ô´Âë\Projects\CC2530\Tools\f8wZCL.cfg"
//        -I
//        "D:\×ÀÃæ\¡¶ZigBee3.0¿ª·¢Ö¸ÄÏ¡·ÅäÌ××ÊÔ´£¨¸½¼Ó²¿·Ö£©\¿ÎÍâÆª£ºÏîÄ¿ÊµÕ½\»ùÓÚZigbeeµÄÎÂÊª¶È
//        & ¹âÕÕ¶È²É¼¯ÏµÍ³\ZigBeeÉè±¸¶Ë¹Ì¼þÓëÔ´Âë\Ô´Âë\Projects\CC2530\" -I
//        "D:\×ÀÃæ\¡¶ZigBee3.0¿ª·¢Ö¸ÄÏ¡·ÅäÌ××ÊÔ´£¨¸½¼Ó²¿·Ö£©\¿ÎÍâÆª£ºÏîÄ¿ÊµÕ½\»ùÓÚZigbeeµÄÎÂÊª¶È
//        &
//        ¹âÕÕ¶È²É¼¯ÏµÍ³\ZigBeeÉè±¸¶Ë¹Ì¼þÓëÔ´Âë\Ô´Âë\Projects\CC2530\..\..\Components\hal\include\"
//        -I
//        "D:\×ÀÃæ\¡¶ZigBee3.0¿ª·¢Ö¸ÄÏ¡·ÅäÌ××ÊÔ´£¨¸½¼Ó²¿·Ö£©\¿ÎÍâÆª£ºÏîÄ¿ÊµÕ½\»ùÓÚZigbeeµÄÎÂÊª¶È
//        &
//        ¹âÕÕ¶È²É¼¯ÏµÍ³\ZigBeeÉè±¸¶Ë¹Ì¼þÓëÔ´Âë\Ô´Âë\Projects\CC2530\..\..\Components\hal\target\CC2530EB\"
//        -I
//        "D:\×ÀÃæ\¡¶ZigBee3.0¿ª·¢Ö¸ÄÏ¡·ÅäÌ××ÊÔ´£¨¸½¼Ó²¿·Ö£©\¿ÎÍâÆª£ºÏîÄ¿ÊµÕ½\»ùÓÚZigbeeµÄÎÂÊª¶È
//        &
//        ¹âÕÕ¶È²É¼¯ÏµÍ³\ZigBeeÉè±¸¶Ë¹Ì¼þÓëÔ´Âë\Ô´Âë\Projects\CC2530\..\..\Components\hal\userspace\"
//        -I
//        "D:\×ÀÃæ\¡¶ZigBee3.0¿ª·¢Ö¸ÄÏ¡·ÅäÌ××ÊÔ´£¨¸½¼Ó²¿·Ö£©\¿ÎÍâÆª£ºÏîÄ¿ÊµÕ½\»ùÓÚZigbeeµÄÎÂÊª¶È
//        &
//        ¹âÕÕ¶È²É¼¯ÏµÍ³\ZigBeeÉè±¸¶Ë¹Ì¼þÓëÔ´Âë\Ô´Âë\Projects\CC2530\..\..\Components\mac\include\"
//        -I
//        "D:\×ÀÃæ\¡¶ZigBee3.0¿ª·¢Ö¸ÄÏ¡·ÅäÌ××ÊÔ´£¨¸½¼Ó²¿·Ö£©\¿ÎÍâÆª£ºÏîÄ¿ÊµÕ½\»ùÓÚZigbeeµÄÎÂÊª¶È
//        &
//        ¹âÕÕ¶È²É¼¯ÏµÍ³\ZigBeeÉè±¸¶Ë¹Ì¼þÓëÔ´Âë\Ô´Âë\Projects\CC2530\..\..\Components\mac\high_level\"
//        -I
//        "D:\×ÀÃæ\¡¶ZigBee3.0¿ª·¢Ö¸ÄÏ¡·ÅäÌ××ÊÔ´£¨¸½¼Ó²¿·Ö£©\¿ÎÍâÆª£ºÏîÄ¿ÊµÕ½\»ùÓÚZigbeeµÄÎÂÊª¶È
//        &
//        ¹âÕÕ¶È²É¼¯ÏµÍ³\ZigBeeÉè±¸¶Ë¹Ì¼þÓëÔ´Âë\Ô´Âë\Projects\CC2530\..\..\Components\mac\low_level\srf04\"
//        -I
//        "D:\×ÀÃæ\¡¶ZigBee3.0¿ª·¢Ö¸ÄÏ¡·ÅäÌ××ÊÔ´£¨¸½¼Ó²¿·Ö£©\¿ÎÍâÆª£ºÏîÄ¿ÊµÕ½\»ùÓÚZigbeeµÄÎÂÊª¶È
//        &
//        ¹âÕÕ¶È²É¼¯ÏµÍ³\ZigBeeÉè±¸¶Ë¹Ì¼þÓëÔ´Âë\Ô´Âë\Projects\CC2530\..\..\Components\mac\low_level\srf04\single_chip\"
//        -I
//        "D:\×ÀÃæ\¡¶ZigBee3.0¿ª·¢Ö¸ÄÏ¡·ÅäÌ××ÊÔ´£¨¸½¼Ó²¿·Ö£©\¿ÎÍâÆª£ºÏîÄ¿ÊµÕ½\»ùÓÚZigbeeµÄÎÂÊª¶È
//        &
//        ¹âÕÕ¶È²É¼¯ÏµÍ³\ZigBeeÉè±¸¶Ë¹Ì¼þÓëÔ´Âë\Ô´Âë\Projects\CC2530\..\..\Components\mt\"
//        -I
//        "D:\×ÀÃæ\¡¶ZigBee3.0¿ª·¢Ö¸ÄÏ¡·ÅäÌ××ÊÔ´£¨¸½¼Ó²¿·Ö£©\¿ÎÍâÆª£ºÏîÄ¿ÊµÕ½\»ùÓÚZigbeeµÄÎÂÊª¶È
//        &
//        ¹âÕÕ¶È²É¼¯ÏµÍ³\ZigBeeÉè±¸¶Ë¹Ì¼þÓëÔ´Âë\Ô´Âë\Projects\CC2530\..\..\Components\osal\include\"
//        -I
//        "D:\×ÀÃæ\¡¶ZigBee3.0¿ª·¢Ö¸ÄÏ¡·ÅäÌ××ÊÔ´£¨¸½¼Ó²¿·Ö£©\¿ÎÍâÆª£ºÏîÄ¿ÊµÕ½\»ùÓÚZigbeeµÄÎÂÊª¶È
//        &
//        ¹âÕÕ¶È²É¼¯ÏµÍ³\ZigBeeÉè±¸¶Ë¹Ì¼þÓëÔ´Âë\Ô´Âë\Projects\CC2530\..\..\Components\services\saddr\"
//        -I
//        "D:\×ÀÃæ\¡¶ZigBee3.0¿ª·¢Ö¸ÄÏ¡·ÅäÌ××ÊÔ´£¨¸½¼Ó²¿·Ö£©\¿ÎÍâÆª£ºÏîÄ¿ÊµÕ½\»ùÓÚZigbeeµÄÎÂÊª¶È
//        &
//        ¹âÕÕ¶È²É¼¯ÏµÍ³\ZigBeeÉè±¸¶Ë¹Ì¼þÓëÔ´Âë\Ô´Âë\Projects\CC2530\..\..\Components\services\sdata\"
//        -I
//        "D:\×ÀÃæ\¡¶ZigBee3.0¿ª·¢Ö¸ÄÏ¡·ÅäÌ××ÊÔ´£¨¸½¼Ó²¿·Ö£©\¿ÎÍâÆª£ºÏîÄ¿ÊµÕ½\»ùÓÚZigbeeµÄÎÂÊª¶È
//        &
//        ¹âÕÕ¶È²É¼¯ÏµÍ³\ZigBeeÉè±¸¶Ë¹Ì¼þÓëÔ´Âë\Ô´Âë\Projects\CC2530\..\..\Components\stack\af\"
//        -I
//        "D:\×ÀÃæ\¡¶ZigBee3.0¿ª·¢Ö¸ÄÏ¡·ÅäÌ××ÊÔ´£¨¸½¼Ó²¿·Ö£©\¿ÎÍâÆª£ºÏîÄ¿ÊµÕ½\»ùÓÚZigbeeµÄÎÂÊª¶È
//        &
//        ¹âÕÕ¶È²É¼¯ÏµÍ³\ZigBeeÉè±¸¶Ë¹Ì¼þÓëÔ´Âë\Ô´Âë\Projects\CC2530\..\..\Components\stack\bdb\"
//        -I
//        "D:\×ÀÃæ\¡¶ZigBee3.0¿ª·¢Ö¸ÄÏ¡·ÅäÌ××ÊÔ´£¨¸½¼Ó²¿·Ö£©\¿ÎÍâÆª£ºÏîÄ¿ÊµÕ½\»ùÓÚZigbeeµÄÎÂÊª¶È
//        &
//        ¹âÕÕ¶È²É¼¯ÏµÍ³\ZigBeeÉè±¸¶Ë¹Ì¼þÓëÔ´Âë\Ô´Âë\Projects\CC2530\..\..\Components\stack\gp\"
//        -I
//        "D:\×ÀÃæ\¡¶ZigBee3.0¿ª·¢Ö¸ÄÏ¡·ÅäÌ××ÊÔ´£¨¸½¼Ó²¿·Ö£©\¿ÎÍâÆª£ºÏîÄ¿ÊµÕ½\»ùÓÚZigbeeµÄÎÂÊª¶È
//        &
//        ¹âÕÕ¶È²É¼¯ÏµÍ³\ZigBeeÉè±¸¶Ë¹Ì¼þÓëÔ´Âë\Ô´Âë\Projects\CC2530\..\..\Components\stack\nwk\"
//        -I
//        "D:\×ÀÃæ\¡¶ZigBee3.0¿ª·¢Ö¸ÄÏ¡·ÅäÌ××ÊÔ´£¨¸½¼Ó²¿·Ö£©\¿ÎÍâÆª£ºÏîÄ¿ÊµÕ½\»ùÓÚZigbeeµÄÎÂÊª¶È
//        &
//        ¹âÕÕ¶È²É¼¯ÏµÍ³\ZigBeeÉè±¸¶Ë¹Ì¼þÓëÔ´Âë\Ô´Âë\Projects\CC2530\..\..\Components\stack\sapi\"
//        -I
//        "D:\×ÀÃæ\¡¶ZigBee3.0¿ª·¢Ö¸ÄÏ¡·ÅäÌ××ÊÔ´£¨¸½¼Ó²¿·Ö£©\¿ÎÍâÆª£ºÏîÄ¿ÊµÕ½\»ùÓÚZigbeeµÄÎÂÊª¶È
//        &
//        ¹âÕÕ¶È²É¼¯ÏµÍ³\ZigBeeÉè±¸¶Ë¹Ì¼þÓëÔ´Âë\Ô´Âë\Projects\CC2530\..\..\Components\stack\sec\"
//        -I
//        "D:\×ÀÃæ\¡¶ZigBee3.0¿ª·¢Ö¸ÄÏ¡·ÅäÌ××ÊÔ´£¨¸½¼Ó²¿·Ö£©\¿ÎÍâÆª£ºÏîÄ¿ÊµÕ½\»ùÓÚZigbeeµÄÎÂÊª¶È
//        &
//        ¹âÕÕ¶È²É¼¯ÏµÍ³\ZigBeeÉè±¸¶Ë¹Ì¼þÓëÔ´Âë\Ô´Âë\Projects\CC2530\..\..\Components\stack\sys\"
//        -I
//        "D:\×ÀÃæ\¡¶ZigBee3.0¿ª·¢Ö¸ÄÏ¡·ÅäÌ××ÊÔ´£¨¸½¼Ó²¿·Ö£©\¿ÎÍâÆª£ºÏîÄ¿ÊµÕ½\»ùÓÚZigbeeµÄÎÂÊª¶È
//        &
//        ¹âÕÕ¶È²É¼¯ÏµÍ³\ZigBeeÉè±¸¶Ë¹Ì¼þÓëÔ´Âë\Ô´Âë\Projects\CC2530\..\..\Components\stack\zcl\"
//        -I
//        "D:\×ÀÃæ\¡¶ZigBee3.0¿ª·¢Ö¸ÄÏ¡·ÅäÌ××ÊÔ´£¨¸½¼Ó²¿·Ö£©\¿ÎÍâÆª£ºÏîÄ¿ÊµÕ½\»ùÓÚZigbeeµÄÎÂÊª¶È
//        &
//        ¹âÕÕ¶È²É¼¯ÏµÍ³\ZigBeeÉè±¸¶Ë¹Ì¼þÓëÔ´Âë\Ô´Âë\Projects\CC2530\..\..\Components\stack\zdo\"
//        -I
//        "D:\×ÀÃæ\¡¶ZigBee3.0¿ª·¢Ö¸ÄÏ¡·ÅäÌ××ÊÔ´£¨¸½¼Ó²¿·Ö£©\¿ÎÍâÆª£ºÏîÄ¿ÊµÕ½\»ùÓÚZigbeeµÄÎÂÊª¶È
//        &
//        ¹âÕÕ¶È²É¼¯ÏµÍ³\ZigBeeÉè±¸¶Ë¹Ì¼þÓëÔ´Âë\Ô´Âë\Projects\CC2530\..\..\Components\zmac\"
//        -I
//        "D:\×ÀÃæ\¡¶ZigBee3.0¿ª·¢Ö¸ÄÏ¡·ÅäÌ××ÊÔ´£¨¸½¼Ó²¿·Ö£©\¿ÎÍâÆª£ºÏîÄ¿ÊµÕ½\»ùÓÚZigbeeµÄÎÂÊª¶È
//        &
//        ¹âÕÕ¶È²É¼¯ÏµÍ³\ZigBeeÉè±¸¶Ë¹Ì¼þÓëÔ´Âë\Ô´Âë\Projects\CC2530\..\..\Components\zmac\f8w\"
//        -I
//        "D:\×ÀÃæ\¡¶ZigBee3.0¿ª·¢Ö¸ÄÏ¡·ÅäÌ××ÊÔ´£¨¸½¼Ó²¿·Ö£©\¿ÎÍâÆª£ºÏîÄ¿ÊµÕ½\»ùÓÚZigbeeµÄÎÂÊª¶È
//        &
//        ¹âÕÕ¶È²É¼¯ÏµÍ³\ZigBeeÉè±¸¶Ë¹Ì¼þÓëÔ´Âë\Ô´Âë\Projects\CC2530\..\..\Applications\"
//        -Ohz --require_prototypes)
//    Locale             =  Chinese (Simplified)_China.936
//    List file          =  
//        D:\×ÀÃæ\¡¶ZigBee3.0¿ª·¢Ö¸ÄÏ¡·ÅäÌ××ÊÔ´£¨¸½¼Ó²¿·Ö£©\¿ÎÍâÆª£ºÏîÄ¿ÊµÕ½\»ùÓÚZigbeeµÄÎÂÊª¶È
//        &
//        ¹âÕÕ¶È²É¼¯ÏµÍ³\ZigBeeÉè±¸¶Ë¹Ì¼þÓëÔ´Âë\Ô´Âë\Projects\CC2530\Category\Coordinator\List\gp_common.s51
//
///////////////////////////////////////////////////////////////////////////////

        NAME gp_common

        RTMODEL "__SystemLibrary", "CLib"
        RTMODEL "__calling_convention", "xdata_reentrant"
        RTMODEL "__code_model", "banked"
        RTMODEL "__core", "plain"
        RTMODEL "__data_model", "large"
        RTMODEL "__dptr_size", "16"
        RTMODEL "__extended_stack", "disabled"
        RTMODEL "__location_for_constants", "data"
        RTMODEL "__number_of_dptrs", "1"
        RTMODEL "__register_banks", "*"
        RTMODEL "__rt_version", "1"

        RSEG DOVERLAY:DATA:NOROOT(0)
        RSEG IOVERLAY:IDATA:NOROOT(0)
        RSEG ISTACK:IDATA:NOROOT(0)
        RSEG PSTACK:XDATA:NOROOT(0)
        RSEG XSTACK:XDATA:NOROOT(0)

        EXTERN ?V0
        EXTERN ?V1
        EXTERN ?V2
        EXTERN ?V3
        EXTERN ?V4
        EXTERN ?V5
        EXTERN ?V6
        EXTERN ?V7
        EXTERN ?V8
        EXTERN ?V9
        EXTERN ?V10
        EXTERN ?V12
        EXTERN ?V13
        EXTERN ?V11
        EXTERN ?V14
        EXTERN ?V15
        EXTERN ?ALLOC_XSTACK8
        EXTERN ?BANKED_ENTER_XDATA
        EXTERN ?BANKED_LEAVE_XDATA
        EXTERN ?BDISPATCH
        EXTERN ?BRET
        EXTERN ?CALL_IND
        EXTERN ?DEALLOC_XSTACK8
        EXTERN ?L_ADD_TO_X
        EXTERN ?L_AND_X
        EXTERN ?L_EQ_X
        EXTERN ?L_IOR
        EXTERN ?L_IOR_TO_X
        EXTERN ?L_IOR_X
        EXTERN ?L_MOV_TO_X
        EXTERN ?L_MOV_X
        EXTERN ?L_SHL
        EXTERN ?L_SUB_FROM_X
        EXTERN ?MOVE_LONG8_XDATA_XDATA
        EXTERN ?PUSH_XSTACK8_X_FOUR
        EXTERN ?PUSH_XSTACK_I_FOUR
        EXTERN ?PUSH_XSTACK_I_THREE
        EXTERN ?PUSH_XSTACK_I_TWO
        EXTERN ?SC_DIV_MOD
        EXTERN ?S_SHL
        EXTERN ?UL_GE_X
        EXTERN ?XLOAD_R0123
        EXTERN ?XSP
        EXTERN ?XSTACK_DISP0_8
        EXTERN ?XSTACK_DISP100_8
        EXTERN ?XSTACK_DISP101_8
        EXTERN ?XSTACK_DISP102_8
        EXTERN ?XSTORE_R0123
        EXTERN __INIT_XDATA_I
        EXTERN __INIT_XDATA_Z

        PUBLIC `??GP_DataCnf::?relay`
        FUNCTION `??GP_DataCnf::?relay`,0203H
        PUBLIC `??GP_DataInd::?relay`
        FUNCTION `??GP_DataInd::?relay`,0203H
        PUBLIC `??GP_SecReq::?relay`
        FUNCTION `??GP_SecReq::?relay`,0203H
        PUBLIC `??gp_PopulateField::?relay`
        FUNCTION `??gp_PopulateField::?relay`,0203H
        PUBLIC `??gp_ProxyTblInit::?relay`
        FUNCTION `??gp_ProxyTblInit::?relay`,0203H
        PUBLIC `??gp_RegisterCommissioningModeCB::?relay`
        FUNCTION `??gp_RegisterCommissioningModeCB::?relay`,0203H
        PUBLIC `??gp_RegisterGPChangeChannelReqCB::?relay`
        FUNCTION `??gp_RegisterGPChangeChannelReqCB::?relay`,0203H
        PUBLIC `??gp_RegisterGPChangeChannelReqForBDBCB::?relay`
        FUNCTION `??gp_RegisterGPChangeChannelReqForBDBCB::?relay`,0203H
        FUNCTION `??gp_SecurityOperationProxy::?relay`,0203H
        FUNCTION `??gp_ZclPairingParse::?relay`,0203H
        FUNCTION `??gp_ZclProxyTableReqParse::?relay`,0203H
        PUBLIC `??gp_endpointInit::?relay`
        FUNCTION `??gp_endpointInit::?relay`,0203H
        PUBLIC `??gp_expireDuplicateFiltering::?relay`
        FUNCTION `??gp_expireDuplicateFiltering::?relay`,0203H
        PUBLIC `??gp_getProxyTableByGpId::?relay`
        FUNCTION `??gp_getProxyTableByGpId::?relay`,0203H
        PUBLIC `??gp_getProxyTableByIndex::?relay`
        FUNCTION `??gp_getProxyTableByIndex::?relay`,0203H
        PUBLIC `??gp_returnOperationalChannel::?relay`
        FUNCTION `??gp_returnOperationalChannel::?relay`,0203H
        PUBLIC `??gp_stopCommissioningMode::?relay`
        FUNCTION `??gp_stopCommissioningMode::?relay`,0203H
        PUBLIC `??zclGp_DataIndParse::?relay`
        FUNCTION `??zclGp_DataIndParse::?relay`,0203H
        FUNCTION `??zclGp_GpPairingCommandCB::?relay`,0203H
        FUNCTION `??zclGp_GpProxyCommissioningModeCB::?relay`,0203H
        FUNCTION `??zclGp_GpProxyTableReqCB::?relay`,0203H
        FUNCTION `??zclGp_GpResponseCommandCB::?relay`,0203H
        PUBLIC `??zclGp_ManteinanceIndParse::?relay`
        FUNCTION `??zclGp_ManteinanceIndParse::?relay`,0203H
        PUBLIC GP_DataCnf
        FUNCTION GP_DataCnf,0203H
        ARGFRAME XSTACK, 0, STACK
        PUBLIC GP_DataInd
        FUNCTION GP_DataInd,0a1203H
        ARGFRAME XSTACK, 0, STACK
        LOCFRAME ISTACK, 1, STACK
        LOCFRAME XSTACK, 152, STACK
        PUBLIC GP_SecReq
        FUNCTION GP_SecReq,0a1203H
        ARGFRAME XSTACK, 0, STACK
        LOCFRAME ISTACK, 1, STACK
        LOCFRAME XSTACK, 131, STACK
        PUBWEAK __Constant_10000
        PUBWEAK __Constant_1388
        PUBWEAK __Constant_20000
        PUBWEAK __Constant_ff
        PUBWEAK __Constant_ff00
        PUBWEAK __Constant_ff0000
        PUBLIC gp_DataIndList
        PUBLIC gp_PopulateField
        FUNCTION gp_PopulateField,0a1203H
        ARGFRAME XSTACK, 85, STACK
        ARGFRAME IOVERLAY, 0, STATIC
        ARGFRAME DOVERLAY, 0, STATIC
        LOCFRAME ISTACK, 2, STACK
        LOCFRAME XSTACK, 20, STACK
        PUBLIC gp_ProxyTblInit
        FUNCTION gp_ProxyTblInit,0a1203H
        ARGFRAME XSTACK, 0, STACK
        ARGFRAME IOVERLAY, 0, STATIC
        ARGFRAME DOVERLAY, 0, STATIC
        LOCFRAME XSTACK, 81, STACK
        PUBLIC gp_RegisterCommissioningModeCB
        FUNCTION gp_RegisterCommissioningModeCB,0203H
        ARGFRAME XSTACK, 0, STACK
        LOCFRAME ISTACK, 2, STACK
        PUBLIC gp_RegisterGPChangeChannelReqCB
        FUNCTION gp_RegisterGPChangeChannelReqCB,0203H
        ARGFRAME XSTACK, 0, STACK
        LOCFRAME ISTACK, 2, STACK
        PUBLIC gp_RegisterGPChangeChannelReqForBDBCB
        FUNCTION gp_RegisterGPChangeChannelReqForBDBCB,0203H
        ARGFRAME XSTACK, 0, STACK
        LOCFRAME ISTACK, 2, STACK
        FUNCTION gp_SecurityOperationProxy,0a1203H
        ARGFRAME XSTACK, 129, STACK
        ARGFRAME IOVERLAY, 0, STATIC
        ARGFRAME DOVERLAY, 0, STATIC
        LOCFRAME ISTACK, 1, STACK
        LOCFRAME XSTACK, 101, STACK
        FUNCTION gp_ZclPairingParse,0a1203H
        ARGFRAME XSTACK, 53, STACK
        ARGFRAME IOVERLAY, 0, STATIC
        ARGFRAME DOVERLAY, 0, STATIC
        LOCFRAME XSTACK, 88, STACK
        FUNCTION gp_ZclProxyTableReqParse,0a1203H
        ARGFRAME XSTACK, 178, STACK
        ARGFRAME IOVERLAY, 0, STATIC
        ARGFRAME DOVERLAY, 0, STATIC
        LOCFRAME ISTACK, 1, STACK
        LOCFRAME XSTACK, 14, STACK
        PUBLIC gp_commissionerAddress
        PUBLIC gp_commissioningOptions
        PUBLIC gp_commissioningUnicastAddress
        PUBLIC gp_endpointInit
        FUNCTION gp_endpointInit,021203H
        ARGFRAME XSTACK, 0, STACK
        LOCFRAME ISTACK, 2, STACK
        PUBLIC gp_expireDuplicateFiltering
        FUNCTION gp_expireDuplicateFiltering,0a1203H
        ARGFRAME XSTACK, 0, STACK
        LOCFRAME XSTACK, 16, STACK
        PUBLIC gp_getProxyTableByGpId
        FUNCTION gp_getProxyTableByGpId,0a1203H
        ARGFRAME XSTACK, 180, STACK
        ARGFRAME IOVERLAY, 0, STATIC
        ARGFRAME DOVERLAY, 0, STATIC
        LOCFRAME XSTACK, 22, STACK
        PUBLIC gp_getProxyTableByIndex
        FUNCTION gp_getProxyTableByIndex,0a1203H
        ARGFRAME XSTACK, 178, STACK
        ARGFRAME IOVERLAY, 0, STATIC
        ARGFRAME DOVERLAY, 0, STATIC
        LOCFRAME XSTACK, 20, STACK
        PUBLIC gp_returnOperationalChannel
        FUNCTION gp_returnOperationalChannel,021203H
        ARGFRAME XSTACK, 0, STACK
        LOCFRAME ISTACK, 2, STACK
        LOCFRAME XSTACK, 21, STACK
        PUBLIC gp_stopCommissioningMode
        FUNCTION gp_stopCommissioningMode,021203H
        ARGFRAME XSTACK, 53, STACK
        ARGFRAME IOVERLAY, 0, STATIC
        ARGFRAME DOVERLAY, 0, STATIC
        LOCFRAME ISTACK, 2, STACK
        PUBLIC gp_tempLogicalChannel
        PUBLIC pZclGp_ProxyTableEntries
        PUBLIC pZclGp_gppBlockedGPDID
        PUBLIC zclGp_Attrs
        PUBLIC zclGp_DataIndParse
        FUNCTION zclGp_DataIndParse,0a1203H
        ARGFRAME XSTACK, 148, STACK
        ARGFRAME IOVERLAY, 0, STATIC
        ARGFRAME DOVERLAY, 0, STATIC
        LOCFRAME ISTACK, 1, STACK
        LOCFRAME XSTACK, 90, STACK
        FUNCTION zclGp_GpPairingCommandCB,021603H
        ARGFRAME XSTACK, 0, STACK
        LOCFRAME ISTACK, 2, STACK
        LOCFRAME XSTACK, 53, STACK
        FUNCTION zclGp_GpProxyCommissioningModeCB,0a1603H
        ARGFRAME XSTACK, 0, STACK
        LOCFRAME XSTACK, 10, STACK
        FUNCTION zclGp_GpProxyTableReqCB,0a1603H
        ARGFRAME XSTACK, 0, STACK
        LOCFRAME ISTACK, 1, STACK
        LOCFRAME XSTACK, 181, STACK
        FUNCTION zclGp_GpResponseCommandCB,0a1603H
        ARGFRAME XSTACK, 0, STACK
        LOCFRAME ISTACK, 1, STACK
        LOCFRAME XSTACK, 102, STACK
        PUBLIC zclGp_ManteinanceIndParse
        FUNCTION zclGp_ManteinanceIndParse,0a1203H
        ARGFRAME XSTACK, 148, STACK
        ARGFRAME IOVERLAY, 0, STATIC
        ARGFRAME DOVERLAY, 0, STATIC
        LOCFRAME ISTACK, 1, STACK
        LOCFRAME XSTACK, 85, STACK
        PUBLIC zclGp_NumAttributes
        PUBLIC zclGp_clusterRevision
        PUBLIC zclGp_gpLinkKey
        PUBLIC zclGp_gpSharedSecurityKey
        PUBLIC zclGp_gpSharedSecurityKeyType
        PUBLIC zclGp_gppActiveFunctionality
        PUBLIC zclGp_gppFunctionality
        PUBLIC zclGp_gppMaxProxyTableEntries
        PUBLIC zclGp_gppMaxSearchCounter
        PUBLIC zclGp_gppNotificationRetryNumber
        PUBLIC zclGp_gppNotificationRetryTimer
        PUBLIC zgGP_InCommissioningMode
        PUBLIC zgpSharedKey
        
          CFI Names cfiNames0
          CFI StackFrame CFA_SP SP IDATA
          CFI StackFrame CFA_PSP16 PSP16 XDATA
          CFI StackFrame CFA_XSP16 XSP16 XDATA
          CFI StaticOverlayFrame CFA_IOVERLAY IOVERLAY
          CFI StaticOverlayFrame CFA_DOVERLAY DOVERLAY
          CFI Resource `PSW.CY`:1, `B.BR0`:1, `B.BR1`:1, `B.BR2`:1, `B.BR3`:1
          CFI Resource `B.BR4`:1, `B.BR5`:1, `B.BR6`:1, `B.BR7`:1, `VB.BR8`:1
          CFI Resource `VB.BR9`:1, `VB.BR10`:1, `VB.BR11`:1, `VB.BR12`:1
          CFI Resource `VB.BR13`:1, `VB.BR14`:1, `VB.BR15`:1, VB:8, B:8, A:8
          CFI Resource PSW:8, DPL0:8, DPH0:8, R0:8, R1:8, R2:8, R3:8, R4:8, R5:8
          CFI Resource R6:8, R7:8, V0:8, V1:8, V2:8, V3:8, V4:8, V5:8, V6:8, V7:8
          CFI Resource V8:8, V9:8, V10:8, V11:8, V12:8, V13:8, V14:8, V15:8, SP:8
          CFI Resource PSPH:8, PSPL:8, PSP16:16, XSPH:8, XSPL:8, XSP16:16
          CFI VirtualResource ?RET:24
          CFI Resource ?BRET_EXT:8
          CFI VirtualResource ?RET_HIGH:8, ?RET_LOW:8
          CFI ResourceParts PSP16 PSPH, PSPL
          CFI ResourceParts XSP16 XSPH, XSPL
          CFI ResourceParts ?RET ?BRET_EXT, ?RET_HIGH, ?RET_LOW
          CFI EndNames cfiNames0
        
          CFI Common cfiCommon0 Using cfiNames0
          CFI CodeAlign 1
          CFI DataAlign -1
          CFI ReturnAddress ?RET CODE
          CFI CFA_DOVERLAY Used
          CFI CFA_IOVERLAY Used
          CFI CFA_SP SP+-3
          CFI CFA_PSP16 PSP16+0
          CFI CFA_XSP16 XSP16+0
          CFI `PSW.CY` SameValue
          CFI `B.BR0` SameValue
          CFI `B.BR1` SameValue
          CFI `B.BR2` SameValue
          CFI `B.BR3` SameValue
          CFI `B.BR4` SameValue
          CFI `B.BR5` SameValue
          CFI `B.BR6` SameValue
          CFI `B.BR7` SameValue
          CFI `VB.BR8` SameValue
          CFI `VB.BR9` SameValue
          CFI `VB.BR10` SameValue
          CFI `VB.BR11` SameValue
          CFI `VB.BR12` SameValue
          CFI `VB.BR13` SameValue
          CFI `VB.BR14` SameValue
          CFI `VB.BR15` SameValue
          CFI VB SameValue
          CFI B Undefined
          CFI A Undefined
          CFI PSW SameValue
          CFI DPL0 SameValue
          CFI DPH0 SameValue
          CFI R0 Undefined
          CFI R1 Undefined
          CFI R2 Undefined
          CFI R3 Undefined
          CFI R4 Undefined
          CFI R5 Undefined
          CFI R6 SameValue
          CFI R7 SameValue
          CFI V0 SameValue
          CFI V1 SameValue
          CFI V2 SameValue
          CFI V3 SameValue
          CFI V4 SameValue
          CFI V5 SameValue
          CFI V6 SameValue
          CFI V7 SameValue
          CFI V8 SameValue
          CFI V9 SameValue
          CFI V10 SameValue
          CFI V11 SameValue
          CFI V12 SameValue
          CFI V13 SameValue
          CFI V14 SameValue
          CFI V15 SameValue
          CFI PSPH Undefined
          CFI PSPL Undefined
          CFI XSPH Undefined
          CFI XSPL Undefined
          CFI ?RET Concat
          CFI ?BRET_EXT Frame(CFA_SP, 3)
          CFI ?RET_HIGH Frame(CFA_SP, 2)
          CFI ?RET_LOW Frame(CFA_SP, 1)
          CFI EndCommon cfiCommon0
        
        
          CFI Common cfiCommon1 Using cfiNames0
          CFI CodeAlign 1
          CFI DataAlign -1
          CFI ReturnAddress ?RET CODE
          CFI CFA_DOVERLAY Used
          CFI CFA_IOVERLAY Used
          CFI CFA_SP SP+-2
          CFI CFA_PSP16 PSP16+0
          CFI CFA_XSP16 XSP16+0
          CFI `PSW.CY` SameValue
          CFI `B.BR0` SameValue
          CFI `B.BR1` SameValue
          CFI `B.BR2` SameValue
          CFI `B.BR3` SameValue
          CFI `B.BR4` SameValue
          CFI `B.BR5` SameValue
          CFI `B.BR6` SameValue
          CFI `B.BR7` SameValue
          CFI `VB.BR8` SameValue
          CFI `VB.BR9` SameValue
          CFI `VB.BR10` SameValue
          CFI `VB.BR11` SameValue
          CFI `VB.BR12` SameValue
          CFI `VB.BR13` SameValue
          CFI `VB.BR14` SameValue
          CFI `VB.BR15` SameValue
          CFI VB SameValue
          CFI B SameValue
          CFI A SameValue
          CFI PSW SameValue
          CFI DPL0 SameValue
          CFI DPH0 SameValue
          CFI R0 SameValue
          CFI R1 SameValue
          CFI R2 SameValue
          CFI R3 SameValue
          CFI R4 SameValue
          CFI R5 SameValue
          CFI R6 SameValue
          CFI R7 SameValue
          CFI V0 SameValue
          CFI V1 SameValue
          CFI V2 SameValue
          CFI V3 SameValue
          CFI V4 SameValue
          CFI V5 SameValue
          CFI V6 SameValue
          CFI V7 SameValue
          CFI V8 SameValue
          CFI V9 SameValue
          CFI V10 SameValue
          CFI V11 SameValue
          CFI V12 SameValue
          CFI V13 SameValue
          CFI V14 SameValue
          CFI V15 SameValue
          CFI PSPH Undefined
          CFI PSPL Undefined
          CFI XSPH Undefined
          CFI XSPL Undefined
          CFI ?RET Concat
          CFI ?BRET_EXT SameValue
          CFI ?RET_HIGH Frame(CFA_SP, 2)
          CFI ?RET_LOW Frame(CFA_SP, 1)
          CFI EndCommon cfiCommon1
        
GP_DataReq          SYMBOL "GP_DataReq"
`??GP_DataReq::?relay` SYMBOL "?relay", GP_DataReq
ZDSecMgrReadKeyFromNv SYMBOL "ZDSecMgrReadKeyFromNv"
`??ZDSecMgrReadKeyFromNv::?relay` SYMBOL "?relay", ZDSecMgrReadKeyFromNv
ZMacSetReq          SYMBOL "ZMacSetReq"
`??ZMacSetReq::?relay` SYMBOL "?relay", ZMacSetReq
bdb_RegisterSimpleDescriptor SYMBOL "bdb_RegisterSimpleDescriptor"
`??bdb_RegisterSimpleDescriptor::?relay` SYMBOL "?relay", bdb_RegisterSimpleDescriptor
gp_DataIndAppendToList SYMBOL "gp_DataIndAppendToList"
`??gp_DataIndAppendToList::?relay` SYMBOL "?relay", gp_DataIndAppendToList
gp_DataIndGet       SYMBOL "gp_DataIndGet"
`??gp_DataIndGet::?relay` SYMBOL "?relay", gp_DataIndGet
gp_DataIndReleaseFromList SYMBOL "gp_DataIndReleaseFromList"
`??gp_DataIndReleaseFromList::?relay` SYMBOL "?relay", gp_DataIndReleaseFromList
gp_FreeGpTxQueue    SYMBOL "gp_FreeGpTxQueue"
`??gp_FreeGpTxQueue::?relay` SYMBOL "?relay", gp_FreeGpTxQueue
gp_GetHandle        SYMBOL "gp_GetHandle"
`??gp_GetHandle::?relay` SYMBOL "?relay", gp_GetHandle
gp_PairingUpdateProxyTlb SYMBOL "gp_PairingUpdateProxyTlb"
`??gp_PairingUpdateProxyTlb::?relay` SYMBOL "?relay", gp_PairingUpdateProxyTlb
gp_ResetProxyBasicTblEntry SYMBOL "gp_ResetProxyBasicTblEntry"
`??gp_ResetProxyBasicTblEntry::?relay` SYMBOL "?relay", gp_ResetProxyBasicTblEntry
osal_build_uint16   SYMBOL "osal_build_uint16"
`??osal_build_uint16::?relay` SYMBOL "?relay", osal_build_uint16
osal_build_uint32   SYMBOL "osal_build_uint32"
`??osal_build_uint32::?relay` SYMBOL "?relay", osal_build_uint32
osal_get_timeoutEx  SYMBOL "osal_get_timeoutEx"
`??osal_get_timeoutEx::?relay` SYMBOL "?relay", osal_get_timeoutEx
osal_mem_alloc      SYMBOL "osal_mem_alloc"
`??osal_mem_alloc::?relay` SYMBOL "?relay", osal_mem_alloc
osal_mem_free       SYMBOL "osal_mem_free"
`??osal_mem_free::?relay` SYMBOL "?relay", osal_mem_free
osal_memcmp         SYMBOL "osal_memcmp"
`??osal_memcmp::?relay` SYMBOL "?relay", osal_memcmp
osal_memcpy         SYMBOL "osal_memcpy"
`??osal_memcpy::?relay` SYMBOL "?relay", osal_memcpy
osal_memset         SYMBOL "osal_memset"
`??osal_memset::?relay` SYMBOL "?relay", osal_memset
osal_msg_allocate   SYMBOL "osal_msg_allocate"
`??osal_msg_allocate::?relay` SYMBOL "?relay", osal_msg_allocate
osal_msg_send       SYMBOL "osal_msg_send"
`??osal_msg_send::?relay` SYMBOL "?relay", osal_msg_send
osal_nv_item_init   SYMBOL "osal_nv_item_init"
`??osal_nv_item_init::?relay` SYMBOL "?relay", osal_nv_item_init
osal_nv_read        SYMBOL "osal_nv_read"
`??osal_nv_read::?relay` SYMBOL "?relay", osal_nv_read
osal_nv_write       SYMBOL "osal_nv_write"
`??osal_nv_write::?relay` SYMBOL "?relay", osal_nv_write
osal_start_timerEx  SYMBOL "osal_start_timerEx"
`??osal_start_timerEx::?relay` SYMBOL "?relay", osal_start_timerEx
osal_stop_timerEx   SYMBOL "osal_stop_timerEx"
`??osal_stop_timerEx::?relay` SYMBOL "?relay", osal_stop_timerEx
pt_ZclReadGetProxyEntry SYMBOL "pt_ZclReadGetProxyEntry"
`??pt_ZclReadGetProxyEntry::?relay` SYMBOL "?relay", pt_ZclReadGetProxyEntry
zclGp_RegisterCmdCallbacks SYMBOL "zclGp_RegisterCmdCallbacks"
`??zclGp_RegisterCmdCallbacks::?relay` SYMBOL "?relay", zclGp_RegisterCmdCallbacks
zclGp_SendGpCommissioningNotificationCommand SYMBOL "zclGp_SendGpCommissioningNotificationCommand"
`??zclGp_SendGpCommissioningNotificationCommand:` SYMBOL "?relay", zclGp_SendGpCommissioningNotificationCommand
zclGp_SendGpNotificationCommand SYMBOL "zclGp_SendGpNotificationCommand"
`??zclGp_SendGpNotificationCommand::?relay` SYMBOL "?relay", zclGp_SendGpNotificationCommand
zclGp_SendGpProxyTableResponse SYMBOL "zclGp_SendGpProxyTableResponse"
`??zclGp_SendGpProxyTableResponse::?relay` SYMBOL "?relay", zclGp_SendGpProxyTableResponse
`?<Name zclGpp_ReadWriteAttr 62>` SYMBOL "zclGpp_ReadWriteAttrCB"
`??zclGpp_ReadWriteAttrCB::?relay` SYMBOL "?relay", `?<Name zclGpp_ReadWriteAttr 62>`
zcl_ReadAttrData    SYMBOL "zcl_ReadAttrData"
`??zcl_ReadAttrData::?relay` SYMBOL "?relay", zcl_ReadAttrData
zcl_registerAttrList SYMBOL "zcl_registerAttrList"
`??zcl_registerAttrList::?relay` SYMBOL "?relay", zcl_registerAttrList
zcl_registerReadWriteCB SYMBOL "zcl_registerReadWriteCB"
`??zcl_registerReadWriteCB::?relay` SYMBOL "?relay", zcl_registerReadWriteCB
GP_DataCnf          SYMBOL "GP_DataCnf"
`??GP_DataCnf::?relay` SYMBOL "?relay", GP_DataCnf
GP_DataInd          SYMBOL "GP_DataInd"
`??GP_DataInd::?relay` SYMBOL "?relay", GP_DataInd
GP_SecReq           SYMBOL "GP_SecReq"
`??GP_SecReq::?relay` SYMBOL "?relay", GP_SecReq
gp_PopulateField    SYMBOL "gp_PopulateField"
`??gp_PopulateField::?relay` SYMBOL "?relay", gp_PopulateField
gp_ProxyTblInit     SYMBOL "gp_ProxyTblInit"
`??gp_ProxyTblInit::?relay` SYMBOL "?relay", gp_ProxyTblInit
gp_RegisterCommissioningModeCB SYMBOL "gp_RegisterCommissioningModeCB"
`??gp_RegisterCommissioningModeCB::?relay` SYMBOL "?relay", gp_RegisterCommissioningModeCB
gp_RegisterGPChangeChannelReqCB SYMBOL "gp_RegisterGPChangeChannelReqCB"
`??gp_RegisterGPChangeChannelReqCB::?relay` SYMBOL "?relay", gp_RegisterGPChangeChannelReqCB
gp_RegisterGPChangeChannelReqForBDBCB SYMBOL "gp_RegisterGPChangeChannelReqForBDBCB"
`??gp_RegisterGPChangeChannelReqForBDBCB::?relay` SYMBOL "?relay", gp_RegisterGPChangeChannelReqForBDBCB
gp_endpointInit     SYMBOL "gp_endpointInit"
`??gp_endpointInit::?relay` SYMBOL "?relay", gp_endpointInit
gp_expireDuplicateFiltering SYMBOL "gp_expireDuplicateFiltering"
`??gp_expireDuplicateFiltering::?relay` SYMBOL "?relay", gp_expireDuplicateFiltering
gp_getProxyTableByGpId SYMBOL "gp_getProxyTableByGpId"
`??gp_getProxyTableByGpId::?relay` SYMBOL "?relay", gp_getProxyTableByGpId
gp_getProxyTableByIndex SYMBOL "gp_getProxyTableByIndex"
`??gp_getProxyTableByIndex::?relay` SYMBOL "?relay", gp_getProxyTableByIndex
gp_returnOperationalChannel SYMBOL "gp_returnOperationalChannel"
`??gp_returnOperationalChannel::?relay` SYMBOL "?relay", gp_returnOperationalChannel
gp_stopCommissioningMode SYMBOL "gp_stopCommissioningMode"
`??gp_stopCommissioningMode::?relay` SYMBOL "?relay", gp_stopCommissioningMode
zclGp_DataIndParse  SYMBOL "zclGp_DataIndParse"
`??zclGp_DataIndParse::?relay` SYMBOL "?relay", zclGp_DataIndParse
zclGp_ManteinanceIndParse SYMBOL "zclGp_ManteinanceIndParse"
`??zclGp_ManteinanceIndParse::?relay` SYMBOL "?relay", zclGp_ManteinanceIndParse

        EXTERN `??GP_DataReq::?relay`
        FUNCTION `??GP_DataReq::?relay`,00H
        EXTERN `??ZDSecMgrReadKeyFromNv::?relay`
        FUNCTION `??ZDSecMgrReadKeyFromNv::?relay`,00H
        EXTERN `??ZMacSetReq::?relay`
        FUNCTION `??ZMacSetReq::?relay`,00H
        EXTERN `??bdb_RegisterSimpleDescriptor::?relay`
        FUNCTION `??bdb_RegisterSimpleDescriptor::?relay`,00H
        EXTERN `??gp_DataIndAppendToList::?relay`
        FUNCTION `??gp_DataIndAppendToList::?relay`,00H
        EXTERN `??gp_DataIndGet::?relay`
        FUNCTION `??gp_DataIndGet::?relay`,00H
        EXTERN `??gp_DataIndReleaseFromList::?relay`
        FUNCTION `??gp_DataIndReleaseFromList::?relay`,00H
        EXTERN `??gp_FreeGpTxQueue::?relay`
        FUNCTION `??gp_FreeGpTxQueue::?relay`,00H
        EXTERN `??gp_GetHandle::?relay`
        FUNCTION `??gp_GetHandle::?relay`,00H
        EXTERN `??gp_PairingUpdateProxyTlb::?relay`
        FUNCTION `??gp_PairingUpdateProxyTlb::?relay`,00H
        EXTERN `??gp_ResetProxyBasicTblEntry::?relay`
        FUNCTION `??gp_ResetProxyBasicTblEntry::?relay`,00H
        EXTERN `??osal_build_uint16::?relay`
        FUNCTION `??osal_build_uint16::?relay`,00H
        EXTERN `??osal_build_uint32::?relay`
        FUNCTION `??osal_build_uint32::?relay`,00H
        EXTERN `??osal_get_timeoutEx::?relay`
        FUNCTION `??osal_get_timeoutEx::?relay`,00H
        EXTERN `??osal_mem_alloc::?relay`
        FUNCTION `??osal_mem_alloc::?relay`,00H
        EXTERN `??osal_mem_free::?relay`
        FUNCTION `??osal_mem_free::?relay`,00H
        EXTERN `??osal_memcmp::?relay`
        FUNCTION `??osal_memcmp::?relay`,00H
        EXTERN `??osal_memcpy::?relay`
        FUNCTION `??osal_memcpy::?relay`,00H
        EXTERN `??osal_memset::?relay`
        FUNCTION `??osal_memset::?relay`,00H
        EXTERN `??osal_msg_allocate::?relay`
        FUNCTION `??osal_msg_allocate::?relay`,00H
        EXTERN `??osal_msg_send::?relay`
        FUNCTION `??osal_msg_send::?relay`,00H
        EXTERN `??osal_nv_item_init::?relay`
        FUNCTION `??osal_nv_item_init::?relay`,00H
        EXTERN `??osal_nv_read::?relay`
        FUNCTION `??osal_nv_read::?relay`,00H
        EXTERN `??osal_nv_write::?relay`
        FUNCTION `??osal_nv_write::?relay`,00H
        EXTERN `??osal_start_timerEx::?relay`
        FUNCTION `??osal_start_timerEx::?relay`,00H
        EXTERN `??osal_stop_timerEx::?relay`
        FUNCTION `??osal_stop_timerEx::?relay`,00H
        EXTERN `??pt_ZclReadGetProxyEntry::?relay`
        FUNCTION `??pt_ZclReadGetProxyEntry::?relay`,00H
        EXTERN `??zclGp_RegisterCmdCallbacks::?relay`
        FUNCTION `??zclGp_RegisterCmdCallbacks::?relay`,00H
        EXTERN `??zclGp_SendGpCommissioningNotificationCommand:`
        FUNCTION `??zclGp_SendGpCommissioningNotificationCommand:`,00H
        EXTERN `??zclGp_SendGpNotificationCommand::?relay`
        FUNCTION `??zclGp_SendGpNotificationCommand::?relay`,00H
        EXTERN `??zclGp_SendGpProxyTableResponse::?relay`
        FUNCTION `??zclGp_SendGpProxyTableResponse::?relay`,00H
        EXTERN `??zclGpp_ReadWriteAttrCB::?relay`
        FUNCTION `??zclGpp_ReadWriteAttrCB::?relay`,00H
        EXTERN `??zcl_ReadAttrData::?relay`
        FUNCTION `??zcl_ReadAttrData::?relay`,00H
        EXTERN `??zcl_registerAttrList::?relay`
        FUNCTION `??zcl_registerAttrList::?relay`,00H
        EXTERN `??zcl_registerReadWriteCB::?relay`
        FUNCTION `??zcl_registerReadWriteCB::?relay`,00H
        EXTERN GP_DataReq
        FUNCTION GP_DataReq,0202H
        ARGFRAME ISTACK, 2, STACK
        ARGFRAME PSTACK, 0, STACK
        ARGFRAME XSTACK, 21, STACK
        ARGFRAME IOVERLAY, 0, STATIC
        ARGFRAME DOVERLAY, 0, STATIC
        EXTERN ZDSecMgrReadKeyFromNv
        FUNCTION ZDSecMgrReadKeyFromNv,0202H
        ARGFRAME ISTACK, 0, STACK
        ARGFRAME PSTACK, 0, STACK
        ARGFRAME XSTACK, 127, STACK
        ARGFRAME IOVERLAY, 0, STATIC
        ARGFRAME DOVERLAY, 0, STATIC
        EXTERN ZMacSetReq
        FUNCTION ZMacSetReq,0202H
        ARGFRAME ISTACK, 2, STACK
        ARGFRAME PSTACK, 0, STACK
        ARGFRAME XSTACK, 98, STACK
        ARGFRAME IOVERLAY, 0, STATIC
        ARGFRAME DOVERLAY, 0, STATIC
        EXTERN _NIB
        EXTERN bdb_RegisterSimpleDescriptor
        FUNCTION bdb_RegisterSimpleDescriptor,0202H
        ARGFRAME ISTACK, 2, STACK
        ARGFRAME PSTACK, 0, STACK
        ARGFRAME XSTACK, 0, STACK
        ARGFRAME IOVERLAY, 0, STATIC
        ARGFRAME DOVERLAY, 0, STATIC
        EXTERN gp_DataIndAppendToList
        FUNCTION gp_DataIndAppendToList,0202H
        ARGFRAME ISTACK, 0, STACK
        ARGFRAME PSTACK, 0, STACK
        ARGFRAME XSTACK, 148, STACK
        ARGFRAME IOVERLAY, 0, STATIC
        ARGFRAME DOVERLAY, 0, STATIC
        EXTERN gp_DataIndGet
        FUNCTION gp_DataIndGet,0202H
        ARGFRAME ISTACK, 0, STACK
        ARGFRAME PSTACK, 0, STACK
        ARGFRAME XSTACK, 127, STACK
        ARGFRAME IOVERLAY, 0, STATIC
        ARGFRAME DOVERLAY, 0, STATIC
        EXTERN gp_DataIndReleaseFromList
        FUNCTION gp_DataIndReleaseFromList,0202H
        ARGFRAME ISTACK, 0, STACK
        ARGFRAME PSTACK, 0, STACK
        ARGFRAME XSTACK, 12, STACK
        ARGFRAME IOVERLAY, 0, STATIC
        ARGFRAME DOVERLAY, 0, STATIC
        EXTERN gp_FreeGpTxQueue
        FUNCTION gp_FreeGpTxQueue,0202H
        ARGFRAME ISTACK, 2, STACK
        ARGFRAME PSTACK, 0, STACK
        ARGFRAME XSTACK, 0, STACK
        ARGFRAME IOVERLAY, 0, STATIC
        ARGFRAME DOVERLAY, 0, STATIC
        EXTERN gp_GetHandle
        FUNCTION gp_GetHandle,0202H
        ARGFRAME ISTACK, 0, STACK
        ARGFRAME PSTACK, 0, STACK
        ARGFRAME XSTACK, 98, STACK
        ARGFRAME IOVERLAY, 0, STATIC
        ARGFRAME DOVERLAY, 0, STATIC
        EXTERN gp_PairingUpdateProxyTlb
        FUNCTION gp_PairingUpdateProxyTlb,0202H
        ARGFRAME ISTACK, 2, STACK
        ARGFRAME PSTACK, 0, STACK
        ARGFRAME XSTACK, 53, STACK
        ARGFRAME IOVERLAY, 0, STATIC
        ARGFRAME DOVERLAY, 0, STATIC
        EXTERN gp_ResetProxyBasicTblEntry
        FUNCTION gp_ResetProxyBasicTblEntry,0202H
        ARGFRAME ISTACK, 0, STACK
        ARGFRAME PSTACK, 0, STACK
        ARGFRAME XSTACK, 178, STACK
        ARGFRAME IOVERLAY, 0, STATIC
        ARGFRAME DOVERLAY, 0, STATIC
        EXTERN gp_TaskID
        EXTERN osal_build_uint16
        FUNCTION osal_build_uint16,0202H
        ARGFRAME ISTACK, 0, STACK
        ARGFRAME PSTACK, 0, STACK
        ARGFRAME XSTACK, 10, STACK
        ARGFRAME IOVERLAY, 0, STATIC
        ARGFRAME DOVERLAY, 0, STATIC
        EXTERN osal_build_uint32
        FUNCTION osal_build_uint32,0202H
        ARGFRAME ISTACK, 0, STACK
        ARGFRAME PSTACK, 0, STACK
        ARGFRAME XSTACK, 98, STACK
        ARGFRAME IOVERLAY, 0, STATIC
        ARGFRAME DOVERLAY, 0, STATIC
        EXTERN osal_get_timeoutEx
        FUNCTION osal_get_timeoutEx,0202H
        ARGFRAME ISTACK, 0, STACK
        ARGFRAME PSTACK, 0, STACK
        ARGFRAME XSTACK, 148, STACK
        ARGFRAME IOVERLAY, 0, STATIC
        ARGFRAME DOVERLAY, 0, STATIC
        EXTERN osal_mem_alloc
        FUNCTION osal_mem_alloc,0202H
        ARGFRAME ISTACK, 0, STACK
        ARGFRAME PSTACK, 0, STACK
        ARGFRAME XSTACK, 178, STACK
        ARGFRAME IOVERLAY, 0, STATIC
        ARGFRAME DOVERLAY, 0, STATIC
        EXTERN osal_mem_free
        FUNCTION osal_mem_free,0202H
        ARGFRAME ISTACK, 0, STACK
        ARGFRAME PSTACK, 0, STACK
        ARGFRAME XSTACK, 178, STACK
        ARGFRAME IOVERLAY, 0, STATIC
        ARGFRAME DOVERLAY, 0, STATIC
        EXTERN osal_memcmp
        FUNCTION osal_memcmp,0202H
        ARGFRAME ISTACK, 0, STACK
        ARGFRAME PSTACK, 0, STACK
        ARGFRAME XSTACK, 130, STACK
        ARGFRAME IOVERLAY, 0, STATIC
        ARGFRAME DOVERLAY, 0, STATIC
        EXTERN osal_memcpy
        FUNCTION osal_memcpy,0202H
        ARGFRAME ISTACK, 0, STACK
        ARGFRAME PSTACK, 0, STACK
        ARGFRAME XSTACK, 181, STACK
        ARGFRAME IOVERLAY, 0, STATIC
        ARGFRAME DOVERLAY, 0, STATIC
        EXTERN osal_memset
        FUNCTION osal_memset,0202H
        ARGFRAME ISTACK, 0, STACK
        ARGFRAME PSTACK, 0, STACK
        ARGFRAME XSTACK, 148, STACK
        ARGFRAME IOVERLAY, 0, STATIC
        ARGFRAME DOVERLAY, 0, STATIC
        EXTERN osal_msg_allocate
        FUNCTION osal_msg_allocate,0202H
        ARGFRAME ISTACK, 0, STACK
        ARGFRAME PSTACK, 0, STACK
        ARGFRAME XSTACK, 127, STACK
        ARGFRAME IOVERLAY, 0, STATIC
        ARGFRAME DOVERLAY, 0, STATIC
        EXTERN osal_msg_send
        FUNCTION osal_msg_send,0202H
        ARGFRAME ISTACK, 0, STACK
        ARGFRAME PSTACK, 0, STACK
        ARGFRAME XSTACK, 127, STACK
        ARGFRAME IOVERLAY, 0, STATIC
        ARGFRAME DOVERLAY, 0, STATIC
        EXTERN osal_nv_item_init
        FUNCTION osal_nv_item_init,0202H
        ARGFRAME ISTACK, 0, STACK
        ARGFRAME PSTACK, 0, STACK
        ARGFRAME XSTACK, 79, STACK
        ARGFRAME IOVERLAY, 0, STATIC
        ARGFRAME DOVERLAY, 0, STATIC
        EXTERN osal_nv_read
        FUNCTION osal_nv_read,0202H
        ARGFRAME ISTACK, 0, STACK
        ARGFRAME PSTACK, 0, STACK
        ARGFRAME XSTACK, 20, STACK
        ARGFRAME IOVERLAY, 0, STATIC
        ARGFRAME DOVERLAY, 0, STATIC
        EXTERN osal_nv_write
        FUNCTION osal_nv_write,0202H
        ARGFRAME ISTACK, 0, STACK
        ARGFRAME PSTACK, 0, STACK
        ARGFRAME XSTACK, 152, STACK
        ARGFRAME IOVERLAY, 0, STATIC
        ARGFRAME DOVERLAY, 0, STATIC
        EXTERN osal_start_timerEx
        FUNCTION osal_start_timerEx,0202H
        ARGFRAME ISTACK, 0, STACK
        ARGFRAME PSTACK, 0, STACK
        ARGFRAME XSTACK, 152, STACK
        ARGFRAME IOVERLAY, 0, STATIC
        ARGFRAME DOVERLAY, 0, STATIC
        EXTERN osal_stop_timerEx
        FUNCTION osal_stop_timerEx,0202H
        ARGFRAME ISTACK, 2, STACK
        ARGFRAME PSTACK, 0, STACK
        ARGFRAME XSTACK, 21, STACK
        ARGFRAME IOVERLAY, 0, STATIC
        ARGFRAME DOVERLAY, 0, STATIC
        EXTERN pt_ZclReadGetProxyEntry
        FUNCTION pt_ZclReadGetProxyEntry,0202H
        ARGFRAME ISTACK, 0, STACK
        ARGFRAME PSTACK, 0, STACK
        ARGFRAME XSTACK, 180, STACK
        ARGFRAME IOVERLAY, 0, STATIC
        ARGFRAME DOVERLAY, 0, STATIC
        EXTERN zclGp_RegisterCmdCallbacks
        FUNCTION zclGp_RegisterCmdCallbacks,0202H
        ARGFRAME ISTACK, 2, STACK
        ARGFRAME PSTACK, 0, STACK
        ARGFRAME XSTACK, 0, STACK
        ARGFRAME IOVERLAY, 0, STATIC
        ARGFRAME DOVERLAY, 0, STATIC
        EXTERN zclGp_SendGpCommissioningNotificationCommand
        FUNCTION zclGp_SendGpCommissioningNotificationCommand,0202H
        ARGFRAME ISTACK, 0, STACK
        ARGFRAME PSTACK, 0, STACK
        ARGFRAME XSTACK, 148, STACK
        ARGFRAME IOVERLAY, 0, STATIC
        ARGFRAME DOVERLAY, 0, STATIC
        EXTERN zclGp_SendGpNotificationCommand
        FUNCTION zclGp_SendGpNotificationCommand,0202H
        ARGFRAME ISTACK, 0, STACK
        ARGFRAME PSTACK, 0, STACK
        ARGFRAME XSTACK, 148, STACK
        ARGFRAME IOVERLAY, 0, STATIC
        ARGFRAME DOVERLAY, 0, STATIC
        EXTERN zclGp_SendGpProxyTableResponse
        FUNCTION zclGp_SendGpProxyTableResponse,0202H
        ARGFRAME ISTACK, 0, STACK
        ARGFRAME PSTACK, 0, STACK
        ARGFRAME XSTACK, 178, STACK
        ARGFRAME IOVERLAY, 0, STATIC
        ARGFRAME DOVERLAY, 0, STATIC
        EXTERN zcl_InSeqNum
        EXTERN zcl_ReadAttrData
        FUNCTION zcl_ReadAttrData,0202H
        ARGFRAME ISTACK, 0, STACK
        ARGFRAME PSTACK, 0, STACK
        ARGFRAME XSTACK, 131, STACK
        ARGFRAME IOVERLAY, 0, STATIC
        ARGFRAME DOVERLAY, 0, STATIC
        EXTERN zcl_registerAttrList
        FUNCTION zcl_registerAttrList,0202H
        ARGFRAME ISTACK, 2, STACK
        ARGFRAME PSTACK, 0, STACK
        ARGFRAME XSTACK, 0, STACK
        ARGFRAME IOVERLAY, 0, STATIC
        ARGFRAME DOVERLAY, 0, STATIC
        EXTERN zcl_registerReadWriteCB
        FUNCTION zcl_registerReadWriteCB,0202H
        ARGFRAME ISTACK, 2, STACK
        ARGFRAME PSTACK, 0, STACK
        ARGFRAME XSTACK, 0, STACK
        ARGFRAME IOVERLAY, 0, STATIC
        ARGFRAME DOVERLAY, 0, STATIC

// D:\×ÀÃæ\¡¶ZigBee3.0¿ª·¢Ö¸ÄÏ¡·ÅäÌ××ÊÔ´£¨¸½¼Ó²¿·Ö£©\¿ÎÍâÆª£ºÏîÄ¿ÊµÕ½\»ùÓÚZigbeeµÄÎÂÊª¶È & ¹âÕÕ¶È²É¼¯ÏµÍ³\ZigBeeÉè±¸¶Ë¹Ì¼þÓëÔ´Âë\Ô´Âë\Components\stack\GP\gp_common.c
//    1 /**************************************************************************************************
//    2   Filename:       gp_common.c
//    3   Revised:        $Date: 2016-02-25 11:51:49 -0700 (Thu, 25 Feb 2016) $
//    4   Revision:       $Revision: - $
//    5 
//    6   Description:    This file contains the implementation of the cGP stub.
//    7 
//    8 
//    9   Copyright 2006-2015 Texas Instruments Incorporated. All rights reserved.
//   10 
//   11   IMPORTANT: Your use of this Software is limited to those specific rights
//   12   granted under the terms of a software license agreement between the user
//   13   who downloaded the software, his/her employer (which must be your employer)
//   14   and Texas Instruments Incorporated (the "License").  You may not use this
//   15   Software unless you agree to abide by the terms of the License. The License
//   16   limits your use, and you acknowledge, that the Software may not be modified,
//   17   copied or distributed unless embedded on a Texas Instruments microcontroller
//   18   or used solely and exclusively in conjunction with a Texas Instruments radio
//   19   frequency transceiver, which is integrated into your product.  Other than for
//   20   the foregoing purpose, you may not use, reproduce, copy, prepare derivative
//   21   works of, modify, distribute, perform, display or sell this Software and/or
//   22   its documentation for any purpose.
//   23 
//   24   YOU FURTHER ACKNOWLEDGE AND AGREE THAT THE SOFTWARE AND DOCUMENTATION ARE
//   25   PROVIDED "AS IS" WITHOUT WARRANTY OF ANY KIND, EITHER EXPRESS OR IMPLIED,
//   26   INCLUDING WITHOUT LIMITATION, ANY WARRANTY OF MERCHANTABILITY, TITLE,
//   27   NON-INFRINGEMENT AND FITNESS FOR A PARTICULAR PURPOSE. IN NO EVENT SHALL
//   28   TEXAS INSTRUMENTS OR ITS LICENSORS BE LIABLE OR OBLIGATED UNDER CONTRACT,
//   29   NEGLIGENCE, STRICT LIABILITY, CONTRIBUTION, BREACH OF WARRANTY, OR OTHER
//   30   LEGAL EQUITABLE THEORY ANY DIRECT OR INDIRECT DAMAGES OR EXPENSES
//   31   INCLUDING BUT NOT LIMITED TO ANY INCIDENTAL, SPECIAL, INDIRECT, PUNITIVE
//   32   OR CONSEQUENTIAL DAMAGES, LOST PROFITS OR LOST DATA, COST OF PROCUREMENT
//   33   OF SUBSTITUTE GOODS, TECHNOLOGY, SERVICES, OR ANY CLAIMS BY THIRD PARTIES
//   34   (INCLUDING BUT NOT LIMITED TO ANY DEFENSE THEREOF), OR OTHER SIMILAR COSTS.
//   35 
//   36   Should you have any questions regarding your right to use this Software,
//   37   contact Texas Instruments Incorporated at www.TI.com.
//   38 **************************************************************************************************/
//   39 
//   40 /*********************************************************************
//   41  * INCLUDES
//   42  */
//   43 
//   44 #include "ZGlobals.h"
//   45 #include "ZComDef.h"
//   46 #include "zcl_general.h"
//   47 #include "AF.h"
//   48 #include "gp_common.h"
//   49 #include "gp_interface.h"
//   50 #include "zcl_green_power.h"
//   51 #include "OSAL.h"
//   52 #include "dGP_stub.h"
//   53 #include "mac_api.h"
//   54 #include "ZDSecMgr.h"
//   55 #include "bdb.h"
//   56 
//   57 #if !defined (DISABLE_GREENPOWER_BASIC_PROXY) && (ZG_BUILD_RTR_TYPE)
//   58 
//   59  /*********************************************************************
//   60  * MACROS
//   61  */ 
//   62 
//   63    
//   64  /*********************************************************************
//   65  * CONSTANTS
//   66  */
//   67 
//   68 #define PGG_COMMISSIONING_WINDOW   180  //180 seconds by defaut
//   69 
//   70 
//   71 #ifdef GP_SHARED_KEY

        RSEG CODE_C:CODE:REORDER:NOROOT(0)
        DATA8
//   72   CONFIG_ITEM uint8 zgpSharedKey[SEC_KEY_LEN] = GP_SHARED_KEY;
zgpSharedKey:
        DB 192
        DB 193
        DB 194
        DB 195
        DB 196
        DB 197
        DB 198
        DB 199
        DB 200
        DB 201
        DB 202
        DB 203
        DB 204
        DB 205
        DB 206
        DB 207
//   73 #else
//   74   CONFIG_ITEM uint8 zgpSharedKey[SEC_KEY_LEN] = {0xFF};
//   75 #endif
//   76 
//   77 /*********************************************************************
//   78  * TYPEDEFS
//   79  */
//   80    
//   81  /*********************************************************************
//   82  * GLOBAL VARIABLES
//   83  */
//   84 
//   85 

        RSEG XDATA_I:XDATA:NOROOT(0)
//   86 uint8  zclGp_gppMaxProxyTableEntries = GPP_MAX_PROXY_TABLE_ENTRIES;
zclGp_gppMaxProxyTableEntries:
        DATA8
        DS 1
        REQUIRE `?<Initializer for zclGp_gppMaxProxyTableEntrie`
        REQUIRE __INIT_XDATA_I

        RSEG XDATA_Z:XDATA:NOROOT(0)
        DATA16
//   87 uint8 *pZclGp_ProxyTableEntries = NULL;
pZclGp_ProxyTableEntries:
        DS 2
        REQUIRE __INIT_XDATA_Z

        RSEG XDATA_I:XDATA:NOROOT(0)
//   88 uint8  zclGp_gppNotificationRetryNumber = GPP_NOTIFICATION_RETRY_NUMBER;
zclGp_gppNotificationRetryNumber:
        DATA8
        DS 1
        REQUIRE `?<Initializer for zclGp_gppNotificationRetryNu`
        REQUIRE __INIT_XDATA_I

        RSEG XDATA_I:XDATA:NOROOT(0)
//   89 uint8  zclGp_gppNotificationRetryTimer = GPP_NOTIFICATION_RETRY_TIMER;
zclGp_gppNotificationRetryTimer:
        DATA8
        DS 1
        REQUIRE `?<Initializer for zclGp_gppNotificationRetryTi`
        REQUIRE __INIT_XDATA_I

        RSEG XDATA_I:XDATA:NOROOT(0)
//   90 uint8  zclGp_gppMaxSearchCounter = GPP_MAX_SEARCH_COUNTER;
zclGp_gppMaxSearchCounter:
        DATA8
        DS 1
        REQUIRE `?<Initializer for zclGp_gppMaxSearchCounter>`
        REQUIRE __INIT_XDATA_I

        RSEG XDATA_Z:XDATA:NOROOT(0)
        DATA16
//   91 uint8 *pZclGp_gppBlockedGPDID = NULL;
pZclGp_gppBlockedGPDID:
        DS 2
        REQUIRE __INIT_XDATA_Z
//   92 
//   93 /**********************************************************************************
//   94 ZigBee PRO Green Power feature specification
//   95 Basic functionality set
//   96 Version 1.0
//   97 
//   98 Table 42 – Format of the gppFunctionality attribute
//   99 ----------------------------------------------------------------------------------
//  100 Indication   | Functionality                                        | Basic Proxy
//  101 -------------|------------------------------------------------------|-------------
//  102 b0           | GP feature                                           | 0b1
//  103 b1           | Direct communication (reception of GPDF via GP stub) | 0b1
//  104 b2           | Derived groupcast communication                      | 0b1
//  105 b3           | Pre-commissioned groupcast communication             | 0b1
//  106 b4           | Full unicast communication                           | 0b0
//  107 b5           | Lightweight unicast communication                    | 0b1
//  108 b6           | Reserved                                             | 0b0
//  109 b7           | Bidirectional operation                              | 0b0
//  110 b8           | Proxy Table maintenance (active and passive,         | 0b0
//  111              | for GPD mobility and GPP robustness)                 |
//  112 b9           | Reserved                                             | 0b0
//  113 b10          | GP commissioning                                     | 0b1
//  114 b11          | CT-based commissioning                               | 0b1
//  115 b12          | Maintenance of GPD (deliver channel/key              | 0b0
//  116              | during operation)                                    | 
//  117 b13          | gpdSecurityLevel  = 0b00                             | 0b1
//  118 b14          | Deprecated: gpdSe curityLevel = 0b01                 | 0b0
//  119 b15          | gpdSecurityLevel  = 0b10                             | 0b1
//  120 b16          | gpdSecurityLevel  = 0b11                             | 0b1
//  121 b17          | Reserved                                             | 0b0
//  122 b18          | Reserved                                             | 0b0
//  123 b19          | GPD IEEE address                                     | 0b1
//  124 b20 – b23    | Reserved                                             | 0b0
//  125 ----------------------------------------------------------------------------------
//  126 ***********************************************************************************/
//  127 
//  128 //                                          b0-b7       b8-b15      b16-23
//  129 //                                        0b00101111  0b10101100  0b00001001

        RSEG XDATA_I:XDATA:NOROOT(0)
//  130 uint8  zclGp_gppFunctionality[3] =       {   0x2F,      0xAC,        0x09};
zclGp_gppFunctionality:
        DATA8
        DS 3
        REQUIRE `?<Initializer for zclGp_gppFunctionality>`
        REQUIRE __INIT_XDATA_I

        RSEG XDATA_I:XDATA:NOROOT(0)
//  131 uint8  zclGp_gppActiveFunctionality[3] = {   0x2F,      0xAC,        0x09};
zclGp_gppActiveFunctionality:
        DATA8
        DS 3
        REQUIRE `?<Initializer for zclGp_gppActiveFunctionality`
        REQUIRE __INIT_XDATA_I
//  132 

        RSEG XDATA_Z:XDATA:NOROOT(0)
        DATA8
//  133 uint8  zclGp_gpSharedSecurityKeyType = GP_SHARED_SEC_KEY_TYPE;
zclGp_gpSharedSecurityKeyType:
        DS 1
        REQUIRE __INIT_XDATA_Z

        RSEG XDATA_I:XDATA:NOROOT(0)
//  134 uint8  zclGp_gpSharedSecurityKey[SEC_KEY_LEN] = GP_SHARED_KEY;
zclGp_gpSharedSecurityKey:
        DATA8
        DS 16
        REQUIRE `?<Initializer for zclGp_gpSharedSecurityKey>`
        REQUIRE __INIT_XDATA_I

        RSEG XDATA_I:XDATA:NOROOT(0)
//  135 uint8  zclGp_gpLinkKey[SEC_KEY_LEN] = GP_LINK_LEY;
zclGp_gpLinkKey:
        DATA8
        DS 16
        REQUIRE `?<Initializer for zclGp_gpLinkKey>`
        REQUIRE __INIT_XDATA_I

        RSEG XDATA_I:XDATA:NOROOT(0)
//  136 uint16 zclGp_clusterRevision = GP_CLUSTER_REVISION;
zclGp_clusterRevision:
        DATA16
        DS 2
        REQUIRE `?<Initializer for zclGp_clusterRevision>`
        REQUIRE __INIT_XDATA_I
//  137 

        RSEG XDATA_Z:XDATA:NOROOT(0)
        DATA16
//  138 static gpCommissioningMode_t  pfnCommissioningMode = NULL;
pfnCommissioningMode:
        DS 2
        REQUIRE __INIT_XDATA_Z

        RSEG XDATA_Z:XDATA:NOROOT(0)
        DATA16
//  139 static gpChangeChannelReq_t   pfnChangeChannelReq = NULL;
pfnChangeChannelReq:
        DS 2
        REQUIRE __INIT_XDATA_Z

        RSEG XDATA_Z:XDATA:NOROOT(0)
        DATA16
//  140 static gpChangeChannelReq_t   pfnChangeChannelReqForBDB = NULL;
pfnChangeChannelReqForBDB:
        DS 2
        REQUIRE __INIT_XDATA_Z
//  141 
//  142 

        RSEG XDATA_Z:XDATA:NOROOT(0)
        DATA8
//  143 uint8 gp_commissioningOptions = 0;           //Commissioning Options from the ommissioningMode command
gp_commissioningOptions:
        DS 1
        REQUIRE __INIT_XDATA_Z

        RSEG XDATA_Z:XDATA:NOROOT(0)
        DATA16
//  144 uint16 gp_commissioningUnicastAddress = 0;   //address of the device to which send the notifications
gp_commissioningUnicastAddress:
        DS 2
        REQUIRE __INIT_XDATA_Z
//  145 

        RSEG XDATA_Z:XDATA:NOROOT(0)
        DATA8
//  146 uint8  zgGP_InCommissioningMode = FALSE;     // Global flag that states if in commissioning mode or in operational mode.
zgGP_InCommissioningMode:
        DS 1
        REQUIRE __INIT_XDATA_Z

        RSEG XDATA_I:XDATA:NOROOT(0)
//  147 uint16 gp_commissionerAddress = 0xFFFF;      //Address to which send the notifications during commissioning mode
gp_commissionerAddress:
        DATA16
        DS 2
        REQUIRE `?<Initializer for gp_commissionerAddress>`
        REQUIRE __INIT_XDATA_I

        RSEG XDATA_Z:XDATA:NOROOT(0)
        DATA8
//  148 byte   gp_tempLogicalChannel = 0;            //Holder of the operational nwk channel
gp_tempLogicalChannel:
        DS 1
        REQUIRE __INIT_XDATA_Z
//  149 
//  150 
//  151 
//  152   
//  153 
//  154 /*********************************************************************
//  155  * ATTRIBUTE DEFINITIONS - Uses REAL cluster IDs
//  156  */

        RSEG CODE_C:CODE:REORDER:NOROOT(0)
        DATA8
//  157 CONST zclAttrRec_t zclGp_Attrs[] =
zclGp_Attrs:
        DATA16
        DW 33
        DW 16
        DATA8
        DB 32
        DB 129
        DATA16
        DW zclGp_gppMaxProxyTableEntries
        DW 33
        DW 17
        DATA8
        DB 67
        DB 129
        DATA16
        DW 0H
        DW 33
        DW 18
        DATA8
        DB 32
        DB 131
        DATA16
        DW zclGp_gppNotificationRetryNumber
        DW 33
        DW 19
        DATA8
        DB 32
        DB 131
        DATA16
        DW zclGp_gppNotificationRetryTimer
        DW 33
        DW 20
        DATA8
        DB 32
        DB 131
        DATA16
        DW zclGp_gppMaxSearchCounter
        DW 33
        DW 21
        DATA8
        DB 67
        DB 129
        DATA16
        DW pZclGp_gppBlockedGPDID
        DW 33
        DW 22
        DATA8
        DB 26
        DB 129
        DATA16
        DW zclGp_gppFunctionality
        DW 33
        DW 23
        DATA8
        DB 26
        DB 129
        DATA16
        DW zclGp_gppActiveFunctionality
        DW 33
        DW 32
        DATA8
        DB 24
        DB 131
        DATA16
        DW zclGp_gpSharedSecurityKeyType
        DW 33
        DW 33
        DATA8
        DB 241
        DB 131
        DATA16
        DW zclGp_gpSharedSecurityKey
        DW 33
        DW 34
        DATA8
        DB 241
        DB 131
        DATA16
        DW zclGp_gpLinkKey
        DW 33
        DW 65533
        DATA8
        DB 33
        DB 129
        DATA16
        DW zclGp_clusterRevision
//  158 {
//  159   // *** Green Power Proxy Cluster Attributes ***
//  160   {
//  161     ZCL_CLUSTER_ID_GREEN_POWER,
//  162     {  // Attribute record
//  163       ATTRID_GP_GPP_MAX_PROXY_TABLE_ENTRIES,
//  164       ZCL_DATATYPE_UINT8,
//  165       ACCESS_CONTROL_READ | ACCESS_CLIENT,
//  166       (void *)&zclGp_gppMaxProxyTableEntries
//  167     }
//  168   },
//  169   {
//  170     ZCL_CLUSTER_ID_GREEN_POWER,
//  171     {  // Attribute record
//  172       ATTRID_GP_PROXY_TABLE,
//  173       ZCL_DATATYPE_LONG_OCTET_STR,
//  174       ACCESS_CONTROL_READ | ACCESS_CLIENT,
//  175       NULL // Use application's callback to Read this attribute
//  176     }
//  177   },
//  178   {
//  179     ZCL_CLUSTER_ID_GREEN_POWER,
//  180     {  // Attribute record
//  181       ATTRID_GP_GPP_NOTIFICATION_RETRY_NUMBER,
//  182       ZCL_DATATYPE_UINT8,
//  183       ACCESS_CONTROL_READ | ACCESS_CONTROL_WRITE | ACCESS_CLIENT,
//  184       (void *)&zclGp_gppNotificationRetryNumber
//  185     }
//  186   },
//  187   {
//  188     ZCL_CLUSTER_ID_GREEN_POWER,
//  189     {  // Attribute record
//  190       ATTRID_GP_GPP_NOTIFICATION_RETRY_TIMER,
//  191       ZCL_DATATYPE_UINT8,
//  192       ACCESS_CONTROL_READ | ACCESS_CONTROL_WRITE | ACCESS_CLIENT,
//  193       (void *)&zclGp_gppNotificationRetryTimer
//  194     }
//  195   },
//  196   {
//  197     ZCL_CLUSTER_ID_GREEN_POWER,
//  198     {  // Attribute record
//  199       ATTRID_GP_GPP_MAX_SEARCH_COUNTER,
//  200       ZCL_DATATYPE_UINT8,
//  201       ACCESS_CONTROL_READ | ACCESS_CONTROL_WRITE | ACCESS_CLIENT,
//  202       (void *)&zclGp_gppMaxSearchCounter
//  203     }
//  204   },
//  205   {
//  206     ZCL_CLUSTER_ID_GREEN_POWER,
//  207     {  // Attribute record
//  208       ATTRID_GP_GPP_BLOCKED_GPD_ID,
//  209       ZCL_DATATYPE_LONG_OCTET_STR,
//  210       ACCESS_CONTROL_READ | ACCESS_CLIENT,
//  211       (void *)&pZclGp_gppBlockedGPDID
//  212     }
//  213   },
//  214   {
//  215     ZCL_CLUSTER_ID_GREEN_POWER,
//  216     {  // Attribute record
//  217       ATTRID_GP_GPP_FUNCTIONALITY,
//  218       ZCL_DATATYPE_BITMAP24,
//  219       ACCESS_CONTROL_READ | ACCESS_CLIENT,
//  220       (void *)&zclGp_gppFunctionality
//  221     }
//  222   },
//  223   {
//  224     ZCL_CLUSTER_ID_GREEN_POWER,
//  225     {  // Attribute record
//  226       ATTRID_GP_GPP_ACTIVE_FUNCTIONALITY,
//  227       ZCL_DATATYPE_BITMAP24,
//  228       ACCESS_CONTROL_READ | ACCESS_CLIENT,
//  229       (void *)&zclGp_gppActiveFunctionality
//  230     }
//  231   },
//  232   {
//  233     ZCL_CLUSTER_ID_GREEN_POWER,
//  234     {  // Attribute record
//  235       ATTRID_GP_SHARED_SEC_KEY_TYPE,
//  236       ZCL_DATATYPE_BITMAP8,
//  237       ACCESS_CONTROL_READ | ACCESS_CONTROL_WRITE | ACCESS_CLIENT,
//  238       (void *)&zclGp_gpSharedSecurityKeyType
//  239     }
//  240   },
//  241   {
//  242     ZCL_CLUSTER_ID_GREEN_POWER,
//  243     {  // Attribute record
//  244       ATTRID_GP_SHARED_SEC_KEY,
//  245       ZCL_DATATYPE_128_BIT_SEC_KEY,
//  246       ACCESS_CONTROL_READ | ACCESS_CONTROL_WRITE | ACCESS_CLIENT,
//  247       (void *)&zclGp_gpSharedSecurityKey
//  248     }
//  249   },
//  250   {
//  251     ZCL_CLUSTER_ID_GREEN_POWER,
//  252     {  // Attribute record
//  253       ATTRID_GP_LINK_KEY,
//  254       ZCL_DATATYPE_128_BIT_SEC_KEY,
//  255       ACCESS_CONTROL_READ | ACCESS_CONTROL_WRITE | ACCESS_CLIENT,
//  256       (void *)&zclGp_gpLinkKey
//  257     }
//  258   },
//  259   {
//  260     ZCL_CLUSTER_ID_GREEN_POWER,
//  261     {  // Attribute record
//  262       ATTRID_CLUSTER_REVISION,
//  263       ZCL_DATATYPE_UINT16,
//  264       ACCESS_CONTROL_READ | ACCESS_CLIENT,
//  265       (void *)&zclGp_clusterRevision
//  266     }
//  267   }
//  268 };
//  269 
//  270 

        RSEG CODE_C:CODE:REORDER:NOROOT(0)
        DATA8
//  271 uint8 CONST zclGp_NumAttributes = ( sizeof(zclGp_Attrs) / sizeof(zclGp_Attrs[0]) );
zclGp_NumAttributes:
        DB 12
//  272 
//  273  /*********************************************************************
//  274  * EXTERNAL VARIABLES
//  275  */
//  276 
//  277 //List to filter duplicated packets

        RSEG XDATA_Z:XDATA:NOROOT(0)
        DATA16
//  278 gp_DataInd_t        *gp_DataIndList;
gp_DataIndList:
        DS 2
        REQUIRE __INIT_XDATA_Z
//  279 
//  280 
//  281 /*********************************************************************
//  282  * EXTERNAL FUNCTIONS
//  283  */
//  284 
//  285 
//  286 /*********************************************************************
//  287  * LOCAL VARIABLES
//  288  */
//  289 // This is the Cluster ID List and should be filled with Application
//  290 // specific cluster IDs.
//  291 #define GREEN_POWER_EP_MAX_INCLUSTERS       1
//  292 
//  293 #define GREEN_POWER_EP_MAX_OUTCLUSTERS       1

        RSEG XDATA_ROM_C:CONST:REORDER:NOROOT(0)
        DATA16
//  294 static const cId_t greenPower_EP_OutClusterList[GREEN_POWER_EP_MAX_OUTCLUSTERS] =
greenPower_EP_OutClusterList:
        DW 33
//  295 {
//  296   ZCL_CLUSTER_ID_GREEN_POWER
//  297 };
//  298 

        RSEG XDATA_I:XDATA:NOROOT(0)
//  299 static SimpleDescriptionFormat_t greenPower_EP_SimpleDesc =
greenPower_EP_SimpleDesc:
        DATA8
        DS 12
        REQUIRE `?<Initializer for greenPower_EP_SimpleDesc>`
        REQUIRE __INIT_XDATA_I
//  300 {
//  301   GREEN_POWER_INTERNAL_ENDPOINT,         //  int Endpoint;
//  302   ZCL_GP_PROFILE_ID,                     //  uint16 AppProfId;
//  303   ZCL_GP_DEVICEID_PROXY_BASIC,           //  uint16 AppDeviceId;
//  304   0,                                     //  int   AppDevVer:4;
//  305   0,                                     //  int   AppFlags:4;
//  306   0,                                     //  byte  AppNumInClusters;
//  307   NULL,                                  //  byte *pAppInClusterList;
//  308   GREEN_POWER_EP_MAX_OUTCLUSTERS,        //  byte  AppNumInClusters;
//  309   (cId_t *)greenPower_EP_OutClusterList  //  byte *pAppInClusterList;
//  310 };
//  311 
//  312 
//  313 
//  314 
//  315  /*********************************************************************
//  316  * LOCAL FUNCTIONS
//  317  */
//  318 static void GP_ProccessCommissioningNotification(gp_DataInd_t *gp_DataInd);
//  319 static void GP_ProccessNotification(gp_DataInd_t *gp_DataInd);
//  320 
//  321 static void zclGp_GpPairingCommandCB( zclGpPairing_t *pCmd );
//  322 static void zclGp_GpProxyTableReqCB( zclGpProxyTableRequest_t *pCmd );
//  323 static void zclGp_GpProxyCommissioningModeCB(zclGpProxyCommissioningMode_t* pCmd);
//  324 static void zclGp_GpResponseCommandCB(zclGpResponse_t* pCmd);
//  325 static void gp_u32CastPointer( uint8 *data, uint8 *p );
//  326 static void gp_u16CastPointer( uint8 *data, uint8 *p );
//  327 static void gp_u8CastPointer( uint8 *data, uint8 *p );
//  328 static void gp_ZclPairingParse( zclGpPairing_t* pCmd, gpPairingCmd_t* payload );
//  329 static void gp_ZclProxyTableReqParse( zclGpProxyTableRequest_t* pCmd, gpProxyTableReqCmd_t* payload );
//  330 static uint8 gp_SecurityOperationProxy( gp_DataInd_t* pInd, uint8* pKeyType, uint8* pKey);
//  331 static gp_DataInd_t* gp_DataIndFindDuplicate(uint8 handle, uint8 secLvl);
//  332 static uint8 GP_RecoveryKey(uint8 GPDFKeyType,uint8 KeyType, uint8 status, uint8 *Key);
//  333  
//  334 
//  335 
//  336 
//  337 /*********************************************************************
//  338  * ZCL General Profile Callback table
//  339  */

        RSEG XDATA_I:XDATA:NOROOT(0)
//  340 static zclGp_AppCallbacks_t zclGpProxy_CmdCallbacks =
zclGpProxy_CmdCallbacks:
        DATA8
        DS 8
        REQUIRE `?<Initializer for zclGpProxy_CmdCallbacks>`
        REQUIRE __INIT_XDATA_I
//  341 {
//  342   zclGp_GpPairingCommandCB,            //
//  343   zclGp_GpProxyTableReqCB,
//  344   zclGp_GpProxyCommissioningModeCB,    //
//  345   zclGp_GpResponseCommandCB  
//  346 };
//  347 
//  348 /*********************************************************************
//  349  * PUBLIC FUNCTIONS
//  350  *********************************************************************/
//  351 
//  352 
//  353  

        RSEG BANKED_CODE:HUGECODE:NOROOT(0)
//  354 void gp_endpointInit(void)
gp_endpointInit:
          CFI Block cfiBlock0 Using cfiCommon0
          CFI Function gp_endpointInit
        CODE
//  355 {
        FUNCALL gp_endpointInit, bdb_RegisterSimpleDescriptor
        LOCFRAME ISTACK, 2, STACK
        LOCFRAME PSTACK, 0, STACK
        LOCFRAME XSTACK, 0, STACK
        LOCFRAME IOVERLAY, 0, STATIC
        LOCFRAME DOVERLAY, 0, STATIC
        ARGFRAME ISTACK, 2, STACK
        ARGFRAME PSTACK, 0, STACK
        ARGFRAME XSTACK, 0, STACK
        ARGFRAME IOVERLAY, 0, STATIC
        ARGFRAME DOVERLAY, 0, STATIC
        FUNCALL gp_endpointInit, zclGp_RegisterCmdCallbacks
        LOCFRAME ISTACK, 2, STACK
        LOCFRAME PSTACK, 0, STACK
        LOCFRAME XSTACK, 0, STACK
        LOCFRAME IOVERLAY, 0, STATIC
        LOCFRAME DOVERLAY, 0, STATIC
        ARGFRAME ISTACK, 2, STACK
        ARGFRAME PSTACK, 0, STACK
        ARGFRAME XSTACK, 0, STACK
        ARGFRAME IOVERLAY, 0, STATIC
        ARGFRAME DOVERLAY, 0, STATIC
        FUNCALL gp_endpointInit, zcl_registerAttrList
        LOCFRAME ISTACK, 2, STACK
        LOCFRAME PSTACK, 0, STACK
        LOCFRAME XSTACK, 0, STACK
        LOCFRAME IOVERLAY, 0, STATIC
        LOCFRAME DOVERLAY, 0, STATIC
        ARGFRAME ISTACK, 2, STACK
        ARGFRAME PSTACK, 0, STACK
        ARGFRAME XSTACK, 0, STACK
        ARGFRAME IOVERLAY, 0, STATIC
        ARGFRAME DOVERLAY, 0, STATIC
        FUNCALL gp_endpointInit, zcl_registerReadWriteCB
        LOCFRAME ISTACK, 2, STACK
        LOCFRAME PSTACK, 0, STACK
        LOCFRAME XSTACK, 0, STACK
        LOCFRAME IOVERLAY, 0, STATIC
        LOCFRAME DOVERLAY, 0, STATIC
        ARGFRAME ISTACK, 2, STACK
        ARGFRAME PSTACK, 0, STACK
        ARGFRAME XSTACK, 0, STACK
        ARGFRAME IOVERLAY, 0, STATIC
        ARGFRAME DOVERLAY, 0, STATIC
        FUNCALL gp_endpointInit, gp_ProxyTblInit
        LOCFRAME ISTACK, 2, STACK
        LOCFRAME PSTACK, 0, STACK
        LOCFRAME XSTACK, 0, STACK
        LOCFRAME IOVERLAY, 0, STATIC
        LOCFRAME DOVERLAY, 0, STATIC
        ARGFRAME ISTACK, 2, STACK
        ARGFRAME PSTACK, 0, STACK
        ARGFRAME XSTACK, 0, STACK
        ARGFRAME IOVERLAY, 0, STATIC
        ARGFRAME DOVERLAY, 0, STATIC
        PUSH      DPL
          CFI DPL0 Frame(CFA_SP, 4)
          CFI CFA_SP SP+-4
        PUSH      DPH
          CFI DPH0 Frame(CFA_SP, 5)
          CFI CFA_SP SP+-5
        ; Saved register size: 2
        ; Auto size: 0
//  356 
//  357   bdb_RegisterSimpleDescriptor( &greenPower_EP_SimpleDesc );
        ; Setup parameters for call to function bdb_RegisterSimpleDescriptor
        MOV       R2,#greenPower_EP_SimpleDesc & 0xff
        MOV       R3,#(greenPower_EP_SimpleDesc >> 8) & 0xff
        LCALL     `??bdb_RegisterSimpleDescriptor::?relay`; Banked call to: bdb_RegisterSimpleDescriptor
//  358   
//  359   zclGp_RegisterCmdCallbacks( GREEN_POWER_INTERNAL_ENDPOINT, &zclGpProxy_CmdCallbacks );
        ; Setup parameters for call to function zclGp_RegisterCmdCallbacks
        MOV       R2,#zclGpProxy_CmdCallbacks & 0xff
        MOV       R3,#(zclGpProxy_CmdCallbacks >> 8) & 0xff
        MOV       R1,#-0xe
        LCALL     `??zclGp_RegisterCmdCallbacks::?relay`; Banked call to: zclGp_RegisterCmdCallbacks
//  360   
//  361   // Register the application's attribute list
//  362   zcl_registerAttrList( GREEN_POWER_INTERNAL_ENDPOINT, zclGp_NumAttributes, zclGp_Attrs );
        ; Setup parameters for call to function zcl_registerAttrList
        MOV       R4,#zclGp_Attrs & 0xff
        MOV       R5,#(zclGp_Attrs >> 8) & 0xff
        MOV       R2,#0xc
        MOV       R1,#-0xe
        LCALL     `??zcl_registerAttrList::?relay`; Banked call to: zcl_registerAttrList
//  363   
//  364   zcl_registerReadWriteCB( GREEN_POWER_INTERNAL_ENDPOINT, zclGpp_ReadWriteAttrCB, NULL );
        ; Setup parameters for call to function zcl_registerReadWriteCB
        MOV       R4,#0x0
        MOV       R5,#0x0
        MOV       R2,#`??zclGpp_ReadWriteAttrCB::?relay` & 0xff
        MOV       R3,#(`??zclGpp_ReadWriteAttrCB::?relay` >> 8) & 0xff
        MOV       R1,#-0xe
        LCALL     `??zcl_registerReadWriteCB::?relay`; Banked call to: zcl_registerReadWriteCB
//  365   
//  366   gp_ProxyTblInit( FALSE );
        ; Setup parameters for call to function gp_ProxyTblInit
        MOV       R1,#0x0
        LCALL     `??gp_ProxyTblInit::?relay`; Banked call to: gp_ProxyTblInit
//  367 
//  368 }
        SJMP      ??Subroutine35_0
          CFI EndBlock cfiBlock0
//  369 
//  370 /*********************************************************************
//  371  * @fn      gp_stopCommissioningMode
//  372  *
//  373  * @brief   Stops the commissioning mode
//  374  *
//  375  * @param   none
//  376  *
//  377  * @return  none
//  378  */

        RSEG BANKED_CODE:HUGECODE:NOROOT(0)
//  379 void gp_stopCommissioningMode(void)
gp_stopCommissioningMode:
          CFI Block cfiBlock1 Using cfiCommon0
          CFI Function gp_stopCommissioningMode
        CODE
//  380 {
        FUNCALL gp_stopCommissioningMode, osal_stop_timerEx
        LOCFRAME ISTACK, 2, STACK
        LOCFRAME PSTACK, 0, STACK
        LOCFRAME XSTACK, 0, STACK
        LOCFRAME IOVERLAY, 0, STATIC
        LOCFRAME DOVERLAY, 0, STATIC
        ARGFRAME ISTACK, 2, STACK
        ARGFRAME PSTACK, 0, STACK
        ARGFRAME XSTACK, 0, STACK
        ARGFRAME IOVERLAY, 0, STATIC
        ARGFRAME DOVERLAY, 0, STATIC
        FUNCALL gp_stopCommissioningMode, gp_FreeGpTxQueue
        LOCFRAME ISTACK, 2, STACK
        LOCFRAME PSTACK, 0, STACK
        LOCFRAME XSTACK, 0, STACK
        LOCFRAME IOVERLAY, 0, STATIC
        LOCFRAME DOVERLAY, 0, STATIC
        ARGFRAME ISTACK, 2, STACK
        ARGFRAME PSTACK, 0, STACK
        ARGFRAME XSTACK, 0, STACK
        ARGFRAME IOVERLAY, 0, STATIC
        ARGFRAME DOVERLAY, 0, STATIC
        PUSH      DPL
          CFI DPL0 Frame(CFA_SP, 4)
          CFI CFA_SP SP+-4
        PUSH      DPH
          CFI DPH0 Frame(CFA_SP, 5)
          CFI CFA_SP SP+-5
        ; Saved register size: 2
        ; Auto size: 0
//  381   //Callback to notify about the end of the commissioning mode
//  382   gp_commissioningOptions = 0;
        MOV       DPTR,#gp_commissioningOptions
        CLR       A
        MOVX      @DPTR,A
//  383   zgGP_InCommissioningMode = FALSE;
        MOV       DPTR,#zgGP_InCommissioningMode
        MOVX      @DPTR,A
//  384   gp_commissionerAddress = 0xFFFF;
        MOV       DPTR,#gp_commissionerAddress
        MOV       A,#-0x1
        MOVX      @DPTR,A
        INC       DPTR
        MOVX      @DPTR,A
//  385   osal_stop_timerEx(gp_TaskID,GP_COMMISSIONING_WINDOW_TIMEOUT);
        ; Setup parameters for call to function osal_stop_timerEx
        MOV       R2,#0x4
        MOV       R3,#0x0
        MOV       DPTR,#gp_TaskID
        MOVX      A,@DPTR
        MOV       R1,A
        LCALL     `??osal_stop_timerEx::?relay`; Banked call to: osal_stop_timerEx
//  386   
//  387   //Release the gpTxQueue, proxy does not support bidirectional communication on operational mode
//  388   //A.3.2.8
//  389   gp_FreeGpTxQueue();
        ; Setup parameters for call to function gp_FreeGpTxQueue
        LCALL     `??gp_FreeGpTxQueue::?relay`; Banked call to: gp_FreeGpTxQueue
//  390   
//  391   //Notify the user that we have exited the commissioning mode
//  392   if(pfnCommissioningMode)
        LCALL     ?Subroutine12 & 0xFFFF
??CrossCallReturnLabel_48:
        JZ        ??gp_stopCommissioningMode_0
//  393   {
//  394     pfnCommissioningMode(FALSE);
        ; Setup parameters for indirect call
        MOV       R1,#0x0
        LCALL     ??Subroutine46_0 & 0xFFFF
//  395   }
??CrossCallReturnLabel_111:
        LCALL     ?CALL_IND
//  396 }
??gp_stopCommissioningMode_0:
        SJMP      ??Subroutine35_0
          CFI EndBlock cfiBlock1

        RSEG BANKED_CODE:HUGECODE:NOROOT(0)
?Subroutine12:
          CFI Block cfiCond2 Using cfiCommon0
          CFI Function gp_stopCommissioningMode
          CFI Conditional ??CrossCallReturnLabel_48
          CFI DPL0 Frame(CFA_SP, 4)
          CFI DPH0 Frame(CFA_SP, 5)
          CFI CFA_SP SP+-7
          CFI Block cfiCond3 Using cfiCommon0
          CFI (cfiCond3) Function zclGp_GpProxyCommissioningModeCB
          CFI (cfiCond3) Conditional ??CrossCallReturnLabel_49
          CFI (cfiCond3) R6 load(1, XDATA, add(CFA_XSP16, literal(-10)))
          CFI (cfiCond3) VB load(1, XDATA, add(CFA_XSP16, literal(-9)))
          CFI (cfiCond3) V0 load(1, XDATA, add(CFA_XSP16, literal(-8)))
          CFI (cfiCond3) V1 load(1, XDATA, add(CFA_XSP16, literal(-7)))
          CFI (cfiCond3) R7 load(1, XDATA, add(CFA_XSP16, literal(-6)))
          CFI (cfiCond3) ?RET_LOW load(1, XDATA, add(CFA_XSP16, literal(-5)))
          CFI (cfiCond3) ?RET_HIGH load(1, XDATA, add(CFA_XSP16, literal(-4)))
          CFI (cfiCond3) ?BRET_EXT load(1, XDATA, add(CFA_XSP16, literal(-3)))
          CFI (cfiCond3) DPL0 load(1, XDATA, add(CFA_XSP16, literal(-2)))
          CFI (cfiCond3) DPH0 load(1, XDATA, add(CFA_XSP16, literal(-1)))
          CFI (cfiCond3) CFA_SP SP+-2
          CFI (cfiCond3) CFA_XSP16 add(XSP16, 10)
          CFI Block cfiPicker4 Using cfiCommon1
          CFI (cfiPicker4) NoFunction
          CFI (cfiPicker4) Picker
        MOV       DPTR,#pfnCommissioningMode
          CFI EndBlock cfiCond2
          CFI EndBlock cfiCond3
          CFI EndBlock cfiPicker4
        REQUIRE ??Subroutine34_0
        ; // Fall through to label ??Subroutine34_0

        RSEG BANKED_CODE:HUGECODE:NOROOT(0)
??Subroutine34_0:
          CFI Block cfiCond5 Using cfiCommon0
          CFI Function GP_DataInd
          CFI Conditional ??CrossCallReturnLabel_46
          CFI R6 load(1, XDATA, add(CFA_XSP16, literal(-16)))
          CFI VB load(1, XDATA, add(CFA_XSP16, literal(-15)))
          CFI V0 load(1, XDATA, add(CFA_XSP16, literal(-14)))
          CFI V1 load(1, XDATA, add(CFA_XSP16, literal(-13)))
          CFI V2 load(1, XDATA, add(CFA_XSP16, literal(-12)))
          CFI V3 load(1, XDATA, add(CFA_XSP16, literal(-11)))
          CFI V4 load(1, XDATA, add(CFA_XSP16, literal(-10)))
          CFI V5 load(1, XDATA, add(CFA_XSP16, literal(-9)))
          CFI V6 load(1, XDATA, add(CFA_XSP16, literal(-8)))
          CFI V7 load(1, XDATA, add(CFA_XSP16, literal(-7)))
          CFI R7 load(1, XDATA, add(CFA_XSP16, literal(-6)))
          CFI ?RET_LOW load(1, XDATA, add(CFA_XSP16, literal(-5)))
          CFI ?RET_HIGH load(1, XDATA, add(CFA_XSP16, literal(-4)))
          CFI ?BRET_EXT load(1, XDATA, add(CFA_XSP16, literal(-3)))
          CFI DPL0 load(1, XDATA, add(CFA_XSP16, literal(-2)))
          CFI DPH0 load(1, XDATA, add(CFA_XSP16, literal(-1)))
          CFI CFA_SP SP+-2
          CFI CFA_XSP16 add(XSP16, 148)
          CFI Block cfiCond6 Using cfiCommon0
          CFI (cfiCond6) Function GP_DataInd
          CFI (cfiCond6) Conditional ??CrossCallReturnLabel_47
          CFI (cfiCond6) R6 load(1, XDATA, add(CFA_XSP16, literal(-16)))
          CFI (cfiCond6) VB load(1, XDATA, add(CFA_XSP16, literal(-15)))
          CFI (cfiCond6) V0 load(1, XDATA, add(CFA_XSP16, literal(-14)))
          CFI (cfiCond6) V1 load(1, XDATA, add(CFA_XSP16, literal(-13)))
          CFI (cfiCond6) V2 load(1, XDATA, add(CFA_XSP16, literal(-12)))
          CFI (cfiCond6) V3 load(1, XDATA, add(CFA_XSP16, literal(-11)))
          CFI (cfiCond6) V4 load(1, XDATA, add(CFA_XSP16, literal(-10)))
          CFI (cfiCond6) V5 load(1, XDATA, add(CFA_XSP16, literal(-9)))
          CFI (cfiCond6) V6 load(1, XDATA, add(CFA_XSP16, literal(-8)))
          CFI (cfiCond6) V7 load(1, XDATA, add(CFA_XSP16, literal(-7)))
          CFI (cfiCond6) R7 load(1, XDATA, add(CFA_XSP16, literal(-6)))
          CFI (cfiCond6) ?RET_LOW load(1, XDATA, add(CFA_XSP16, literal(-5)))
          CFI (cfiCond6) ?RET_HIGH load(1, XDATA, add(CFA_XSP16, literal(-4)))
          CFI (cfiCond6) ?BRET_EXT load(1, XDATA, add(CFA_XSP16, literal(-3)))
          CFI (cfiCond6) DPL0 load(1, XDATA, add(CFA_XSP16, literal(-2)))
          CFI (cfiCond6) DPH0 load(1, XDATA, add(CFA_XSP16, literal(-1)))
          CFI (cfiCond6) CFA_SP SP+-2
          CFI (cfiCond6) CFA_XSP16 add(XSP16, 148)
          CFI Block cfiCond7 Using cfiCommon0
          CFI (cfiCond7) Function gp_stopCommissioningMode
          CFI (cfiCond7) Conditional ??CrossCallReturnLabel_48
          CFI (cfiCond7) DPL0 Frame(CFA_SP, 4)
          CFI (cfiCond7) DPH0 Frame(CFA_SP, 5)
          CFI (cfiCond7) CFA_SP SP+-7
          CFI Block cfiCond8 Using cfiCommon0
          CFI (cfiCond8) Function zclGp_GpProxyCommissioningModeCB
          CFI (cfiCond8) Conditional ??CrossCallReturnLabel_49
          CFI (cfiCond8) R6 load(1, XDATA, add(CFA_XSP16, literal(-10)))
          CFI (cfiCond8) VB load(1, XDATA, add(CFA_XSP16, literal(-9)))
          CFI (cfiCond8) V0 load(1, XDATA, add(CFA_XSP16, literal(-8)))
          CFI (cfiCond8) V1 load(1, XDATA, add(CFA_XSP16, literal(-7)))
          CFI (cfiCond8) R7 load(1, XDATA, add(CFA_XSP16, literal(-6)))
          CFI (cfiCond8) ?RET_LOW load(1, XDATA, add(CFA_XSP16, literal(-5)))
          CFI (cfiCond8) ?RET_HIGH load(1, XDATA, add(CFA_XSP16, literal(-4)))
          CFI (cfiCond8) ?BRET_EXT load(1, XDATA, add(CFA_XSP16, literal(-3)))
          CFI (cfiCond8) DPL0 load(1, XDATA, add(CFA_XSP16, literal(-2)))
          CFI (cfiCond8) DPH0 load(1, XDATA, add(CFA_XSP16, literal(-1)))
          CFI (cfiCond8) CFA_SP SP+-2
          CFI (cfiCond8) CFA_XSP16 add(XSP16, 10)
          CFI Block cfiPicker9 Using cfiCommon1
          CFI (cfiPicker9) NoFunction
          CFI (cfiPicker9) Picker
        MOVX      A,@DPTR
        MOV       R0,A
        INC       DPTR
        MOVX      A,@DPTR
        MOV       R1,A
        MOV       A,R0
        ORL       A,R1
        RET
          CFI EndBlock cfiCond5
          CFI EndBlock cfiCond6
          CFI EndBlock cfiCond7
          CFI EndBlock cfiCond8
          CFI EndBlock cfiPicker9

        RSEG BANKED_CODE:HUGECODE:NOROOT(0)
?Subroutine0:
          CFI Block cfiBlock10 Using cfiCommon0
          CFI NoFunction
          CFI CFA_SP SP+-5
          CFI CFA_XSP16 add(XSP16, 53)
          CFI DPL0 Frame(CFA_SP, 4)
          CFI DPH0 Frame(CFA_SP, 5)
          CFI Invalid
        LCALL     ?DEALLOC_XSTACK8
          CFI EndBlock cfiBlock10
        REQUIRE ??Subroutine35_0
        ; // Fall through to label ??Subroutine35_0

        RSEG BANKED_CODE:HUGECODE:NOROOT(0)
??Subroutine35_0:
          CFI Block cfiBlock11 Using cfiCommon0
          CFI NoFunction
          CFI CFA_SP SP+-5
          CFI DPL0 Frame(CFA_SP, 4)
          CFI DPH0 Frame(CFA_SP, 5)
        POP       DPH
          CFI CFA_SP SP+-4
          CFI DPH0 SameValue
        POP       DPL
          CFI CFA_SP SP+-3
          CFI DPL0 SameValue
        LJMP      ?BRET
          CFI EndBlock cfiBlock11
//  397 
//  398 /*********************************************************************
//  399  * @fn      zclGp_ManteinanceIndParse
//  400  *
//  401  * @brief   Parse the Gp Manteinance indication to Gp Notification command
//  402  *
//  403  * @param   pInd - Pointer to the incoming data
//  404  *
//  405  * @return  ZStatus_t
//  406  */

        RSEG BANKED_CODE:HUGECODE:NOROOT(0)
//  407 ZStatus_t zclGp_ManteinanceIndParse( gp_DataInd_t *pInd, gpCommissioningNotificationCmd_t *pGpNotification )
zclGp_ManteinanceIndParse:
          CFI Block cfiBlock12 Using cfiCommon0
          CFI Function zclGp_ManteinanceIndParse
        CODE
//  408 {
        FUNCALL zclGp_ManteinanceIndParse, gp_ResetProxyBasicTblEntry
        LOCFRAME ISTACK, 0, STACK
        LOCFRAME PSTACK, 0, STACK
        LOCFRAME XSTACK, 82, STACK
        LOCFRAME IOVERLAY, 0, STATIC
        LOCFRAME DOVERLAY, 0, STATIC
        ARGFRAME ISTACK, 0, STACK
        ARGFRAME PSTACK, 0, STACK
        ARGFRAME XSTACK, 82, STACK
        ARGFRAME IOVERLAY, 0, STATIC
        ARGFRAME DOVERLAY, 0, STATIC
        FUNCALL zclGp_ManteinanceIndParse, osal_memcpy
        LOCFRAME ISTACK, 0, STACK
        LOCFRAME PSTACK, 0, STACK
        LOCFRAME XSTACK, 85, STACK
        LOCFRAME IOVERLAY, 0, STATIC
        LOCFRAME DOVERLAY, 0, STATIC
        ARGFRAME ISTACK, 0, STACK
        ARGFRAME PSTACK, 0, STACK
        ARGFRAME XSTACK, 85, STACK
        ARGFRAME IOVERLAY, 0, STATIC
        ARGFRAME DOVERLAY, 0, STATIC
        REQUIRE ?V0
        REQUIRE ?V1
        REQUIRE ?V2
        REQUIRE ?V3
        REQUIRE ?V4
        REQUIRE ?V5
        REQUIRE ?V6
        MOV       A,#-0xf
        LCALL     ?BANKED_ENTER_XDATA
          CFI DPH0 load(1, XDATA, add(CFA_XSP16, literal(-1)))
          CFI DPL0 load(1, XDATA, add(CFA_XSP16, literal(-2)))
          CFI ?BRET_EXT load(1, XDATA, add(CFA_XSP16, literal(-3)))
          CFI ?RET_HIGH load(1, XDATA, add(CFA_XSP16, literal(-4)))
          CFI ?RET_LOW load(1, XDATA, add(CFA_XSP16, literal(-5)))
          CFI R7 load(1, XDATA, add(CFA_XSP16, literal(-6)))
          CFI V6 load(1, XDATA, add(CFA_XSP16, literal(-7)))
          CFI V5 load(1, XDATA, add(CFA_XSP16, literal(-8)))
          CFI V4 load(1, XDATA, add(CFA_XSP16, literal(-9)))
          CFI V3 load(1, XDATA, add(CFA_XSP16, literal(-10)))
          CFI V2 load(1, XDATA, add(CFA_XSP16, literal(-11)))
          CFI V1 load(1, XDATA, add(CFA_XSP16, literal(-12)))
          CFI V0 load(1, XDATA, add(CFA_XSP16, literal(-13)))
          CFI VB load(1, XDATA, add(CFA_XSP16, literal(-14)))
          CFI R6 load(1, XDATA, add(CFA_XSP16, literal(-15)))
          CFI CFA_SP SP+0
          CFI CFA_XSP16 add(XSP16, 15)
        ; Saved register size: 15
        ; Auto size: 67
        MOV       A,#-0x43
        LCALL     ?ALLOC_XSTACK8
          CFI CFA_XSP16 add(XSP16, 82)
        MOV       A,R2
        MOV       R6,A
        MOV       A,R3
        MOV       R7,A
        MOV       ?V0,R4
        MOV       ?V1,R5
//  409   uint8 currEntry[PROXY_TBL_ENTRY_LEN];
//  410   uint8  ntfOpt[2] = {0x00, 0x00};
        MOV       DPTR,#`?<Constant {0, 0}>`
        MOV       R4,?XSP + 0
        MOV       R5,?XSP + 1
        MOV       A,#0x2
        LCALL     ?MOVE_LONG8_XDATA_XDATA
//  411   int8 RSSI;
//  412   uint8 LQI;
//  413   
//  414   gp_ResetProxyBasicTblEntry(currEntry);
        ; Setup parameters for call to function gp_ResetProxyBasicTblEntry
        MOV       A,#0x2
        LCALL     ?XSTACK_DISP101_8
        LCALL     `??gp_ResetProxyBasicTblEntry::?relay`; Banked call to: gp_ResetProxyBasicTblEntry
//  415   
//  416   
//  417   if ( pInd->GPDCmmdID != GP_CHANNEL_REQ_COMMAND_ID )
        MOV       A,R6
        ADD       A,#0x2a
        MOV       ?V2,A
        CLR       A
        ADDC      A,R7
        MOV       ?V3,A
        MOV       DPL,?V2
        MOV       DPH,A
        MOVX      A,@DPTR
        XRL       A,#0xe3
        JZ        ??zclGp_ManteinanceIndParse_0
//  418   {
//  419     if ( PROXY_TBL_COMP_APPLICTION_ID( pInd->appID, GP_OPT_APP_ID_GPD ) )
        LCALL     ?Subroutine24 & 0xFFFF
??CrossCallReturnLabel_109:
        ANL       A,#0x7
        MOV       R0,A
        JNZ       ??zclGp_ManteinanceIndParse_1
//  420     {
//  421       pGpNotification->gpdId = pInd->SrcId;
        LCALL     ?Subroutine25 & 0xFFFF
??CrossCallReturnLabel_27:
        LCALL     ?XLOAD_R0123
        MOV       DPL,?V0
        MOV       DPH,?V1
        INC       DPTR
        INC       DPTR
        LCALL     ?XSTORE_R0123
//  422       ntfOpt[0] = GP_OPT_APP_ID_GPD;
        MOV       DPL,?XSP + 0
        MOV       DPH,?XSP + 1
        CLR       A
        SJMP      ??zclGp_ManteinanceIndParse_2
//  423     }
//  424     else if ( PROXY_TBL_COMP_APPLICTION_ID( pInd->appID, GP_OPT_APP_ID_IEEE ) )
??zclGp_ManteinanceIndParse_1:
        MOV       A,#0x2
        XRL       A,R0
        JNZ       ??zclGp_ManteinanceIndParse_0
//  425     {
//  426       osal_memcpy( pGpNotification->gpdIEEE, &(pInd->srcAddr.addr.extAddr), Z_EXTADDR_LEN );
        ; Setup parameters for call to function osal_memcpy
        LCALL     ?Subroutine26 & 0xFFFF
??CrossCallReturnLabel_30:
        LCALL     ?PUSH_XSTACK_I_THREE
          CFI CFA_XSP16 add(XSP16, 85)
        MOV       R4,#0x8
        MOV       R5,#0x0
        MOV       A,?V0
        ADD       A,#0x6
        MOV       R2,A
        CLR       A
        ADDC      A,?V1
        MOV       R3,A
        LCALL     `??osal_memcpy::?relay`; Banked call to: osal_memcpy
        MOV       A,#0x3
        LCALL     ?DEALLOC_XSTACK8
          CFI CFA_XSP16 add(XSP16, 82)
//  427       pGpNotification->ep = pInd->EndPoint;
        MOV       A,R6
        ADD       A,#0x25
        LCALL     ??Subroutine45_0 & 0xFFFF
??CrossCallReturnLabel_100:
        PUSH      A
          CFI CFA_SP SP+-1
        LCALL     ?Subroutine28 & 0xFFFF
??CrossCallReturnLabel_75:
        POP       A
          CFI CFA_SP SP+0
        MOVX      @DPTR,A
//  428       ntfOpt[0] = GP_OPT_APP_ID_IEEE;
        MOV       DPL,?XSP + 0
        MOV       DPH,?XSP + 1
        MOV       A,#0x2
??zclGp_ManteinanceIndParse_2:
        MOVX      @DPTR,A
//  429     }
//  430   }
//  431   
//  432   // Set the options bit field
//  433   ( pInd->RxAfterTx == TRUE ) ?PROXY_TBL_SET_RX_AFTER_TX( ( uint8* )&ntfOpt[0] ) : PROXY_TBL_CLR_RX_AFTER_TX( ( uint8* )&ntfOpt[0] );
??zclGp_ManteinanceIndParse_0:
        MOV       A,R6
        ADD       A,#0x20
        LCALL     ??Subroutine45_0 & 0xFFFF
??CrossCallReturnLabel_101:
        XRL       A,#0x1
        MOV       DPL,?XSP + 0
        MOV       DPH,?XSP + 1
        JNZ       ??zclGp_ManteinanceIndParse_3
        MOVX      A,@DPTR
        SETB      0xE0 /* A   */.3
        SJMP      ??zclGp_ManteinanceIndParse_4
??zclGp_ManteinanceIndParse_3:
        MOVX      A,@DPTR
        CLR       0xE0 /* A   */.3
??zclGp_ManteinanceIndParse_4:
        MOVX      @DPTR,A
//  434   GP_CNTF_SET_SEC_LEVEL( ( uint8* )&ntfOpt[0], currEntry[PROXY_TBL_ENTRY_SEC_OPT] );
        MOV       A,#0xf
        LCALL     ?XSTACK_DISP0_8
        MOVX      A,@DPTR
        MOV       R0,A
        SWAP      A
        ANL       A,#0xf0
        ANL       A,#0x30
        MOV       R1,A
        MOV       DPL,?XSP + 0
        MOV       DPH,?XSP + 1
        MOVX      A,@DPTR
        ANL       A,#0xcf
        ORL       A,R1
        MOVX      @DPTR,A
//  435   GP_CNTF_SET_SEC_KEY_TYPE( ( uint16* )ntfOpt, currEntry[PROXY_TBL_ENTRY_SEC_OPT] );
        ANL       A,#0x3f
        MOV       R2,A
        INC       DPTR
        MOVX      A,@DPTR
        ANL       A,#0xfe
        MOV       R3,A
        MOV       A,R0
        RRC       A
        RRC       A
        ANL       A,#0x3f
        MOV       ?V4,A
        MOV       ?V5,#0x0
        MOV       A,#0x6
        MOV       R0,#?V4
        LCALL     ?S_SHL
        MOV       R0,?V4
        MOV       A,?V5
        ANL       A,#0x1
        MOV       R1,A
        MOV       A,R2
        ORL       A,R0
        MOV       R0,A
        MOV       A,R3
        ORL       A,R1
        MOV       R1,A
        MOV       DPL,?XSP + 0
        MOV       DPH,?XSP + 1
        LCALL     ??Subroutine44_0 & 0xFFFF
//  436   if( pInd->status == GP_DATA_IND_STATUS_AUTH_FAILURE )
??CrossCallReturnLabel_90:
        MOV       A,?V0
        ADD       A,#0x1a
        MOV       R0,A
        CLR       A
        ADDC      A,?V1
        MOV       R1,A
        MOV       A,R0
        MOV       R4,A
        MOV       A,R1
        MOV       R5,A
        MOV       A,R6
        ADD       A,#0xd
        LCALL     ??Subroutine45_0 & 0xFFFF
??CrossCallReturnLabel_102:
        XRL       A,#0x3
        JNZ       ??zclGp_ManteinanceIndParse_5
//  437   {
//  438     GP_CNTF_SET_SEC_FAIL( ( uint8* )&ntfOpt[1] );
        MOV       A,#0x1
        LCALL     ?XSTACK_DISP0_8
        MOVX      A,@DPTR
        SETB      0xE0 /* A   */.1
        MOVX      @DPTR,A
//  439     pGpNotification->mic = pInd->MIC;
        MOV       A,R6
        ADD       A,#0x2b
        MOV       DPL,A
        CLR       A
        ADDC      A,R7
        MOV       DPH,A
        LCALL     ?XLOAD_R0123
        MOV       DPL,R4
        MOV       DPH,R5
        LCALL     ?XSTORE_R0123
        SJMP      ??CrossCallReturnLabel_52
//  440   }
//  441   else
//  442   {
//  443     GP_CNTF_CLR_SEC_FAIL( ( uint8* )&ntfOpt[1] );
??zclGp_ManteinanceIndParse_5:
        MOV       A,#0x1
        LCALL     ?XSTACK_DISP0_8
        MOVX      A,@DPTR
        CLR       0xE0 /* A   */.1
        MOVX      @DPTR,A
//  444     pGpNotification->mic = 0xFFFFFFFF;
        MOV       DPL,R4
        MOV       DPH,R5
        LCALL     ?Subroutine6 & 0xFFFF
//  445   }
//  446   GP_CNTF_SET_BIDIRECTIONAL_CAP( ( uint8* )&ntfOpt[1] );
//  447 
//  448   GP_CNTF_SET_PROXY_INFO( ( uint8* )&ntfOpt[1] );
??CrossCallReturnLabel_52:
        MOV       A,#0x1
        LCALL     ?XSTACK_DISP0_8
        MOVX      A,@DPTR
        ORL       A,#0xc
        LCALL     ?Subroutine9 & 0xFFFF
//  449   
//  450   pGpNotification->options |= ( ( ntfOpt[0] ) & 0x00FF );
//  451   pGpNotification->options |= ( ( ( ntfOpt[1] ) <<  8 ) & 0xFF00 );
??CrossCallReturnLabel_4:
        MOV       R2,A
        MOV       A,#0x1
        LCALL     ?XSTACK_DISP0_8
        MOVX      A,@DPTR
        MOV       R1,A
        MOV       A,R2
        MOV       R0,A
        MOV       DPL,?V0
        MOV       DPH,?V1
        MOVX      A,@DPTR
        ORL       A,R0
        MOVX      @DPTR,A
        INC       DPTR
        MOVX      A,@DPTR
        ORL       A,R1
        MOVX      @DPTR,A
//  452   
//  453   pGpNotification->gpdSecCounter = pInd->GPDSecFrameCounter;
        MOV       A,R6
        LCALL     ?Subroutine31 & 0xFFFF
??CrossCallReturnLabel_40:
        ADDC      A,R7
        MOV       DPH,A
        LCALL     ?XLOAD_R0123
        MOV       A,?V0
        ADD       A,#0xf
        LCALL     ??Subroutine40_0 & 0xFFFF
??CrossCallReturnLabel_66:
        LCALL     ?XSTORE_R0123
//  454   pGpNotification->cmdId = pInd->GPDCmmdID;
        MOV       DPL,?V2
        MOV       DPH,?V3
        MOVX      A,@DPTR
        PUSH      A
          CFI CFA_SP SP+-1
        MOV       A,?V0
        ADD       A,#0x13
        LCALL     ??Subroutine40_0 & 0xFFFF
??CrossCallReturnLabel_67:
        POP       A
          CFI CFA_SP SP+0
        MOVX      @DPTR,A
//  455 
//  456   if ( pInd->GPDasduLength > 0 )
        MOV       A,R6
        ADD       A,#0x2f
        LCALL     ??Subroutine45_0 & 0xFFFF
??CrossCallReturnLabel_103:
        JZ        ??CrossCallReturnLabel_98
//  457   {
//  458     pGpNotification->payloadLen = pInd->GPDasduLength;
        PUSH      A
          CFI CFA_SP SP+-1
        MOV       A,?V0
        ADD       A,#0x14
        LCALL     ??Subroutine40_0 & 0xFFFF
??CrossCallReturnLabel_68:
        POP       A
          CFI CFA_SP SP+0
        MOVX      @DPTR,A
//  459     pGpNotification->cmdPayload = pInd->GPDasdu;
        MOV       A,R6
        ADD       A,#0x30
        MOV       R0,A
        CLR       A
        ADDC      A,R7
        MOV       R1,A
        MOV       A,?V0
        ADD       A,#0x15
        LCALL     ?Subroutine8 & 0xFFFF
//  460   }
//  461   
//  462   pGpNotification->gppShortAddr = _NIB.nwkDevAddress;
??CrossCallReturnLabel_98:
        LCALL     ?Subroutine20 & 0xFFFF
??CrossCallReturnLabel_57:
        MOV       A,?V0
        ADD       A,#0x17
        LCALL     ?Subroutine8 & 0xFFFF
//  463   
//  464   RSSI = pInd->Rssi;
??CrossCallReturnLabel_99:
        MOV       A,R6
        ADD       A,#0xe
        MOV       DPL,A
        CLR       A
        ADDC      A,R7
        LCALL     ?Subroutine18 & 0xFFFF
//  465   ( RSSI > 8 ) ?RSSI = 8 : ( RSSI < -109 ) ?RSSI = -109 : NULL;
??CrossCallReturnLabel_16:
        JC        ??zclGp_ManteinanceIndParse_6
        MOV       R0,#0x3b
        SJMP      ??zclGp_ManteinanceIndParse_7
??zclGp_ManteinanceIndParse_6:
        MOV       A,R0
        CLR       C
        SUBB      A,#-0x6d
        MOV       C,0xD0 /* PSW */.2
        XRL       A,PSW
        RLC       A
        JNC       ??zclGp_ManteinanceIndParse_8
        MOV       R0,#0x0
        SJMP      ??zclGp_ManteinanceIndParse_7
??zclGp_ManteinanceIndParse_8:
        MOV       A,#0x6e
        ADD       A,R0
        MOV       B,#0x2
        LCALL     ?SC_DIV_MOD
        MOV       R0,A
//  466   RSSI += 110;
//  467   RSSI /= 2;
//  468   
//  469   ( pInd->LinkQuality == 0 ) ?LQI = 0 : ( pInd->LinkQuality > 0 ) ?LQI = 2 : NULL;
??zclGp_ManteinanceIndParse_7:
        MOV       A,R6
        ADD       A,#0xf
        LCALL     ??Subroutine45_0 & 0xFFFF
??CrossCallReturnLabel_104:
        JNZ       ??zclGp_ManteinanceIndParse_9
        MOV       R1,#0x0
        SJMP      ??zclGp_ManteinanceIndParse_10
??zclGp_ManteinanceIndParse_9:
        MOV       R1,#0x2
//  470   
//  471   pGpNotification->gppGpdLink = RSSI;
//  472   pGpNotification->gppGpdLink |= ( LQI << 6 );
??zclGp_ManteinanceIndParse_10:
        MOV       A,R1
        SWAP      A
        RLC       A
        RLC       A
        ANL       A,#0xc0
        ORL       A,R0
        PUSH      A
          CFI CFA_SP SP+-1
        MOV       A,?V0
        ADD       A,#0x19
        LCALL     ??Subroutine40_0 & 0xFFFF
??CrossCallReturnLabel_69:
        POP       A
          CFI CFA_SP SP+0
        MOVX      @DPTR,A
//  473     
//  474   return SUCCESS;
        MOV       R1,#0x0
        MOV       A,#0x43
          CFI EndBlock cfiBlock12
        REQUIRE ?Subroutine1
        ; // Fall through to label ?Subroutine1
//  475 }

        RSEG BANKED_CODE:HUGECODE:NOROOT(0)
?Subroutine1:
          CFI Block cfiBlock13 Using cfiCommon0
          CFI NoFunction
          CFI CFA_SP SP+0
          CFI CFA_XSP16 add(XSP16, 82)
          CFI VB load(1, XDATA, add(CFA_XSP16, literal(-14)))
          CFI DPL0 load(1, XDATA, add(CFA_XSP16, literal(-2)))
          CFI DPH0 load(1, XDATA, add(CFA_XSP16, literal(-1)))
          CFI R6 load(1, XDATA, add(CFA_XSP16, literal(-15)))
          CFI R7 load(1, XDATA, add(CFA_XSP16, literal(-6)))
          CFI V0 load(1, XDATA, add(CFA_XSP16, literal(-13)))
          CFI V1 load(1, XDATA, add(CFA_XSP16, literal(-12)))
          CFI V2 load(1, XDATA, add(CFA_XSP16, literal(-11)))
          CFI V3 load(1, XDATA, add(CFA_XSP16, literal(-10)))
          CFI V4 load(1, XDATA, add(CFA_XSP16, literal(-9)))
          CFI V5 load(1, XDATA, add(CFA_XSP16, literal(-8)))
          CFI V6 load(1, XDATA, add(CFA_XSP16, literal(-7)))
          CFI ?BRET_EXT load(1, XDATA, add(CFA_XSP16, literal(-3)))
          CFI ?RET_HIGH load(1, XDATA, add(CFA_XSP16, literal(-4)))
          CFI ?RET_LOW load(1, XDATA, add(CFA_XSP16, literal(-5)))
          CFI Invalid
        LCALL     ?DEALLOC_XSTACK8
          CFI CFA_XSP16 add(XSP16, 15)
          CFI Valid
        MOV       R7,#0x7
        LJMP      ?BANKED_LEAVE_XDATA
          CFI EndBlock cfiBlock13

        RSEG BANKED_CODE:HUGECODE:NOROOT(0)
?Subroutine6:
          CFI Block cfiCond14 Using cfiCommon0
          CFI Function zclGp_ManteinanceIndParse
          CFI Conditional ??CrossCallReturnLabel_52
          CFI R6 load(1, XDATA, add(CFA_XSP16, literal(-15)))
          CFI VB load(1, XDATA, add(CFA_XSP16, literal(-14)))
          CFI V0 load(1, XDATA, add(CFA_XSP16, literal(-13)))
          CFI V1 load(1, XDATA, add(CFA_XSP16, literal(-12)))
          CFI V2 load(1, XDATA, add(CFA_XSP16, literal(-11)))
          CFI V3 load(1, XDATA, add(CFA_XSP16, literal(-10)))
          CFI V4 load(1, XDATA, add(CFA_XSP16, literal(-9)))
          CFI V5 load(1, XDATA, add(CFA_XSP16, literal(-8)))
          CFI V6 load(1, XDATA, add(CFA_XSP16, literal(-7)))
          CFI R7 load(1, XDATA, add(CFA_XSP16, literal(-6)))
          CFI ?RET_LOW load(1, XDATA, add(CFA_XSP16, literal(-5)))
          CFI ?RET_HIGH load(1, XDATA, add(CFA_XSP16, literal(-4)))
          CFI ?BRET_EXT load(1, XDATA, add(CFA_XSP16, literal(-3)))
          CFI DPL0 load(1, XDATA, add(CFA_XSP16, literal(-2)))
          CFI DPH0 load(1, XDATA, add(CFA_XSP16, literal(-1)))
          CFI CFA_SP SP+-2
          CFI CFA_XSP16 add(XSP16, 82)
          CFI Block cfiCond15 Using cfiCommon0
          CFI (cfiCond15) Function gp_ZclPairingParse
          CFI (cfiCond15) Conditional ??CrossCallReturnLabel_53
          CFI (cfiCond15) R6 load(1, XDATA, add(CFA_XSP16, literal(-20)))
          CFI (cfiCond15) VB load(1, XDATA, add(CFA_XSP16, literal(-19)))
          CFI (cfiCond15) V0 load(1, XDATA, add(CFA_XSP16, literal(-18)))
          CFI (cfiCond15) V1 load(1, XDATA, add(CFA_XSP16, literal(-17)))
          CFI (cfiCond15) V2 load(1, XDATA, add(CFA_XSP16, literal(-16)))
          CFI (cfiCond15) V3 load(1, XDATA, add(CFA_XSP16, literal(-15)))
          CFI (cfiCond15) V4 load(1, XDATA, add(CFA_XSP16, literal(-14)))
          CFI (cfiCond15) V5 load(1, XDATA, add(CFA_XSP16, literal(-13)))
          CFI (cfiCond15) V6 load(1, XDATA, add(CFA_XSP16, literal(-12)))
          CFI (cfiCond15) V7 load(1, XDATA, add(CFA_XSP16, literal(-11)))
          CFI (cfiCond15) V8 load(1, XDATA, add(CFA_XSP16, literal(-10)))
          CFI (cfiCond15) V9 load(1, XDATA, add(CFA_XSP16, literal(-9)))
          CFI (cfiCond15) V10 load(1, XDATA, add(CFA_XSP16, literal(-8)))
          CFI (cfiCond15) V11 load(1, XDATA, add(CFA_XSP16, literal(-7)))
          CFI (cfiCond15) R7 load(1, XDATA, add(CFA_XSP16, literal(-6)))
          CFI (cfiCond15) ?RET_LOW load(1, XDATA, add(CFA_XSP16, literal(-5)))
          CFI (cfiCond15) ?RET_HIGH load(1, XDATA, add(CFA_XSP16, literal(-4)))
          CFI (cfiCond15) ?BRET_EXT load(1, XDATA, add(CFA_XSP16, literal(-3)))
          CFI (cfiCond15) DPL0 load(1, XDATA, add(CFA_XSP16, literal(-2)))
          CFI (cfiCond15) DPH0 load(1, XDATA, add(CFA_XSP16, literal(-1)))
          CFI (cfiCond15) CFA_SP SP+-2
          CFI (cfiCond15) CFA_XSP16 add(XSP16, 85)
          CFI Block cfiCond16 Using cfiCommon0
          CFI (cfiCond16) Function gp_ZclProxyTableReqParse
          CFI (cfiCond16) Conditional ??CrossCallReturnLabel_54
          CFI (cfiCond16) R6 load(1, XDATA, add(CFA_XSP16, literal(-14)))
          CFI (cfiCond16) VB load(1, XDATA, add(CFA_XSP16, literal(-13)))
          CFI (cfiCond16) V0 load(1, XDATA, add(CFA_XSP16, literal(-12)))
          CFI (cfiCond16) V1 load(1, XDATA, add(CFA_XSP16, literal(-11)))
          CFI (cfiCond16) V2 load(1, XDATA, add(CFA_XSP16, literal(-10)))
          CFI (cfiCond16) V3 load(1, XDATA, add(CFA_XSP16, literal(-9)))
          CFI (cfiCond16) V4 load(1, XDATA, add(CFA_XSP16, literal(-8)))
          CFI (cfiCond16) V5 load(1, XDATA, add(CFA_XSP16, literal(-7)))
          CFI (cfiCond16) R7 load(1, XDATA, add(CFA_XSP16, literal(-6)))
          CFI (cfiCond16) ?RET_LOW load(1, XDATA, add(CFA_XSP16, literal(-5)))
          CFI (cfiCond16) ?RET_HIGH load(1, XDATA, add(CFA_XSP16, literal(-4)))
          CFI (cfiCond16) ?BRET_EXT load(1, XDATA, add(CFA_XSP16, literal(-3)))
          CFI (cfiCond16) DPL0 load(1, XDATA, add(CFA_XSP16, literal(-2)))
          CFI (cfiCond16) DPH0 load(1, XDATA, add(CFA_XSP16, literal(-1)))
          CFI (cfiCond16) CFA_SP SP+-2
          CFI (cfiCond16) CFA_XSP16 add(XSP16, 14)
          CFI Block cfiPicker17 Using cfiCommon1
          CFI (cfiPicker17) NoFunction
          CFI (cfiPicker17) Picker
        MOV       A,#-0x1
          CFI EndBlock cfiCond14
          CFI EndBlock cfiCond15
          CFI EndBlock cfiCond16
          CFI EndBlock cfiPicker17
        REQUIRE ??Subroutine36_0
        ; // Fall through to label ??Subroutine36_0

        RSEG BANKED_CODE:HUGECODE:NOROOT(0)
??Subroutine36_0:
          CFI Block cfiCond18 Using cfiCommon0
          CFI Function gp_ZclPairingParse
          CFI Conditional ??CrossCallReturnLabel_50
          CFI R6 load(1, XDATA, add(CFA_XSP16, literal(-20)))
          CFI VB load(1, XDATA, add(CFA_XSP16, literal(-19)))
          CFI V0 load(1, XDATA, add(CFA_XSP16, literal(-18)))
          CFI V1 load(1, XDATA, add(CFA_XSP16, literal(-17)))
          CFI V2 load(1, XDATA, add(CFA_XSP16, literal(-16)))
          CFI V3 load(1, XDATA, add(CFA_XSP16, literal(-15)))
          CFI V4 load(1, XDATA, add(CFA_XSP16, literal(-14)))
          CFI V5 load(1, XDATA, add(CFA_XSP16, literal(-13)))
          CFI V6 load(1, XDATA, add(CFA_XSP16, literal(-12)))
          CFI V7 load(1, XDATA, add(CFA_XSP16, literal(-11)))
          CFI V8 load(1, XDATA, add(CFA_XSP16, literal(-10)))
          CFI V9 load(1, XDATA, add(CFA_XSP16, literal(-9)))
          CFI V10 load(1, XDATA, add(CFA_XSP16, literal(-8)))
          CFI V11 load(1, XDATA, add(CFA_XSP16, literal(-7)))
          CFI R7 load(1, XDATA, add(CFA_XSP16, literal(-6)))
          CFI ?RET_LOW load(1, XDATA, add(CFA_XSP16, literal(-5)))
          CFI ?RET_HIGH load(1, XDATA, add(CFA_XSP16, literal(-4)))
          CFI ?BRET_EXT load(1, XDATA, add(CFA_XSP16, literal(-3)))
          CFI DPL0 load(1, XDATA, add(CFA_XSP16, literal(-2)))
          CFI DPH0 load(1, XDATA, add(CFA_XSP16, literal(-1)))
          CFI CFA_SP SP+-2
          CFI CFA_XSP16 add(XSP16, 85)
          CFI Block cfiCond19 Using cfiCommon0
          CFI (cfiCond19) Function gp_returnOperationalChannel
          CFI (cfiCond19) Conditional ??CrossCallReturnLabel_51
          CFI (cfiCond19) DPL0 Frame(CFA_SP, 4)
          CFI (cfiCond19) DPH0 Frame(CFA_SP, 5)
          CFI (cfiCond19) CFA_SP SP+-7
          CFI (cfiCond19) CFA_XSP16 add(XSP16, 21)
          CFI Block cfiCond20 Using cfiCommon0
          CFI (cfiCond20) Function zclGp_ManteinanceIndParse
          CFI (cfiCond20) Conditional ??CrossCallReturnLabel_52
          CFI (cfiCond20) R6 load(1, XDATA, add(CFA_XSP16, literal(-15)))
          CFI (cfiCond20) VB load(1, XDATA, add(CFA_XSP16, literal(-14)))
          CFI (cfiCond20) V0 load(1, XDATA, add(CFA_XSP16, literal(-13)))
          CFI (cfiCond20) V1 load(1, XDATA, add(CFA_XSP16, literal(-12)))
          CFI (cfiCond20) V2 load(1, XDATA, add(CFA_XSP16, literal(-11)))
          CFI (cfiCond20) V3 load(1, XDATA, add(CFA_XSP16, literal(-10)))
          CFI (cfiCond20) V4 load(1, XDATA, add(CFA_XSP16, literal(-9)))
          CFI (cfiCond20) V5 load(1, XDATA, add(CFA_XSP16, literal(-8)))
          CFI (cfiCond20) V6 load(1, XDATA, add(CFA_XSP16, literal(-7)))
          CFI (cfiCond20) R7 load(1, XDATA, add(CFA_XSP16, literal(-6)))
          CFI (cfiCond20) ?RET_LOW load(1, XDATA, add(CFA_XSP16, literal(-5)))
          CFI (cfiCond20) ?RET_HIGH load(1, XDATA, add(CFA_XSP16, literal(-4)))
          CFI (cfiCond20) ?BRET_EXT load(1, XDATA, add(CFA_XSP16, literal(-3)))
          CFI (cfiCond20) DPL0 load(1, XDATA, add(CFA_XSP16, literal(-2)))
          CFI (cfiCond20) DPH0 load(1, XDATA, add(CFA_XSP16, literal(-1)))
          CFI (cfiCond20) CFA_SP SP+-2
          CFI (cfiCond20) CFA_XSP16 add(XSP16, 82)
          CFI Block cfiCond21 Using cfiCommon0
          CFI (cfiCond21) Function gp_ZclPairingParse
          CFI (cfiCond21) Conditional ??CrossCallReturnLabel_53
          CFI (cfiCond21) R6 load(1, XDATA, add(CFA_XSP16, literal(-20)))
          CFI (cfiCond21) VB load(1, XDATA, add(CFA_XSP16, literal(-19)))
          CFI (cfiCond21) V0 load(1, XDATA, add(CFA_XSP16, literal(-18)))
          CFI (cfiCond21) V1 load(1, XDATA, add(CFA_XSP16, literal(-17)))
          CFI (cfiCond21) V2 load(1, XDATA, add(CFA_XSP16, literal(-16)))
          CFI (cfiCond21) V3 load(1, XDATA, add(CFA_XSP16, literal(-15)))
          CFI (cfiCond21) V4 load(1, XDATA, add(CFA_XSP16, literal(-14)))
          CFI (cfiCond21) V5 load(1, XDATA, add(CFA_XSP16, literal(-13)))
          CFI (cfiCond21) V6 load(1, XDATA, add(CFA_XSP16, literal(-12)))
          CFI (cfiCond21) V7 load(1, XDATA, add(CFA_XSP16, literal(-11)))
          CFI (cfiCond21) V8 load(1, XDATA, add(CFA_XSP16, literal(-10)))
          CFI (cfiCond21) V9 load(1, XDATA, add(CFA_XSP16, literal(-9)))
          CFI (cfiCond21) V10 load(1, XDATA, add(CFA_XSP16, literal(-8)))
          CFI (cfiCond21) V11 load(1, XDATA, add(CFA_XSP16, literal(-7)))
          CFI (cfiCond21) R7 load(1, XDATA, add(CFA_XSP16, literal(-6)))
          CFI (cfiCond21) ?RET_LOW load(1, XDATA, add(CFA_XSP16, literal(-5)))
          CFI (cfiCond21) ?RET_HIGH load(1, XDATA, add(CFA_XSP16, literal(-4)))
          CFI (cfiCond21) ?BRET_EXT load(1, XDATA, add(CFA_XSP16, literal(-3)))
          CFI (cfiCond21) DPL0 load(1, XDATA, add(CFA_XSP16, literal(-2)))
          CFI (cfiCond21) DPH0 load(1, XDATA, add(CFA_XSP16, literal(-1)))
          CFI (cfiCond21) CFA_SP SP+-2
          CFI (cfiCond21) CFA_XSP16 add(XSP16, 85)
          CFI Block cfiCond22 Using cfiCommon0
          CFI (cfiCond22) Function gp_ZclProxyTableReqParse
          CFI (cfiCond22) Conditional ??CrossCallReturnLabel_54
          CFI (cfiCond22) R6 load(1, XDATA, add(CFA_XSP16, literal(-14)))
          CFI (cfiCond22) VB load(1, XDATA, add(CFA_XSP16, literal(-13)))
          CFI (cfiCond22) V0 load(1, XDATA, add(CFA_XSP16, literal(-12)))
          CFI (cfiCond22) V1 load(1, XDATA, add(CFA_XSP16, literal(-11)))
          CFI (cfiCond22) V2 load(1, XDATA, add(CFA_XSP16, literal(-10)))
          CFI (cfiCond22) V3 load(1, XDATA, add(CFA_XSP16, literal(-9)))
          CFI (cfiCond22) V4 load(1, XDATA, add(CFA_XSP16, literal(-8)))
          CFI (cfiCond22) V5 load(1, XDATA, add(CFA_XSP16, literal(-7)))
          CFI (cfiCond22) R7 load(1, XDATA, add(CFA_XSP16, literal(-6)))
          CFI (cfiCond22) ?RET_LOW load(1, XDATA, add(CFA_XSP16, literal(-5)))
          CFI (cfiCond22) ?RET_HIGH load(1, XDATA, add(CFA_XSP16, literal(-4)))
          CFI (cfiCond22) ?BRET_EXT load(1, XDATA, add(CFA_XSP16, literal(-3)))
          CFI (cfiCond22) DPL0 load(1, XDATA, add(CFA_XSP16, literal(-2)))
          CFI (cfiCond22) DPH0 load(1, XDATA, add(CFA_XSP16, literal(-1)))
          CFI (cfiCond22) CFA_SP SP+-2
          CFI (cfiCond22) CFA_XSP16 add(XSP16, 14)
          CFI Block cfiPicker23 Using cfiCommon1
          CFI (cfiPicker23) NoFunction
          CFI (cfiPicker23) Picker
        MOVX      @DPTR,A
        INC       DPTR
        MOVX      @DPTR,A
        INC       DPTR
        MOVX      @DPTR,A
        INC       DPTR
        MOVX      @DPTR,A
        RET
          CFI EndBlock cfiCond18
          CFI EndBlock cfiCond19
          CFI EndBlock cfiCond20
          CFI EndBlock cfiCond21
          CFI EndBlock cfiCond22
          CFI EndBlock cfiPicker23
//  476 
//  477 /*********************************************************************
//  478  * @fn      zclGp_DataIndParse
//  479  *
//  480 
//  481  * @brief   Parse the Gp Data indication to Gp Notification command
//  482  *
//  483  * @param   pInd - Pointer to the incoming data
//  484  *
//  485  * @return  ZStatus_t
//  486  */

        RSEG BANKED_CODE:HUGECODE:NOROOT(0)
//  487 ZStatus_t zclGp_DataIndParse( gp_DataInd_t *pInd, gpNotificationCmd_t *pGpNotification )
zclGp_DataIndParse:
          CFI Block cfiBlock24 Using cfiCommon0
          CFI Function zclGp_DataIndParse
        CODE
//  488 {
        FUNCALL zclGp_DataIndParse, gp_ResetProxyBasicTblEntry
        LOCFRAME ISTACK, 0, STACK
        LOCFRAME PSTACK, 0, STACK
        LOCFRAME XSTACK, 87, STACK
        LOCFRAME IOVERLAY, 0, STATIC
        LOCFRAME DOVERLAY, 0, STATIC
        ARGFRAME ISTACK, 0, STACK
        ARGFRAME PSTACK, 0, STACK
        ARGFRAME XSTACK, 87, STACK
        ARGFRAME IOVERLAY, 0, STATIC
        ARGFRAME DOVERLAY, 0, STATIC
        FUNCALL zclGp_DataIndParse, gp_getProxyTableByIndex
        LOCFRAME ISTACK, 0, STACK
        LOCFRAME PSTACK, 0, STACK
        LOCFRAME XSTACK, 87, STACK
        LOCFRAME IOVERLAY, 0, STATIC
        LOCFRAME DOVERLAY, 0, STATIC
        ARGFRAME ISTACK, 0, STACK
        ARGFRAME PSTACK, 0, STACK
        ARGFRAME XSTACK, 87, STACK
        ARGFRAME IOVERLAY, 0, STATIC
        ARGFRAME DOVERLAY, 0, STATIC
        FUNCALL zclGp_DataIndParse, osal_memcmp
        LOCFRAME ISTACK, 0, STACK
        LOCFRAME PSTACK, 0, STACK
        LOCFRAME XSTACK, 90, STACK
        LOCFRAME IOVERLAY, 0, STATIC
        LOCFRAME DOVERLAY, 0, STATIC
        ARGFRAME ISTACK, 0, STACK
        ARGFRAME PSTACK, 0, STACK
        ARGFRAME XSTACK, 90, STACK
        ARGFRAME IOVERLAY, 0, STATIC
        ARGFRAME DOVERLAY, 0, STATIC
        FUNCALL zclGp_DataIndParse, osal_memcmp
        LOCFRAME ISTACK, 0, STACK
        LOCFRAME PSTACK, 0, STACK
        LOCFRAME XSTACK, 90, STACK
        LOCFRAME IOVERLAY, 0, STATIC
        LOCFRAME DOVERLAY, 0, STATIC
        ARGFRAME ISTACK, 0, STACK
        ARGFRAME PSTACK, 0, STACK
        ARGFRAME XSTACK, 90, STACK
        ARGFRAME IOVERLAY, 0, STATIC
        ARGFRAME DOVERLAY, 0, STATIC
        FUNCALL zclGp_DataIndParse, osal_memcpy
        LOCFRAME ISTACK, 0, STACK
        LOCFRAME PSTACK, 0, STACK
        LOCFRAME XSTACK, 90, STACK
        LOCFRAME IOVERLAY, 0, STATIC
        LOCFRAME DOVERLAY, 0, STATIC
        ARGFRAME ISTACK, 0, STACK
        ARGFRAME PSTACK, 0, STACK
        ARGFRAME XSTACK, 90, STACK
        ARGFRAME IOVERLAY, 0, STATIC
        ARGFRAME DOVERLAY, 0, STATIC
        REQUIRE ?V0
        REQUIRE ?V1
        REQUIRE ?V2
        REQUIRE ?V4
        REQUIRE ?V5
        REQUIRE ?V6
        REQUIRE ?V7
        REQUIRE ?V8
        REQUIRE ?V9
        REQUIRE ?V10
        REQUIRE ?V12
        REQUIRE ?V13
        MOV       A,#-0x16
        LCALL     ?BANKED_ENTER_XDATA
          CFI DPH0 load(1, XDATA, add(CFA_XSP16, literal(-1)))
          CFI DPL0 load(1, XDATA, add(CFA_XSP16, literal(-2)))
          CFI ?BRET_EXT load(1, XDATA, add(CFA_XSP16, literal(-3)))
          CFI ?RET_HIGH load(1, XDATA, add(CFA_XSP16, literal(-4)))
          CFI ?RET_LOW load(1, XDATA, add(CFA_XSP16, literal(-5)))
          CFI R7 load(1, XDATA, add(CFA_XSP16, literal(-6)))
          CFI V13 load(1, XDATA, add(CFA_XSP16, literal(-7)))
          CFI V12 load(1, XDATA, add(CFA_XSP16, literal(-8)))
          CFI V11 load(1, XDATA, add(CFA_XSP16, literal(-9)))
          CFI V10 load(1, XDATA, add(CFA_XSP16, literal(-10)))
          CFI V9 load(1, XDATA, add(CFA_XSP16, literal(-11)))
          CFI V8 load(1, XDATA, add(CFA_XSP16, literal(-12)))
          CFI V7 load(1, XDATA, add(CFA_XSP16, literal(-13)))
          CFI V6 load(1, XDATA, add(CFA_XSP16, literal(-14)))
          CFI V5 load(1, XDATA, add(CFA_XSP16, literal(-15)))
          CFI V4 load(1, XDATA, add(CFA_XSP16, literal(-16)))
          CFI V3 load(1, XDATA, add(CFA_XSP16, literal(-17)))
          CFI V2 load(1, XDATA, add(CFA_XSP16, literal(-18)))
          CFI V1 load(1, XDATA, add(CFA_XSP16, literal(-19)))
          CFI V0 load(1, XDATA, add(CFA_XSP16, literal(-20)))
          CFI VB load(1, XDATA, add(CFA_XSP16, literal(-21)))
          CFI R6 load(1, XDATA, add(CFA_XSP16, literal(-22)))
          CFI CFA_SP SP+0
          CFI CFA_XSP16 add(XSP16, 22)
        ; Saved register size: 22
        ; Auto size: 65
        MOV       A,#-0x41
        LCALL     ?ALLOC_XSTACK8
          CFI CFA_XSP16 add(XSP16, 87)
        MOV       ?V4,R2
        MOV       ?V5,R3
        MOV       ?V6,R4
        MOV       ?V7,R5
//  489   uint8 currEntry[PROXY_TBL_ENTRY_LEN];
//  490   uint8  ntfOpt[2] = {0x00, 0x00};
        MOV       R6,#0x0
//  491   uint8 i;
//  492   int8 RSSI;
//  493   uint8 LQI;
//  494   uint8 status;
//  495   
//  496   gp_ResetProxyBasicTblEntry(currEntry);
        ; Setup parameters for call to function gp_ResetProxyBasicTblEntry
        MOV       R2,?XSP + 0
        MOV       R3,?XSP + 1
        LCALL     `??gp_ResetProxyBasicTblEntry::?relay`; Banked call to: gp_ResetProxyBasicTblEntry
//  497   
//  498   for ( i = 1; i <= GPP_MAX_PROXY_TABLE_ENTRIES ; i++ )
        MOV       R7,#0x1
        MOV       A,?V4
        ADD       A,#0x11
        MOV       ?V0,A
        CLR       A
        ADDC      A,?V5
        MOV       ?V1,A
        MOV       ?V2,R6
        MOV       A,?V4
        ADD       A,#0x21
        MOV       ?V12,A
        CLR       A
        ADDC      A,?V5
        MOV       ?V13,A
//  499   {
//  500     status = gp_getProxyTableByIndex( ( ZCD_NV_PROXY_TABLE_START + i ), currEntry );
??zclGp_DataIndParse_0:
        ; Setup parameters for call to function gp_getProxyTableByIndex
        MOV       R4,?XSP + 0
        MOV       R5,?XSP + 1
        MOV       A,R7
        LCALL     ??Subroutine39_0 & 0xFFFF
??CrossCallReturnLabel_60:
        LCALL     `??gp_getProxyTableByIndex::?relay`; Banked call to: gp_getProxyTableByIndex
        MOV       A,R1
        MOV       R0,A
//  501 
//  502     if ( status == NV_OPER_FAILED )
        MOV       A,#0xa
        XRL       A,R0
        JNZ       ??zclGp_DataIndParse_1
//  503     {
//  504       return status;
        MOV       R1,#0xa
        LJMP      ??zclGp_DataIndParse_2 & 0xFFFF
//  505     }
//  506     
//  507     // if the entry is empty
//  508     if ( status == NV_INVALID_DATA )
??zclGp_DataIndParse_1:
        MOV       A,#0xd
        XRL       A,R0
        JNZ       $+5
        LJMP      ??zclGp_DataIndParse_3 & 0xFFFF
//  509     {
//  510       continue;
//  511     }
//  512   
//  513     if ( PROXY_TBL_COMP_APPLICTION_ID( pInd->appID, currEntry[PROXY_TBL_ENTRY_OPT] ) )
        MOV       A,?V4
        ADD       A,#0x1c
        LCALL     ?Subroutine30 & 0xFFFF
??CrossCallReturnLabel_34:
        MOV       R0,A
        MOV       A,#0x7
        ANL       A,R0
        MOV       R1,A
        MOV       DPL,?XSP + 0
        MOV       DPH,?XSP + 1
        MOVX      A,@DPTR
        ANL       A,#0x7
        XRL       A,R1
        JZ        $+5
        LJMP      ??zclGp_DataIndParse_3 & 0xFFFF
//  514     {
//  515       if ( pInd->appID == GP_OPT_APP_ID_GPD )
        MOV       A,R0
        JNZ       ??zclGp_DataIndParse_4
//  516       {
//  517         if ( osal_memcmp( &pInd->SrcId, &currEntry[PROXY_TBL_ENTRY_GPD_ID + 4], sizeof ( uint32 ) ) )
        ; Setup parameters for call to function osal_memcmp
        MOV       A,#0x6
        LCALL     ?XSTACK_DISP0_8
        MOV       R1,DPL
        MOV       R2,DPH
        MOV       ?V8,R1
        MOV       ?V9,R2
        MOV       ?V10,R6
        MOV       R0,#?V8
        LCALL     ?PUSH_XSTACK_I_THREE
          CFI CFA_XSP16 add(XSP16, 90)
        MOV       R4,#0x4
        MOV       R5,#0x0
        MOV       DPL,?V12
        MOV       DPH,?V13
        MOV       R1,DPL
        MOV       R2,DPH
        MOV       R3,#0x0
        LCALL     `??osal_memcmp::?relay`; Banked call to: osal_memcmp
        MOV       A,#0x3
        LCALL     ?DEALLOC_XSTACK8
          CFI CFA_XSP16 add(XSP16, 87)
        MOV       A,R1
        JZ        ??zclGp_DataIndParse_3
//  518         {
//  519           // Entry found
//  520           pGpNotification->gpdId = pInd->SrcId;
        MOV       DPL,?V12
        MOV       DPH,?V13
        LCALL     ?XLOAD_R0123
        MOV       DPL,?V6
        MOV       DPH,?V7
        INC       DPTR
        INC       DPTR
        LCALL     ?XSTORE_R0123
//  521           ntfOpt[0] = GP_OPT_APP_ID_GPD;
//  522           break;
        SJMP      ??zclGp_DataIndParse_5
//  523         }
//  524       }
//  525       else if ( pInd->appID == GP_OPT_APP_ID_IEEE )
??zclGp_DataIndParse_4:
        MOV       A,#0x2
        XRL       A,R0
        JNZ       ??zclGp_DataIndParse_3
//  526       {
//  527         if ( osal_memcmp( &pInd->srcAddr, &currEntry[PROXY_TBL_ENTRY_GPD_ID], Z_EXTADDR_LEN ) )
        ; Setup parameters for call to function osal_memcmp
        MOV       A,#0x2
        LCALL     ?XSTACK_DISP0_8
        MOV       R1,DPL
        MOV       R2,DPH
        MOV       ?V8,R1
        MOV       ?V9,R2
        MOV       ?V10,R6
        MOV       R0,#?V8
        LCALL     ?PUSH_XSTACK_I_THREE
          CFI CFA_XSP16 add(XSP16, 90)
        MOV       R4,#0x8
        MOV       R5,#0x0
        MOV       R1,?V0
        MOV       R2,?V1
        MOV       R3,?V2
        LCALL     `??osal_memcmp::?relay`; Banked call to: osal_memcmp
        MOV       A,#0x3
        LCALL     ?DEALLOC_XSTACK8
          CFI CFA_XSP16 add(XSP16, 87)
        MOV       A,R1
        JZ        ??zclGp_DataIndParse_3
//  528         {
//  529           // Entry found
//  530           osal_memcpy( pGpNotification->gpdIEEE, &(pInd->srcAddr.addr.extAddr), Z_EXTADDR_LEN );
        ; Setup parameters for call to function osal_memcpy
        MOV       R0,#?V0
        LCALL     ?PUSH_XSTACK_I_THREE
          CFI CFA_XSP16 add(XSP16, 90)
        MOV       R4,#0x8
        MOV       R5,#0x0
        MOV       A,?V6
        ADD       A,#0x6
        MOV       R2,A
        CLR       A
        ADDC      A,?V7
        MOV       R3,A
        LCALL     `??osal_memcpy::?relay`; Banked call to: osal_memcpy
        MOV       A,#0x3
        LCALL     ?DEALLOC_XSTACK8
          CFI CFA_XSP16 add(XSP16, 87)
//  531           pGpNotification->ep = pInd->EndPoint;
        MOV       A,?V4
        ADD       A,#0x25
        LCALL     ?Subroutine30 & 0xFFFF
??CrossCallReturnLabel_35:
        PUSH      A
          CFI CFA_SP SP+-1
        MOV       A,?V6
        ADD       A,#0xe
        MOV       DPL,A
        CLR       A
        ADDC      A,?V7
        MOV       DPH,A
        POP       A
          CFI CFA_SP SP+0
        MOVX      @DPTR,A
//  532           ntfOpt[0] = GP_OPT_APP_ID_IEEE;
        MOV       R6,#0x2
//  533           break;
        SJMP      ??zclGp_DataIndParse_5
//  534         }
//  535       }
//  536     }
//  537     else
//  538     {
//  539       continue;
//  540     }
//  541   }
??zclGp_DataIndParse_3:
        INC       R7
        MOV       A,R7
        CLR       C
        SUBB      A,#0x6
        JNC       $+5
        LJMP      ??zclGp_DataIndParse_0 & 0xFFFF
//  542   
//  543   // Set the options bit field
//  544   GP_NTF_SET_ALSO_UNICAST( ( uint8* )&ntfOpt[0], currEntry[PROXY_TBL_ENTRY_OPT] );
//  545   GP_NTF_SET_ALSO_DGROUP( ( uint8* )&ntfOpt[0], currEntry[PROXY_TBL_ENTRY_OPT] );
//  546   GP_NTF_SET_ALSO_CGROUP( ( uint8* )&ntfOpt[0], currEntry[PROXY_TBL_ENTRY_OPT] );
//  547   GP_NTF_SET_SEC_LEVEL( ( uint8* )&ntfOpt[0], currEntry[PROXY_TBL_ENTRY_SEC_OPT] );
??zclGp_DataIndParse_5:
        MOV       A,#0xd
        LCALL     ?XSTACK_DISP0_8
        MOVX      A,@DPTR
        MOV       R0,A
        SWAP      A
        RLC       A
        RLC       A
        ANL       A,#0xc0
        MOV       R2,A
        MOV       DPL,?XSP + 0
        MOV       DPH,?XSP + 1
        MOVX      A,@DPTR
        MOV       C,0xE0 /* A   */.0
        CLR       A
        RLC       A
        SWAP      A
        RLC       A
        MOV       R1,A
        MOVX      A,@DPTR
        RRC       A
        RRC       A
        RRC       A
        ANL       A,#0x1f
        ANL       A,#0x18
        ORL       A,R6
        ORL       A,R1
        ANL       A,#0x3f
        ORL       A,R2
        MOV       R6,A
//  548   GP_NTF_SET_SEC_KEY_TYPE( ( uint8* )&ntfOpt[1], currEntry[PROXY_TBL_ENTRY_SEC_OPT] );
        MOV       A,R0
        RRC       A
        RRC       A
        ANL       A,#0x3f
        ANL       A,#0x7
        MOV       R0,A
//  549   pInd->RxAfterTx ?PROXY_TBL_SET_RX_AFTER_TX( ( uint8* )&ntfOpt[1] ) : PROXY_TBL_CLR_RX_AFTER_TX( ( uint8* )&ntfOpt[1] );
        MOV       A,?V4
        ADD       A,#0x20
        LCALL     ?Subroutine30 & 0xFFFF
??CrossCallReturnLabel_36:
        JZ        ??zclGp_DataIndParse_6
        MOV       A,R0
        SETB      0xE0 /* A   */.3
        MOV       R0,A
//  550   
//  551   // Mandatory to set this sub fields to 0b1 by the Green Power Proxy Basic Spec in A.3.3.4.1
//  552   PROXY_TBL_CLR_TX_QUEUE_FULL( ( uint8* )&ntfOpt[1] );
//  553   PROXY_TBL_SET_BIDIRECTIONAL_CAP( ( uint8* )&ntfOpt[1] );
//  554   PROXY_TBL_SET_PROXY_INFO( ( uint8* )&ntfOpt[1] );
//  555   
//  556   pGpNotification->options |= ( ( ntfOpt[0] ) & 0x00FF );
//  557   pGpNotification->options |= ( ( ( ntfOpt[1] ) <<  8 ) & 0xFF00 );
??zclGp_DataIndParse_6:
        MOV       A,R6
        MOV       R2,A
        MOV       A,#0x60
        ORL       A,R0
        MOV       R1,A
        MOV       A,R2
        MOV       R0,A
        MOV       DPL,?V6
        MOV       DPH,?V7
        MOVX      A,@DPTR
        ORL       A,R0
        MOVX      @DPTR,A
        INC       DPTR
        MOVX      A,@DPTR
        ORL       A,R1
        MOVX      @DPTR,A
//  558   
//  559   pGpNotification->gpdSecCounter = pInd->GPDSecFrameCounter;
        MOV       A,?V4
        LCALL     ?Subroutine31 & 0xFFFF
??CrossCallReturnLabel_41:
        ADDC      A,?V5
        MOV       DPH,A
        LCALL     ?XLOAD_R0123
        MOV       A,?V6
        ADD       A,#0xf
        MOV       DPL,A
        CLR       A
        ADDC      A,?V7
        MOV       DPH,A
        LCALL     ?XSTORE_R0123
//  560   pGpNotification->cmdId = pInd->GPDCmmdID;
        MOV       A,?V4
        ADD       A,#0x2a
        LCALL     ?Subroutine30 & 0xFFFF
??CrossCallReturnLabel_37:
        PUSH      A
          CFI CFA_SP SP+-1
        MOV       A,?V6
        ADD       A,#0x13
        MOV       DPL,A
        CLR       A
        ADDC      A,?V7
        MOV       DPH,A
        POP       A
          CFI CFA_SP SP+0
        MOVX      @DPTR,A
//  561 
//  562   if ( pInd->GPDasduLength > 0 )
        MOV       A,?V4
        ADD       A,#0x2f
        LCALL     ?Subroutine30 & 0xFFFF
??CrossCallReturnLabel_38:
        JZ        ??CrossCallReturnLabel_96
//  563   {
//  564     pGpNotification->payloadLen = pInd->GPDasduLength;
        PUSH      A
          CFI CFA_SP SP+-1
        MOV       A,?V6
        ADD       A,#0x14
        MOV       DPL,A
        CLR       A
        ADDC      A,?V7
        MOV       DPH,A
        POP       A
          CFI CFA_SP SP+0
        MOVX      @DPTR,A
//  565     pGpNotification->cmdPayload = pInd->GPDasdu;
        MOV       A,?V4
        ADD       A,#0x30
        MOV       R0,A
        CLR       A
        ADDC      A,?V5
        MOV       R1,A
        MOV       A,?V6
        ADD       A,#0x15
        MOV       DPL,A
        CLR       A
        ADDC      A,?V7
        LCALL     ??Subroutine43_0 & 0xFFFF
//  566   }
//  567   
//  568   pGpNotification->gppShortAddr = _NIB.nwkDevAddress;
??CrossCallReturnLabel_96:
        LCALL     ?Subroutine20 & 0xFFFF
??CrossCallReturnLabel_58:
        MOV       A,?V6
        ADD       A,#0x17
        MOV       DPL,A
        CLR       A
        ADDC      A,?V7
        LCALL     ??Subroutine43_0 & 0xFFFF
//  569   
//  570   RSSI = pInd->Rssi;
??CrossCallReturnLabel_97:
        MOV       A,?V4
        ADD       A,#0xe
        MOV       DPL,A
        CLR       A
        ADDC      A,?V5
        LCALL     ?Subroutine18 & 0xFFFF
//  571   ( RSSI > 8 ) ?RSSI = 8 : ( RSSI < -109 ) ?RSSI = -109 : NULL;
??CrossCallReturnLabel_17:
        JC        ??zclGp_DataIndParse_7
        MOV       R0,#0x8
        SJMP      ??zclGp_DataIndParse_8
??zclGp_DataIndParse_7:
        MOV       A,R0
        CLR       C
        SUBB      A,#-0x6d
        MOV       C,0xD0 /* PSW */.2
        XRL       A,PSW
        RLC       A
        JNC       ??zclGp_DataIndParse_8
        MOV       R0,#-0x6d
//  572   RSSI += 110;
//  573   RSSI /= 2;
??zclGp_DataIndParse_8:
        MOV       A,#0x6e
        ADD       A,R0
        MOV       B,#0x2
        LCALL     ?SC_DIV_MOD
        MOV       R0,A
//  574   
//  575   ( pInd->LinkQuality == 0 ) ?LQI = 0 : ( pInd->LinkQuality > 0 ) ?LQI = 2 : NULL;
        MOV       A,?V4
        ADD       A,#0xf
        LCALL     ?Subroutine30 & 0xFFFF
??CrossCallReturnLabel_39:
        JNZ       ??zclGp_DataIndParse_9
        MOV       R1,#0x0
        SJMP      ??zclGp_DataIndParse_10
??zclGp_DataIndParse_9:
        MOV       R1,#0x2
//  576   
//  577   pGpNotification->gppGpdLink = RSSI;
//  578   pGpNotification->gppGpdLink |= ( LQI << 6 );
??zclGp_DataIndParse_10:
        MOV       A,R1
        SWAP      A
        RLC       A
        RLC       A
        ANL       A,#0xc0
        ORL       A,R0
        PUSH      A
          CFI CFA_SP SP+-1
        MOV       A,?V6
        ADD       A,#0x19
        MOV       DPL,A
        CLR       A
        ADDC      A,?V7
        MOV       DPH,A
        POP       A
          CFI CFA_SP SP+0
        MOVX      @DPTR,A
//  579     
//  580   return SUCCESS;
        MOV       R1,#0x0
??zclGp_DataIndParse_2:
        MOV       A,#0x41
        SJMP      ??Subroutine38_0
//  581 }
          CFI EndBlock cfiBlock24

        RSEG BANKED_CODE:HUGECODE:NOROOT(0)
?Subroutine31:
          CFI Block cfiCond25 Using cfiCommon0
          CFI Function zclGp_ManteinanceIndParse
          CFI Conditional ??CrossCallReturnLabel_40
          CFI R6 load(1, XDATA, add(CFA_XSP16, literal(-15)))
          CFI VB load(1, XDATA, add(CFA_XSP16, literal(-14)))
          CFI V0 load(1, XDATA, add(CFA_XSP16, literal(-13)))
          CFI V1 load(1, XDATA, add(CFA_XSP16, literal(-12)))
          CFI V2 load(1, XDATA, add(CFA_XSP16, literal(-11)))
          CFI V3 load(1, XDATA, add(CFA_XSP16, literal(-10)))
          CFI V4 load(1, XDATA, add(CFA_XSP16, literal(-9)))
          CFI V5 load(1, XDATA, add(CFA_XSP16, literal(-8)))
          CFI V6 load(1, XDATA, add(CFA_XSP16, literal(-7)))
          CFI R7 load(1, XDATA, add(CFA_XSP16, literal(-6)))
          CFI ?RET_LOW load(1, XDATA, add(CFA_XSP16, literal(-5)))
          CFI ?RET_HIGH load(1, XDATA, add(CFA_XSP16, literal(-4)))
          CFI ?BRET_EXT load(1, XDATA, add(CFA_XSP16, literal(-3)))
          CFI DPL0 load(1, XDATA, add(CFA_XSP16, literal(-2)))
          CFI DPH0 load(1, XDATA, add(CFA_XSP16, literal(-1)))
          CFI CFA_SP SP+-2
          CFI CFA_XSP16 add(XSP16, 82)
          CFI Block cfiCond26 Using cfiCommon0
          CFI (cfiCond26) Function zclGp_DataIndParse
          CFI (cfiCond26) Conditional ??CrossCallReturnLabel_41
          CFI (cfiCond26) R6 load(1, XDATA, add(CFA_XSP16, literal(-22)))
          CFI (cfiCond26) VB load(1, XDATA, add(CFA_XSP16, literal(-21)))
          CFI (cfiCond26) V0 load(1, XDATA, add(CFA_XSP16, literal(-20)))
          CFI (cfiCond26) V1 load(1, XDATA, add(CFA_XSP16, literal(-19)))
          CFI (cfiCond26) V2 load(1, XDATA, add(CFA_XSP16, literal(-18)))
          CFI (cfiCond26) V3 load(1, XDATA, add(CFA_XSP16, literal(-17)))
          CFI (cfiCond26) V4 load(1, XDATA, add(CFA_XSP16, literal(-16)))
          CFI (cfiCond26) V5 load(1, XDATA, add(CFA_XSP16, literal(-15)))
          CFI (cfiCond26) V6 load(1, XDATA, add(CFA_XSP16, literal(-14)))
          CFI (cfiCond26) V7 load(1, XDATA, add(CFA_XSP16, literal(-13)))
          CFI (cfiCond26) V8 load(1, XDATA, add(CFA_XSP16, literal(-12)))
          CFI (cfiCond26) V9 load(1, XDATA, add(CFA_XSP16, literal(-11)))
          CFI (cfiCond26) V10 load(1, XDATA, add(CFA_XSP16, literal(-10)))
          CFI (cfiCond26) V11 load(1, XDATA, add(CFA_XSP16, literal(-9)))
          CFI (cfiCond26) V12 load(1, XDATA, add(CFA_XSP16, literal(-8)))
          CFI (cfiCond26) V13 load(1, XDATA, add(CFA_XSP16, literal(-7)))
          CFI (cfiCond26) R7 load(1, XDATA, add(CFA_XSP16, literal(-6)))
          CFI (cfiCond26) ?RET_LOW load(1, XDATA, add(CFA_XSP16, literal(-5)))
          CFI (cfiCond26) ?RET_HIGH load(1, XDATA, add(CFA_XSP16, literal(-4)))
          CFI (cfiCond26) ?BRET_EXT load(1, XDATA, add(CFA_XSP16, literal(-3)))
          CFI (cfiCond26) DPL0 load(1, XDATA, add(CFA_XSP16, literal(-2)))
          CFI (cfiCond26) DPH0 load(1, XDATA, add(CFA_XSP16, literal(-1)))
          CFI (cfiCond26) CFA_SP SP+-2
          CFI (cfiCond26) CFA_XSP16 add(XSP16, 87)
          CFI Block cfiCond27 Using cfiCommon0
          CFI (cfiCond27) Function GP_SecReq
          CFI (cfiCond27) Conditional ??CrossCallReturnLabel_42
          CFI (cfiCond27) R6 load(1, XDATA, add(CFA_XSP16, literal(-24)))
          CFI (cfiCond27) VB load(1, XDATA, add(CFA_XSP16, literal(-23)))
          CFI (cfiCond27) V0 load(1, XDATA, add(CFA_XSP16, literal(-22)))
          CFI (cfiCond27) V1 load(1, XDATA, add(CFA_XSP16, literal(-21)))
          CFI (cfiCond27) V2 load(1, XDATA, add(CFA_XSP16, literal(-20)))
          CFI (cfiCond27) V3 load(1, XDATA, add(CFA_XSP16, literal(-19)))
          CFI (cfiCond27) V4 load(1, XDATA, add(CFA_XSP16, literal(-18)))
          CFI (cfiCond27) V5 load(1, XDATA, add(CFA_XSP16, literal(-17)))
          CFI (cfiCond27) V6 load(1, XDATA, add(CFA_XSP16, literal(-16)))
          CFI (cfiCond27) V7 load(1, XDATA, add(CFA_XSP16, literal(-15)))
          CFI (cfiCond27) V8 load(1, XDATA, add(CFA_XSP16, literal(-14)))
          CFI (cfiCond27) V9 load(1, XDATA, add(CFA_XSP16, literal(-13)))
          CFI (cfiCond27) V10 load(1, XDATA, add(CFA_XSP16, literal(-12)))
          CFI (cfiCond27) V11 load(1, XDATA, add(CFA_XSP16, literal(-11)))
          CFI (cfiCond27) V12 load(1, XDATA, add(CFA_XSP16, literal(-10)))
          CFI (cfiCond27) V13 load(1, XDATA, add(CFA_XSP16, literal(-9)))
          CFI (cfiCond27) V14 load(1, XDATA, add(CFA_XSP16, literal(-8)))
          CFI (cfiCond27) V15 load(1, XDATA, add(CFA_XSP16, literal(-7)))
          CFI (cfiCond27) R7 load(1, XDATA, add(CFA_XSP16, literal(-6)))
          CFI (cfiCond27) ?RET_LOW load(1, XDATA, add(CFA_XSP16, literal(-5)))
          CFI (cfiCond27) ?RET_HIGH load(1, XDATA, add(CFA_XSP16, literal(-4)))
          CFI (cfiCond27) ?BRET_EXT load(1, XDATA, add(CFA_XSP16, literal(-3)))
          CFI (cfiCond27) DPL0 load(1, XDATA, add(CFA_XSP16, literal(-2)))
          CFI (cfiCond27) DPH0 load(1, XDATA, add(CFA_XSP16, literal(-1)))
          CFI (cfiCond27) CFA_SP SP+-2
          CFI (cfiCond27) CFA_XSP16 add(XSP16, 127)
          CFI Block cfiCond28 Using cfiCommon0
          CFI (cfiCond28) Function GP_SecReq
          CFI (cfiCond28) Conditional ??CrossCallReturnLabel_43
          CFI (cfiCond28) R6 load(1, XDATA, add(CFA_XSP16, literal(-24)))
          CFI (cfiCond28) VB load(1, XDATA, add(CFA_XSP16, literal(-23)))
          CFI (cfiCond28) V0 load(1, XDATA, add(CFA_XSP16, literal(-22)))
          CFI (cfiCond28) V1 load(1, XDATA, add(CFA_XSP16, literal(-21)))
          CFI (cfiCond28) V2 load(1, XDATA, add(CFA_XSP16, literal(-20)))
          CFI (cfiCond28) V3 load(1, XDATA, add(CFA_XSP16, literal(-19)))
          CFI (cfiCond28) V4 load(1, XDATA, add(CFA_XSP16, literal(-18)))
          CFI (cfiCond28) V5 load(1, XDATA, add(CFA_XSP16, literal(-17)))
          CFI (cfiCond28) V6 load(1, XDATA, add(CFA_XSP16, literal(-16)))
          CFI (cfiCond28) V7 load(1, XDATA, add(CFA_XSP16, literal(-15)))
          CFI (cfiCond28) V8 load(1, XDATA, add(CFA_XSP16, literal(-14)))
          CFI (cfiCond28) V9 load(1, XDATA, add(CFA_XSP16, literal(-13)))
          CFI (cfiCond28) V10 load(1, XDATA, add(CFA_XSP16, literal(-12)))
          CFI (cfiCond28) V11 load(1, XDATA, add(CFA_XSP16, literal(-11)))
          CFI (cfiCond28) V12 load(1, XDATA, add(CFA_XSP16, literal(-10)))
          CFI (cfiCond28) V13 load(1, XDATA, add(CFA_XSP16, literal(-9)))
          CFI (cfiCond28) V14 load(1, XDATA, add(CFA_XSP16, literal(-8)))
          CFI (cfiCond28) V15 load(1, XDATA, add(CFA_XSP16, literal(-7)))
          CFI (cfiCond28) R7 load(1, XDATA, add(CFA_XSP16, literal(-6)))
          CFI (cfiCond28) ?RET_LOW load(1, XDATA, add(CFA_XSP16, literal(-5)))
          CFI (cfiCond28) ?RET_HIGH load(1, XDATA, add(CFA_XSP16, literal(-4)))
          CFI (cfiCond28) ?BRET_EXT load(1, XDATA, add(CFA_XSP16, literal(-3)))
          CFI (cfiCond28) DPL0 load(1, XDATA, add(CFA_XSP16, literal(-2)))
          CFI (cfiCond28) DPH0 load(1, XDATA, add(CFA_XSP16, literal(-1)))
          CFI (cfiCond28) CFA_SP SP+-2
          CFI (cfiCond28) CFA_XSP16 add(XSP16, 127)
          CFI Block cfiPicker29 Using cfiCommon1
          CFI (cfiPicker29) NoFunction
          CFI (cfiPicker29) Picker
        ADD       A,#0x26
        MOV       DPL,A
        CLR       A
        RET
          CFI EndBlock cfiCond25
          CFI EndBlock cfiCond26
          CFI EndBlock cfiCond27
          CFI EndBlock cfiCond28
          CFI EndBlock cfiPicker29

        RSEG BANKED_CODE:HUGECODE:NOROOT(0)
?Subroutine30:
          CFI Block cfiCond30 Using cfiCommon0
          CFI Function zclGp_DataIndParse
          CFI Conditional ??CrossCallReturnLabel_34
          CFI R6 load(1, XDATA, add(CFA_XSP16, literal(-22)))
          CFI VB load(1, XDATA, add(CFA_XSP16, literal(-21)))
          CFI V0 load(1, XDATA, add(CFA_XSP16, literal(-20)))
          CFI V1 load(1, XDATA, add(CFA_XSP16, literal(-19)))
          CFI V2 load(1, XDATA, add(CFA_XSP16, literal(-18)))
          CFI V3 load(1, XDATA, add(CFA_XSP16, literal(-17)))
          CFI V4 load(1, XDATA, add(CFA_XSP16, literal(-16)))
          CFI V5 load(1, XDATA, add(CFA_XSP16, literal(-15)))
          CFI V6 load(1, XDATA, add(CFA_XSP16, literal(-14)))
          CFI V7 load(1, XDATA, add(CFA_XSP16, literal(-13)))
          CFI V8 load(1, XDATA, add(CFA_XSP16, literal(-12)))
          CFI V9 load(1, XDATA, add(CFA_XSP16, literal(-11)))
          CFI V10 load(1, XDATA, add(CFA_XSP16, literal(-10)))
          CFI V11 load(1, XDATA, add(CFA_XSP16, literal(-9)))
          CFI V12 load(1, XDATA, add(CFA_XSP16, literal(-8)))
          CFI V13 load(1, XDATA, add(CFA_XSP16, literal(-7)))
          CFI R7 load(1, XDATA, add(CFA_XSP16, literal(-6)))
          CFI ?RET_LOW load(1, XDATA, add(CFA_XSP16, literal(-5)))
          CFI ?RET_HIGH load(1, XDATA, add(CFA_XSP16, literal(-4)))
          CFI ?BRET_EXT load(1, XDATA, add(CFA_XSP16, literal(-3)))
          CFI DPL0 load(1, XDATA, add(CFA_XSP16, literal(-2)))
          CFI DPH0 load(1, XDATA, add(CFA_XSP16, literal(-1)))
          CFI CFA_SP SP+-2
          CFI CFA_XSP16 add(XSP16, 87)
          CFI Block cfiCond31 Using cfiCommon0
          CFI (cfiCond31) Function zclGp_DataIndParse
          CFI (cfiCond31) Conditional ??CrossCallReturnLabel_35
          CFI (cfiCond31) R6 load(1, XDATA, add(CFA_XSP16, literal(-22)))
          CFI (cfiCond31) VB load(1, XDATA, add(CFA_XSP16, literal(-21)))
          CFI (cfiCond31) V0 load(1, XDATA, add(CFA_XSP16, literal(-20)))
          CFI (cfiCond31) V1 load(1, XDATA, add(CFA_XSP16, literal(-19)))
          CFI (cfiCond31) V2 load(1, XDATA, add(CFA_XSP16, literal(-18)))
          CFI (cfiCond31) V3 load(1, XDATA, add(CFA_XSP16, literal(-17)))
          CFI (cfiCond31) V4 load(1, XDATA, add(CFA_XSP16, literal(-16)))
          CFI (cfiCond31) V5 load(1, XDATA, add(CFA_XSP16, literal(-15)))
          CFI (cfiCond31) V6 load(1, XDATA, add(CFA_XSP16, literal(-14)))
          CFI (cfiCond31) V7 load(1, XDATA, add(CFA_XSP16, literal(-13)))
          CFI (cfiCond31) V8 load(1, XDATA, add(CFA_XSP16, literal(-12)))
          CFI (cfiCond31) V9 load(1, XDATA, add(CFA_XSP16, literal(-11)))
          CFI (cfiCond31) V10 load(1, XDATA, add(CFA_XSP16, literal(-10)))
          CFI (cfiCond31) V11 load(1, XDATA, add(CFA_XSP16, literal(-9)))
          CFI (cfiCond31) V12 load(1, XDATA, add(CFA_XSP16, literal(-8)))
          CFI (cfiCond31) V13 load(1, XDATA, add(CFA_XSP16, literal(-7)))
          CFI (cfiCond31) R7 load(1, XDATA, add(CFA_XSP16, literal(-6)))
          CFI (cfiCond31) ?RET_LOW load(1, XDATA, add(CFA_XSP16, literal(-5)))
          CFI (cfiCond31) ?RET_HIGH load(1, XDATA, add(CFA_XSP16, literal(-4)))
          CFI (cfiCond31) ?BRET_EXT load(1, XDATA, add(CFA_XSP16, literal(-3)))
          CFI (cfiCond31) DPL0 load(1, XDATA, add(CFA_XSP16, literal(-2)))
          CFI (cfiCond31) DPH0 load(1, XDATA, add(CFA_XSP16, literal(-1)))
          CFI (cfiCond31) CFA_SP SP+-2
          CFI (cfiCond31) CFA_XSP16 add(XSP16, 87)
          CFI Block cfiCond32 Using cfiCommon0
          CFI (cfiCond32) Function zclGp_DataIndParse
          CFI (cfiCond32) Conditional ??CrossCallReturnLabel_36
          CFI (cfiCond32) R6 load(1, XDATA, add(CFA_XSP16, literal(-22)))
          CFI (cfiCond32) VB load(1, XDATA, add(CFA_XSP16, literal(-21)))
          CFI (cfiCond32) V0 load(1, XDATA, add(CFA_XSP16, literal(-20)))
          CFI (cfiCond32) V1 load(1, XDATA, add(CFA_XSP16, literal(-19)))
          CFI (cfiCond32) V2 load(1, XDATA, add(CFA_XSP16, literal(-18)))
          CFI (cfiCond32) V3 load(1, XDATA, add(CFA_XSP16, literal(-17)))
          CFI (cfiCond32) V4 load(1, XDATA, add(CFA_XSP16, literal(-16)))
          CFI (cfiCond32) V5 load(1, XDATA, add(CFA_XSP16, literal(-15)))
          CFI (cfiCond32) V6 load(1, XDATA, add(CFA_XSP16, literal(-14)))
          CFI (cfiCond32) V7 load(1, XDATA, add(CFA_XSP16, literal(-13)))
          CFI (cfiCond32) V8 load(1, XDATA, add(CFA_XSP16, literal(-12)))
          CFI (cfiCond32) V9 load(1, XDATA, add(CFA_XSP16, literal(-11)))
          CFI (cfiCond32) V10 load(1, XDATA, add(CFA_XSP16, literal(-10)))
          CFI (cfiCond32) V11 load(1, XDATA, add(CFA_XSP16, literal(-9)))
          CFI (cfiCond32) V12 load(1, XDATA, add(CFA_XSP16, literal(-8)))
          CFI (cfiCond32) V13 load(1, XDATA, add(CFA_XSP16, literal(-7)))
          CFI (cfiCond32) R7 load(1, XDATA, add(CFA_XSP16, literal(-6)))
          CFI (cfiCond32) ?RET_LOW load(1, XDATA, add(CFA_XSP16, literal(-5)))
          CFI (cfiCond32) ?RET_HIGH load(1, XDATA, add(CFA_XSP16, literal(-4)))
          CFI (cfiCond32) ?BRET_EXT load(1, XDATA, add(CFA_XSP16, literal(-3)))
          CFI (cfiCond32) DPL0 load(1, XDATA, add(CFA_XSP16, literal(-2)))
          CFI (cfiCond32) DPH0 load(1, XDATA, add(CFA_XSP16, literal(-1)))
          CFI (cfiCond32) CFA_SP SP+-2
          CFI (cfiCond32) CFA_XSP16 add(XSP16, 87)
          CFI Block cfiCond33 Using cfiCommon0
          CFI (cfiCond33) Function zclGp_DataIndParse
          CFI (cfiCond33) Conditional ??CrossCallReturnLabel_37
          CFI (cfiCond33) R6 load(1, XDATA, add(CFA_XSP16, literal(-22)))
          CFI (cfiCond33) VB load(1, XDATA, add(CFA_XSP16, literal(-21)))
          CFI (cfiCond33) V0 load(1, XDATA, add(CFA_XSP16, literal(-20)))
          CFI (cfiCond33) V1 load(1, XDATA, add(CFA_XSP16, literal(-19)))
          CFI (cfiCond33) V2 load(1, XDATA, add(CFA_XSP16, literal(-18)))
          CFI (cfiCond33) V3 load(1, XDATA, add(CFA_XSP16, literal(-17)))
          CFI (cfiCond33) V4 load(1, XDATA, add(CFA_XSP16, literal(-16)))
          CFI (cfiCond33) V5 load(1, XDATA, add(CFA_XSP16, literal(-15)))
          CFI (cfiCond33) V6 load(1, XDATA, add(CFA_XSP16, literal(-14)))
          CFI (cfiCond33) V7 load(1, XDATA, add(CFA_XSP16, literal(-13)))
          CFI (cfiCond33) V8 load(1, XDATA, add(CFA_XSP16, literal(-12)))
          CFI (cfiCond33) V9 load(1, XDATA, add(CFA_XSP16, literal(-11)))
          CFI (cfiCond33) V10 load(1, XDATA, add(CFA_XSP16, literal(-10)))
          CFI (cfiCond33) V11 load(1, XDATA, add(CFA_XSP16, literal(-9)))
          CFI (cfiCond33) V12 load(1, XDATA, add(CFA_XSP16, literal(-8)))
          CFI (cfiCond33) V13 load(1, XDATA, add(CFA_XSP16, literal(-7)))
          CFI (cfiCond33) R7 load(1, XDATA, add(CFA_XSP16, literal(-6)))
          CFI (cfiCond33) ?RET_LOW load(1, XDATA, add(CFA_XSP16, literal(-5)))
          CFI (cfiCond33) ?RET_HIGH load(1, XDATA, add(CFA_XSP16, literal(-4)))
          CFI (cfiCond33) ?BRET_EXT load(1, XDATA, add(CFA_XSP16, literal(-3)))
          CFI (cfiCond33) DPL0 load(1, XDATA, add(CFA_XSP16, literal(-2)))
          CFI (cfiCond33) DPH0 load(1, XDATA, add(CFA_XSP16, literal(-1)))
          CFI (cfiCond33) CFA_SP SP+-2
          CFI (cfiCond33) CFA_XSP16 add(XSP16, 87)
          CFI Block cfiCond34 Using cfiCommon0
          CFI (cfiCond34) Function zclGp_DataIndParse
          CFI (cfiCond34) Conditional ??CrossCallReturnLabel_38
          CFI (cfiCond34) R6 load(1, XDATA, add(CFA_XSP16, literal(-22)))
          CFI (cfiCond34) VB load(1, XDATA, add(CFA_XSP16, literal(-21)))
          CFI (cfiCond34) V0 load(1, XDATA, add(CFA_XSP16, literal(-20)))
          CFI (cfiCond34) V1 load(1, XDATA, add(CFA_XSP16, literal(-19)))
          CFI (cfiCond34) V2 load(1, XDATA, add(CFA_XSP16, literal(-18)))
          CFI (cfiCond34) V3 load(1, XDATA, add(CFA_XSP16, literal(-17)))
          CFI (cfiCond34) V4 load(1, XDATA, add(CFA_XSP16, literal(-16)))
          CFI (cfiCond34) V5 load(1, XDATA, add(CFA_XSP16, literal(-15)))
          CFI (cfiCond34) V6 load(1, XDATA, add(CFA_XSP16, literal(-14)))
          CFI (cfiCond34) V7 load(1, XDATA, add(CFA_XSP16, literal(-13)))
          CFI (cfiCond34) V8 load(1, XDATA, add(CFA_XSP16, literal(-12)))
          CFI (cfiCond34) V9 load(1, XDATA, add(CFA_XSP16, literal(-11)))
          CFI (cfiCond34) V10 load(1, XDATA, add(CFA_XSP16, literal(-10)))
          CFI (cfiCond34) V11 load(1, XDATA, add(CFA_XSP16, literal(-9)))
          CFI (cfiCond34) V12 load(1, XDATA, add(CFA_XSP16, literal(-8)))
          CFI (cfiCond34) V13 load(1, XDATA, add(CFA_XSP16, literal(-7)))
          CFI (cfiCond34) R7 load(1, XDATA, add(CFA_XSP16, literal(-6)))
          CFI (cfiCond34) ?RET_LOW load(1, XDATA, add(CFA_XSP16, literal(-5)))
          CFI (cfiCond34) ?RET_HIGH load(1, XDATA, add(CFA_XSP16, literal(-4)))
          CFI (cfiCond34) ?BRET_EXT load(1, XDATA, add(CFA_XSP16, literal(-3)))
          CFI (cfiCond34) DPL0 load(1, XDATA, add(CFA_XSP16, literal(-2)))
          CFI (cfiCond34) DPH0 load(1, XDATA, add(CFA_XSP16, literal(-1)))
          CFI (cfiCond34) CFA_SP SP+-2
          CFI (cfiCond34) CFA_XSP16 add(XSP16, 87)
          CFI Block cfiCond35 Using cfiCommon0
          CFI (cfiCond35) Function zclGp_DataIndParse
          CFI (cfiCond35) Conditional ??CrossCallReturnLabel_39
          CFI (cfiCond35) R6 load(1, XDATA, add(CFA_XSP16, literal(-22)))
          CFI (cfiCond35) VB load(1, XDATA, add(CFA_XSP16, literal(-21)))
          CFI (cfiCond35) V0 load(1, XDATA, add(CFA_XSP16, literal(-20)))
          CFI (cfiCond35) V1 load(1, XDATA, add(CFA_XSP16, literal(-19)))
          CFI (cfiCond35) V2 load(1, XDATA, add(CFA_XSP16, literal(-18)))
          CFI (cfiCond35) V3 load(1, XDATA, add(CFA_XSP16, literal(-17)))
          CFI (cfiCond35) V4 load(1, XDATA, add(CFA_XSP16, literal(-16)))
          CFI (cfiCond35) V5 load(1, XDATA, add(CFA_XSP16, literal(-15)))
          CFI (cfiCond35) V6 load(1, XDATA, add(CFA_XSP16, literal(-14)))
          CFI (cfiCond35) V7 load(1, XDATA, add(CFA_XSP16, literal(-13)))
          CFI (cfiCond35) V8 load(1, XDATA, add(CFA_XSP16, literal(-12)))
          CFI (cfiCond35) V9 load(1, XDATA, add(CFA_XSP16, literal(-11)))
          CFI (cfiCond35) V10 load(1, XDATA, add(CFA_XSP16, literal(-10)))
          CFI (cfiCond35) V11 load(1, XDATA, add(CFA_XSP16, literal(-9)))
          CFI (cfiCond35) V12 load(1, XDATA, add(CFA_XSP16, literal(-8)))
          CFI (cfiCond35) V13 load(1, XDATA, add(CFA_XSP16, literal(-7)))
          CFI (cfiCond35) R7 load(1, XDATA, add(CFA_XSP16, literal(-6)))
          CFI (cfiCond35) ?RET_LOW load(1, XDATA, add(CFA_XSP16, literal(-5)))
          CFI (cfiCond35) ?RET_HIGH load(1, XDATA, add(CFA_XSP16, literal(-4)))
          CFI (cfiCond35) ?BRET_EXT load(1, XDATA, add(CFA_XSP16, literal(-3)))
          CFI (cfiCond35) DPL0 load(1, XDATA, add(CFA_XSP16, literal(-2)))
          CFI (cfiCond35) DPH0 load(1, XDATA, add(CFA_XSP16, literal(-1)))
          CFI (cfiCond35) CFA_SP SP+-2
          CFI (cfiCond35) CFA_XSP16 add(XSP16, 87)
          CFI Block cfiPicker36 Using cfiCommon1
          CFI (cfiPicker36) NoFunction
          CFI (cfiPicker36) Picker
        MOV       DPL,A
        CLR       A
        ADDC      A,?V5
        MOV       DPH,A
        MOVX      A,@DPTR
        RET
          CFI EndBlock cfiCond30
          CFI EndBlock cfiCond31
          CFI EndBlock cfiCond32
          CFI EndBlock cfiCond33
          CFI EndBlock cfiCond34
          CFI EndBlock cfiCond35
          CFI EndBlock cfiPicker36

        RSEG BANKED_CODE:HUGECODE:NOROOT(0)
?Subroutine20:
          CFI Block cfiCond37 Using cfiCommon0
          CFI Function zclGp_ManteinanceIndParse
          CFI Conditional ??CrossCallReturnLabel_57
          CFI R6 load(1, XDATA, add(CFA_XSP16, literal(-15)))
          CFI VB load(1, XDATA, add(CFA_XSP16, literal(-14)))
          CFI V0 load(1, XDATA, add(CFA_XSP16, literal(-13)))
          CFI V1 load(1, XDATA, add(CFA_XSP16, literal(-12)))
          CFI V2 load(1, XDATA, add(CFA_XSP16, literal(-11)))
          CFI V3 load(1, XDATA, add(CFA_XSP16, literal(-10)))
          CFI V4 load(1, XDATA, add(CFA_XSP16, literal(-9)))
          CFI V5 load(1, XDATA, add(CFA_XSP16, literal(-8)))
          CFI V6 load(1, XDATA, add(CFA_XSP16, literal(-7)))
          CFI R7 load(1, XDATA, add(CFA_XSP16, literal(-6)))
          CFI ?RET_LOW load(1, XDATA, add(CFA_XSP16, literal(-5)))
          CFI ?RET_HIGH load(1, XDATA, add(CFA_XSP16, literal(-4)))
          CFI ?BRET_EXT load(1, XDATA, add(CFA_XSP16, literal(-3)))
          CFI DPL0 load(1, XDATA, add(CFA_XSP16, literal(-2)))
          CFI DPH0 load(1, XDATA, add(CFA_XSP16, literal(-1)))
          CFI CFA_SP SP+-2
          CFI CFA_XSP16 add(XSP16, 82)
          CFI Block cfiCond38 Using cfiCommon0
          CFI (cfiCond38) Function zclGp_DataIndParse
          CFI (cfiCond38) Conditional ??CrossCallReturnLabel_58
          CFI (cfiCond38) R6 load(1, XDATA, add(CFA_XSP16, literal(-22)))
          CFI (cfiCond38) VB load(1, XDATA, add(CFA_XSP16, literal(-21)))
          CFI (cfiCond38) V0 load(1, XDATA, add(CFA_XSP16, literal(-20)))
          CFI (cfiCond38) V1 load(1, XDATA, add(CFA_XSP16, literal(-19)))
          CFI (cfiCond38) V2 load(1, XDATA, add(CFA_XSP16, literal(-18)))
          CFI (cfiCond38) V3 load(1, XDATA, add(CFA_XSP16, literal(-17)))
          CFI (cfiCond38) V4 load(1, XDATA, add(CFA_XSP16, literal(-16)))
          CFI (cfiCond38) V5 load(1, XDATA, add(CFA_XSP16, literal(-15)))
          CFI (cfiCond38) V6 load(1, XDATA, add(CFA_XSP16, literal(-14)))
          CFI (cfiCond38) V7 load(1, XDATA, add(CFA_XSP16, literal(-13)))
          CFI (cfiCond38) V8 load(1, XDATA, add(CFA_XSP16, literal(-12)))
          CFI (cfiCond38) V9 load(1, XDATA, add(CFA_XSP16, literal(-11)))
          CFI (cfiCond38) V10 load(1, XDATA, add(CFA_XSP16, literal(-10)))
          CFI (cfiCond38) V11 load(1, XDATA, add(CFA_XSP16, literal(-9)))
          CFI (cfiCond38) V12 load(1, XDATA, add(CFA_XSP16, literal(-8)))
          CFI (cfiCond38) V13 load(1, XDATA, add(CFA_XSP16, literal(-7)))
          CFI (cfiCond38) R7 load(1, XDATA, add(CFA_XSP16, literal(-6)))
          CFI (cfiCond38) ?RET_LOW load(1, XDATA, add(CFA_XSP16, literal(-5)))
          CFI (cfiCond38) ?RET_HIGH load(1, XDATA, add(CFA_XSP16, literal(-4)))
          CFI (cfiCond38) ?BRET_EXT load(1, XDATA, add(CFA_XSP16, literal(-3)))
          CFI (cfiCond38) DPL0 load(1, XDATA, add(CFA_XSP16, literal(-2)))
          CFI (cfiCond38) DPH0 load(1, XDATA, add(CFA_XSP16, literal(-1)))
          CFI (cfiCond38) CFA_SP SP+-2
          CFI (cfiCond38) CFA_XSP16 add(XSP16, 87)
          CFI Block cfiCond39 Using cfiCommon0
          CFI (cfiCond39) Function zclGp_GpResponseCommandCB
          CFI (cfiCond39) Conditional ??CrossCallReturnLabel_59
          CFI (cfiCond39) R6 load(1, XDATA, add(CFA_XSP16, literal(-22)))
          CFI (cfiCond39) VB load(1, XDATA, add(CFA_XSP16, literal(-21)))
          CFI (cfiCond39) V0 load(1, XDATA, add(CFA_XSP16, literal(-20)))
          CFI (cfiCond39) V1 load(1, XDATA, add(CFA_XSP16, literal(-19)))
          CFI (cfiCond39) V2 load(1, XDATA, add(CFA_XSP16, literal(-18)))
          CFI (cfiCond39) V3 load(1, XDATA, add(CFA_XSP16, literal(-17)))
          CFI (cfiCond39) V4 load(1, XDATA, add(CFA_XSP16, literal(-16)))
          CFI (cfiCond39) V5 load(1, XDATA, add(CFA_XSP16, literal(-15)))
          CFI (cfiCond39) V6 load(1, XDATA, add(CFA_XSP16, literal(-14)))
          CFI (cfiCond39) V7 load(1, XDATA, add(CFA_XSP16, literal(-13)))
          CFI (cfiCond39) V8 load(1, XDATA, add(CFA_XSP16, literal(-12)))
          CFI (cfiCond39) V9 load(1, XDATA, add(CFA_XSP16, literal(-11)))
          CFI (cfiCond39) V10 load(1, XDATA, add(CFA_XSP16, literal(-10)))
          CFI (cfiCond39) V11 load(1, XDATA, add(CFA_XSP16, literal(-9)))
          CFI (cfiCond39) V12 load(1, XDATA, add(CFA_XSP16, literal(-8)))
          CFI (cfiCond39) V13 load(1, XDATA, add(CFA_XSP16, literal(-7)))
          CFI (cfiCond39) R7 load(1, XDATA, add(CFA_XSP16, literal(-6)))
          CFI (cfiCond39) ?RET_LOW load(1, XDATA, add(CFA_XSP16, literal(-5)))
          CFI (cfiCond39) ?RET_HIGH load(1, XDATA, add(CFA_XSP16, literal(-4)))
          CFI (cfiCond39) ?BRET_EXT load(1, XDATA, add(CFA_XSP16, literal(-3)))
          CFI (cfiCond39) DPL0 load(1, XDATA, add(CFA_XSP16, literal(-2)))
          CFI (cfiCond39) DPH0 load(1, XDATA, add(CFA_XSP16, literal(-1)))
          CFI (cfiCond39) CFA_SP SP+-2
          CFI (cfiCond39) CFA_XSP16 add(XSP16, 98)
          CFI Block cfiPicker40 Using cfiCommon1
          CFI (cfiPicker40) NoFunction
          CFI (cfiPicker40) Picker
        MOV       DPTR,#_NIB + 20
          CFI EndBlock cfiCond37
          CFI EndBlock cfiCond38
          CFI EndBlock cfiCond39
          CFI EndBlock cfiPicker40
        REQUIRE ??Subroutine37_0
        ; // Fall through to label ??Subroutine37_0

        RSEG BANKED_CODE:HUGECODE:NOROOT(0)
??Subroutine37_0:
          CFI Block cfiCond41 Using cfiCommon0
          CFI Function zclGp_GpProxyCommissioningModeCB
          CFI Conditional ??CrossCallReturnLabel_55
          CFI R6 load(1, XDATA, add(CFA_XSP16, literal(-10)))
          CFI VB load(1, XDATA, add(CFA_XSP16, literal(-9)))
          CFI V0 load(1, XDATA, add(CFA_XSP16, literal(-8)))
          CFI V1 load(1, XDATA, add(CFA_XSP16, literal(-7)))
          CFI R7 load(1, XDATA, add(CFA_XSP16, literal(-6)))
          CFI ?RET_LOW load(1, XDATA, add(CFA_XSP16, literal(-5)))
          CFI ?RET_HIGH load(1, XDATA, add(CFA_XSP16, literal(-4)))
          CFI ?BRET_EXT load(1, XDATA, add(CFA_XSP16, literal(-3)))
          CFI DPL0 load(1, XDATA, add(CFA_XSP16, literal(-2)))
          CFI DPH0 load(1, XDATA, add(CFA_XSP16, literal(-1)))
          CFI CFA_SP SP+-2
          CFI CFA_XSP16 add(XSP16, 10)
          CFI Block cfiCond42 Using cfiCommon0
          CFI (cfiCond42) Function zclGp_GpProxyCommissioningModeCB
          CFI (cfiCond42) Conditional ??CrossCallReturnLabel_56
          CFI (cfiCond42) R6 load(1, XDATA, add(CFA_XSP16, literal(-10)))
          CFI (cfiCond42) VB load(1, XDATA, add(CFA_XSP16, literal(-9)))
          CFI (cfiCond42) V0 load(1, XDATA, add(CFA_XSP16, literal(-8)))
          CFI (cfiCond42) V1 load(1, XDATA, add(CFA_XSP16, literal(-7)))
          CFI (cfiCond42) R7 load(1, XDATA, add(CFA_XSP16, literal(-6)))
          CFI (cfiCond42) ?RET_LOW load(1, XDATA, add(CFA_XSP16, literal(-5)))
          CFI (cfiCond42) ?RET_HIGH load(1, XDATA, add(CFA_XSP16, literal(-4)))
          CFI (cfiCond42) ?BRET_EXT load(1, XDATA, add(CFA_XSP16, literal(-3)))
          CFI (cfiCond42) DPL0 load(1, XDATA, add(CFA_XSP16, literal(-2)))
          CFI (cfiCond42) DPH0 load(1, XDATA, add(CFA_XSP16, literal(-1)))
          CFI (cfiCond42) CFA_SP SP+-2
          CFI (cfiCond42) CFA_XSP16 add(XSP16, 10)
          CFI Block cfiCond43 Using cfiCommon0
          CFI (cfiCond43) Function zclGp_ManteinanceIndParse
          CFI (cfiCond43) Conditional ??CrossCallReturnLabel_57
          CFI (cfiCond43) R6 load(1, XDATA, add(CFA_XSP16, literal(-15)))
          CFI (cfiCond43) VB load(1, XDATA, add(CFA_XSP16, literal(-14)))
          CFI (cfiCond43) V0 load(1, XDATA, add(CFA_XSP16, literal(-13)))
          CFI (cfiCond43) V1 load(1, XDATA, add(CFA_XSP16, literal(-12)))
          CFI (cfiCond43) V2 load(1, XDATA, add(CFA_XSP16, literal(-11)))
          CFI (cfiCond43) V3 load(1, XDATA, add(CFA_XSP16, literal(-10)))
          CFI (cfiCond43) V4 load(1, XDATA, add(CFA_XSP16, literal(-9)))
          CFI (cfiCond43) V5 load(1, XDATA, add(CFA_XSP16, literal(-8)))
          CFI (cfiCond43) V6 load(1, XDATA, add(CFA_XSP16, literal(-7)))
          CFI (cfiCond43) R7 load(1, XDATA, add(CFA_XSP16, literal(-6)))
          CFI (cfiCond43) ?RET_LOW load(1, XDATA, add(CFA_XSP16, literal(-5)))
          CFI (cfiCond43) ?RET_HIGH load(1, XDATA, add(CFA_XSP16, literal(-4)))
          CFI (cfiCond43) ?BRET_EXT load(1, XDATA, add(CFA_XSP16, literal(-3)))
          CFI (cfiCond43) DPL0 load(1, XDATA, add(CFA_XSP16, literal(-2)))
          CFI (cfiCond43) DPH0 load(1, XDATA, add(CFA_XSP16, literal(-1)))
          CFI (cfiCond43) CFA_SP SP+-2
          CFI (cfiCond43) CFA_XSP16 add(XSP16, 82)
          CFI Block cfiCond44 Using cfiCommon0
          CFI (cfiCond44) Function zclGp_DataIndParse
          CFI (cfiCond44) Conditional ??CrossCallReturnLabel_58
          CFI (cfiCond44) R6 load(1, XDATA, add(CFA_XSP16, literal(-22)))
          CFI (cfiCond44) VB load(1, XDATA, add(CFA_XSP16, literal(-21)))
          CFI (cfiCond44) V0 load(1, XDATA, add(CFA_XSP16, literal(-20)))
          CFI (cfiCond44) V1 load(1, XDATA, add(CFA_XSP16, literal(-19)))
          CFI (cfiCond44) V2 load(1, XDATA, add(CFA_XSP16, literal(-18)))
          CFI (cfiCond44) V3 load(1, XDATA, add(CFA_XSP16, literal(-17)))
          CFI (cfiCond44) V4 load(1, XDATA, add(CFA_XSP16, literal(-16)))
          CFI (cfiCond44) V5 load(1, XDATA, add(CFA_XSP16, literal(-15)))
          CFI (cfiCond44) V6 load(1, XDATA, add(CFA_XSP16, literal(-14)))
          CFI (cfiCond44) V7 load(1, XDATA, add(CFA_XSP16, literal(-13)))
          CFI (cfiCond44) V8 load(1, XDATA, add(CFA_XSP16, literal(-12)))
          CFI (cfiCond44) V9 load(1, XDATA, add(CFA_XSP16, literal(-11)))
          CFI (cfiCond44) V10 load(1, XDATA, add(CFA_XSP16, literal(-10)))
          CFI (cfiCond44) V11 load(1, XDATA, add(CFA_XSP16, literal(-9)))
          CFI (cfiCond44) V12 load(1, XDATA, add(CFA_XSP16, literal(-8)))
          CFI (cfiCond44) V13 load(1, XDATA, add(CFA_XSP16, literal(-7)))
          CFI (cfiCond44) R7 load(1, XDATA, add(CFA_XSP16, literal(-6)))
          CFI (cfiCond44) ?RET_LOW load(1, XDATA, add(CFA_XSP16, literal(-5)))
          CFI (cfiCond44) ?RET_HIGH load(1, XDATA, add(CFA_XSP16, literal(-4)))
          CFI (cfiCond44) ?BRET_EXT load(1, XDATA, add(CFA_XSP16, literal(-3)))
          CFI (cfiCond44) DPL0 load(1, XDATA, add(CFA_XSP16, literal(-2)))
          CFI (cfiCond44) DPH0 load(1, XDATA, add(CFA_XSP16, literal(-1)))
          CFI (cfiCond44) CFA_SP SP+-2
          CFI (cfiCond44) CFA_XSP16 add(XSP16, 87)
          CFI Block cfiCond45 Using cfiCommon0
          CFI (cfiCond45) Function zclGp_GpResponseCommandCB
          CFI (cfiCond45) Conditional ??CrossCallReturnLabel_59
          CFI (cfiCond45) R6 load(1, XDATA, add(CFA_XSP16, literal(-22)))
          CFI (cfiCond45) VB load(1, XDATA, add(CFA_XSP16, literal(-21)))
          CFI (cfiCond45) V0 load(1, XDATA, add(CFA_XSP16, literal(-20)))
          CFI (cfiCond45) V1 load(1, XDATA, add(CFA_XSP16, literal(-19)))
          CFI (cfiCond45) V2 load(1, XDATA, add(CFA_XSP16, literal(-18)))
          CFI (cfiCond45) V3 load(1, XDATA, add(CFA_XSP16, literal(-17)))
          CFI (cfiCond45) V4 load(1, XDATA, add(CFA_XSP16, literal(-16)))
          CFI (cfiCond45) V5 load(1, XDATA, add(CFA_XSP16, literal(-15)))
          CFI (cfiCond45) V6 load(1, XDATA, add(CFA_XSP16, literal(-14)))
          CFI (cfiCond45) V7 load(1, XDATA, add(CFA_XSP16, literal(-13)))
          CFI (cfiCond45) V8 load(1, XDATA, add(CFA_XSP16, literal(-12)))
          CFI (cfiCond45) V9 load(1, XDATA, add(CFA_XSP16, literal(-11)))
          CFI (cfiCond45) V10 load(1, XDATA, add(CFA_XSP16, literal(-10)))
          CFI (cfiCond45) V11 load(1, XDATA, add(CFA_XSP16, literal(-9)))
          CFI (cfiCond45) V12 load(1, XDATA, add(CFA_XSP16, literal(-8)))
          CFI (cfiCond45) V13 load(1, XDATA, add(CFA_XSP16, literal(-7)))
          CFI (cfiCond45) R7 load(1, XDATA, add(CFA_XSP16, literal(-6)))
          CFI (cfiCond45) ?RET_LOW load(1, XDATA, add(CFA_XSP16, literal(-5)))
          CFI (cfiCond45) ?RET_HIGH load(1, XDATA, add(CFA_XSP16, literal(-4)))
          CFI (cfiCond45) ?BRET_EXT load(1, XDATA, add(CFA_XSP16, literal(-3)))
          CFI (cfiCond45) DPL0 load(1, XDATA, add(CFA_XSP16, literal(-2)))
          CFI (cfiCond45) DPH0 load(1, XDATA, add(CFA_XSP16, literal(-1)))
          CFI (cfiCond45) CFA_SP SP+-2
          CFI (cfiCond45) CFA_XSP16 add(XSP16, 98)
          CFI Block cfiPicker46 Using cfiCommon1
          CFI (cfiPicker46) NoFunction
          CFI (cfiPicker46) Picker
        MOVX      A,@DPTR
        MOV       R0,A
        INC       DPTR
        MOVX      A,@DPTR
        MOV       R1,A
        RET
          CFI EndBlock cfiCond41
          CFI EndBlock cfiCond42
          CFI EndBlock cfiCond43
          CFI EndBlock cfiCond44
          CFI EndBlock cfiCond45
          CFI EndBlock cfiPicker46

        RSEG BANKED_CODE:HUGECODE:NOROOT(0)
?Subroutine18:
          CFI Block cfiCond47 Using cfiCommon0
          CFI Function zclGp_ManteinanceIndParse
          CFI Conditional ??CrossCallReturnLabel_16
          CFI R6 load(1, XDATA, add(CFA_XSP16, literal(-15)))
          CFI VB load(1, XDATA, add(CFA_XSP16, literal(-14)))
          CFI V0 load(1, XDATA, add(CFA_XSP16, literal(-13)))
          CFI V1 load(1, XDATA, add(CFA_XSP16, literal(-12)))
          CFI V2 load(1, XDATA, add(CFA_XSP16, literal(-11)))
          CFI V3 load(1, XDATA, add(CFA_XSP16, literal(-10)))
          CFI V4 load(1, XDATA, add(CFA_XSP16, literal(-9)))
          CFI V5 load(1, XDATA, add(CFA_XSP16, literal(-8)))
          CFI V6 load(1, XDATA, add(CFA_XSP16, literal(-7)))
          CFI R7 load(1, XDATA, add(CFA_XSP16, literal(-6)))
          CFI ?RET_LOW load(1, XDATA, add(CFA_XSP16, literal(-5)))
          CFI ?RET_HIGH load(1, XDATA, add(CFA_XSP16, literal(-4)))
          CFI ?BRET_EXT load(1, XDATA, add(CFA_XSP16, literal(-3)))
          CFI DPL0 load(1, XDATA, add(CFA_XSP16, literal(-2)))
          CFI DPH0 load(1, XDATA, add(CFA_XSP16, literal(-1)))
          CFI CFA_SP SP+-2
          CFI CFA_XSP16 add(XSP16, 82)
          CFI Block cfiCond48 Using cfiCommon0
          CFI (cfiCond48) Function zclGp_DataIndParse
          CFI (cfiCond48) Conditional ??CrossCallReturnLabel_17
          CFI (cfiCond48) R6 load(1, XDATA, add(CFA_XSP16, literal(-22)))
          CFI (cfiCond48) VB load(1, XDATA, add(CFA_XSP16, literal(-21)))
          CFI (cfiCond48) V0 load(1, XDATA, add(CFA_XSP16, literal(-20)))
          CFI (cfiCond48) V1 load(1, XDATA, add(CFA_XSP16, literal(-19)))
          CFI (cfiCond48) V2 load(1, XDATA, add(CFA_XSP16, literal(-18)))
          CFI (cfiCond48) V3 load(1, XDATA, add(CFA_XSP16, literal(-17)))
          CFI (cfiCond48) V4 load(1, XDATA, add(CFA_XSP16, literal(-16)))
          CFI (cfiCond48) V5 load(1, XDATA, add(CFA_XSP16, literal(-15)))
          CFI (cfiCond48) V6 load(1, XDATA, add(CFA_XSP16, literal(-14)))
          CFI (cfiCond48) V7 load(1, XDATA, add(CFA_XSP16, literal(-13)))
          CFI (cfiCond48) V8 load(1, XDATA, add(CFA_XSP16, literal(-12)))
          CFI (cfiCond48) V9 load(1, XDATA, add(CFA_XSP16, literal(-11)))
          CFI (cfiCond48) V10 load(1, XDATA, add(CFA_XSP16, literal(-10)))
          CFI (cfiCond48) V11 load(1, XDATA, add(CFA_XSP16, literal(-9)))
          CFI (cfiCond48) V12 load(1, XDATA, add(CFA_XSP16, literal(-8)))
          CFI (cfiCond48) V13 load(1, XDATA, add(CFA_XSP16, literal(-7)))
          CFI (cfiCond48) R7 load(1, XDATA, add(CFA_XSP16, literal(-6)))
          CFI (cfiCond48) ?RET_LOW load(1, XDATA, add(CFA_XSP16, literal(-5)))
          CFI (cfiCond48) ?RET_HIGH load(1, XDATA, add(CFA_XSP16, literal(-4)))
          CFI (cfiCond48) ?BRET_EXT load(1, XDATA, add(CFA_XSP16, literal(-3)))
          CFI (cfiCond48) DPL0 load(1, XDATA, add(CFA_XSP16, literal(-2)))
          CFI (cfiCond48) DPH0 load(1, XDATA, add(CFA_XSP16, literal(-1)))
          CFI (cfiCond48) CFA_SP SP+-2
          CFI (cfiCond48) CFA_XSP16 add(XSP16, 87)
          CFI Block cfiPicker49 Using cfiCommon1
          CFI (cfiPicker49) NoFunction
          CFI (cfiPicker49) Picker
        MOV       DPH,A
        MOVX      A,@DPTR
        MOV       R0,A
        CLR       C
        SUBB      A,#0x9
        MOV       C,0xD0 /* PSW */.2
        XRL       A,PSW
        RLC       A
        RET
          CFI EndBlock cfiCond47
          CFI EndBlock cfiCond48
          CFI EndBlock cfiPicker49

        RSEG XDATA_ROM_C:CONST:REORDER:NOROOT(0)
        DATA8
`?<Constant {0}>`:
        DB 0
        DB 0, 0, 0, 0, 0

        RSEG BANKED_CODE:HUGECODE:NOROOT(0)
?Subroutine2:
          CFI Block cfiBlock50 Using cfiCommon0
          CFI NoFunction
          CFI CFA_SP SP+0
          CFI CFA_XSP16 add(XSP16, 98)
          CFI VB load(1, XDATA, add(CFA_XSP16, literal(-21)))
          CFI DPL0 load(1, XDATA, add(CFA_XSP16, literal(-2)))
          CFI DPH0 load(1, XDATA, add(CFA_XSP16, literal(-1)))
          CFI R6 load(1, XDATA, add(CFA_XSP16, literal(-22)))
          CFI R7 load(1, XDATA, add(CFA_XSP16, literal(-6)))
          CFI V0 load(1, XDATA, add(CFA_XSP16, literal(-20)))
          CFI V1 load(1, XDATA, add(CFA_XSP16, literal(-19)))
          CFI V2 load(1, XDATA, add(CFA_XSP16, literal(-18)))
          CFI V3 load(1, XDATA, add(CFA_XSP16, literal(-17)))
          CFI V4 load(1, XDATA, add(CFA_XSP16, literal(-16)))
          CFI V5 load(1, XDATA, add(CFA_XSP16, literal(-15)))
          CFI V6 load(1, XDATA, add(CFA_XSP16, literal(-14)))
          CFI V7 load(1, XDATA, add(CFA_XSP16, literal(-13)))
          CFI V8 load(1, XDATA, add(CFA_XSP16, literal(-12)))
          CFI V9 load(1, XDATA, add(CFA_XSP16, literal(-11)))
          CFI V10 load(1, XDATA, add(CFA_XSP16, literal(-10)))
          CFI V11 load(1, XDATA, add(CFA_XSP16, literal(-9)))
          CFI V12 load(1, XDATA, add(CFA_XSP16, literal(-8)))
          CFI V13 load(1, XDATA, add(CFA_XSP16, literal(-7)))
          CFI ?BRET_EXT load(1, XDATA, add(CFA_XSP16, literal(-3)))
          CFI ?RET_HIGH load(1, XDATA, add(CFA_XSP16, literal(-4)))
          CFI ?RET_LOW load(1, XDATA, add(CFA_XSP16, literal(-5)))
        MOV       A,#0x4c
          CFI EndBlock cfiBlock50
        REQUIRE ??Subroutine38_0
        ; // Fall through to label ??Subroutine38_0

        RSEG BANKED_CODE:HUGECODE:NOROOT(0)
??Subroutine38_0:
          CFI Block cfiBlock51 Using cfiCommon0
          CFI NoFunction
          CFI CFA_SP SP+0
          CFI CFA_XSP16 add(XSP16, 87)
          CFI VB load(1, XDATA, add(CFA_XSP16, literal(-21)))
          CFI DPL0 load(1, XDATA, add(CFA_XSP16, literal(-2)))
          CFI DPH0 load(1, XDATA, add(CFA_XSP16, literal(-1)))
          CFI R6 load(1, XDATA, add(CFA_XSP16, literal(-22)))
          CFI R7 load(1, XDATA, add(CFA_XSP16, literal(-6)))
          CFI V0 load(1, XDATA, add(CFA_XSP16, literal(-20)))
          CFI V1 load(1, XDATA, add(CFA_XSP16, literal(-19)))
          CFI V2 load(1, XDATA, add(CFA_XSP16, literal(-18)))
          CFI V3 load(1, XDATA, add(CFA_XSP16, literal(-17)))
          CFI V4 load(1, XDATA, add(CFA_XSP16, literal(-16)))
          CFI V5 load(1, XDATA, add(CFA_XSP16, literal(-15)))
          CFI V6 load(1, XDATA, add(CFA_XSP16, literal(-14)))
          CFI V7 load(1, XDATA, add(CFA_XSP16, literal(-13)))
          CFI V8 load(1, XDATA, add(CFA_XSP16, literal(-12)))
          CFI V9 load(1, XDATA, add(CFA_XSP16, literal(-11)))
          CFI V10 load(1, XDATA, add(CFA_XSP16, literal(-10)))
          CFI V11 load(1, XDATA, add(CFA_XSP16, literal(-9)))
          CFI V12 load(1, XDATA, add(CFA_XSP16, literal(-8)))
          CFI V13 load(1, XDATA, add(CFA_XSP16, literal(-7)))
          CFI ?BRET_EXT load(1, XDATA, add(CFA_XSP16, literal(-3)))
          CFI ?RET_HIGH load(1, XDATA, add(CFA_XSP16, literal(-4)))
          CFI ?RET_LOW load(1, XDATA, add(CFA_XSP16, literal(-5)))
          CFI Invalid
        LCALL     ?DEALLOC_XSTACK8
          CFI CFA_XSP16 add(XSP16, 22)
          CFI Valid
        MOV       R7,#0xe
        LJMP      ?BANKED_LEAVE_XDATA
          CFI EndBlock cfiBlock51
//  582 
//  583 /*********************************************************************
//  584  * @fn      zclGp_GpPairingCommandCB
//  585  *
//  586  * @brief   Callback from the ZCL GreenPower Cluster Library when
//  587  *          it received an Gp Notification Command for this application.
//  588  *
//  589  * @param   pCmd - command payload
//  590  *
//  591  * @return  none
//  592  */

        RSEG BANKED_CODE:HUGECODE:NOROOT(0)
//  593 static void zclGp_GpPairingCommandCB( zclGpPairing_t *pCmd )
zclGp_GpPairingCommandCB:
          CFI Block cfiBlock52 Using cfiCommon0
          CFI Function zclGp_GpPairingCommandCB
        CODE
//  594 {
        FUNCALL zclGp_GpPairingCommandCB, gp_ZclPairingParse
        LOCFRAME ISTACK, 2, STACK
        LOCFRAME PSTACK, 0, STACK
        LOCFRAME XSTACK, 53, STACK
        LOCFRAME IOVERLAY, 0, STATIC
        LOCFRAME DOVERLAY, 0, STATIC
        ARGFRAME ISTACK, 2, STACK
        ARGFRAME PSTACK, 0, STACK
        ARGFRAME XSTACK, 53, STACK
        ARGFRAME IOVERLAY, 0, STATIC
        ARGFRAME DOVERLAY, 0, STATIC
        FUNCALL zclGp_GpPairingCommandCB, gp_PairingUpdateProxyTlb
        LOCFRAME ISTACK, 2, STACK
        LOCFRAME PSTACK, 0, STACK
        LOCFRAME XSTACK, 53, STACK
        LOCFRAME IOVERLAY, 0, STATIC
        LOCFRAME DOVERLAY, 0, STATIC
        ARGFRAME ISTACK, 2, STACK
        ARGFRAME PSTACK, 0, STACK
        ARGFRAME XSTACK, 53, STACK
        ARGFRAME IOVERLAY, 0, STATIC
        ARGFRAME DOVERLAY, 0, STATIC
        FUNCALL zclGp_GpPairingCommandCB, gp_stopCommissioningMode
        LOCFRAME ISTACK, 2, STACK
        LOCFRAME PSTACK, 0, STACK
        LOCFRAME XSTACK, 53, STACK
        LOCFRAME IOVERLAY, 0, STATIC
        LOCFRAME DOVERLAY, 0, STATIC
        ARGFRAME ISTACK, 2, STACK
        ARGFRAME PSTACK, 0, STACK
        ARGFRAME XSTACK, 53, STACK
        ARGFRAME IOVERLAY, 0, STATIC
        ARGFRAME DOVERLAY, 0, STATIC
        PUSH      DPL
          CFI DPL0 Frame(CFA_SP, 4)
          CFI CFA_SP SP+-4
        PUSH      DPH
          CFI DPH0 Frame(CFA_SP, 5)
          CFI CFA_SP SP+-5
        ; Saved register size: 2
        ; Auto size: 53
        MOV       A,#-0x35
        LCALL     ?ALLOC_XSTACK8
          CFI CFA_XSP16 add(XSP16, 53)
//  595   gpPairingCmd_t pairingPayload = {0x00};
        MOV       DPTR,#`?<Constant {0, 0, {0, 0, 0, 0, 0, 0, 0, 0}, 0,`
        MOV       R4,?XSP + 0
        MOV       R5,?XSP + 1
        MOV       A,#0x35
        LCALL     ?MOVE_LONG8_XDATA_XDATA
//  596 
//  597   gp_ZclPairingParse( pCmd, &pairingPayload );
        ; Setup parameters for call to function gp_ZclPairingParse
        MOV       R4,?XSP + 0
        MOV       R5,?XSP + 1
        LCALL     `??gp_ZclPairingParse::?relay`; Banked call to: gp_ZclPairingParse
//  598   gp_PairingUpdateProxyTlb( &pairingPayload );
        ; Setup parameters for call to function gp_PairingUpdateProxyTlb
        MOV       R2,?XSP + 0
        MOV       R3,?XSP + 1
        LCALL     `??gp_PairingUpdateProxyTlb::?relay`; Banked call to: gp_PairingUpdateProxyTlb
//  599   
//  600   
//  601   if(gp_commissioningOptions & GP_COMM_OPT_EXIT_ON_PAIRING_SUCCESS_MASK)
        MOV       DPTR,#gp_commissioningOptions
        MOVX      A,@DPTR
        MOV       C,0xE0 /* A   */.2
        JNC       ??zclGp_GpPairingCommandCB_0
//  602   {
//  603     gp_stopCommissioningMode();
        ; Setup parameters for call to function gp_stopCommissioningMode
        LCALL     `??gp_stopCommissioningMode::?relay`; Banked call to: gp_stopCommissioningMode
//  604   }
//  605 }
??zclGp_GpPairingCommandCB_0:
        MOV       A,#0x35
        LJMP      ?Subroutine0 & 0xFFFF
          CFI EndBlock cfiBlock52
//  606 
//  607 /*********************************************************************
//  608  * @fn      zclGp_GpProxyTableReqCB
//  609  *
//  610  * @brief   Callback from the ZCL GreenPower Cluster Library when
//  611  *          it received a Gp proxy table req.
//  612  *
//  613  * @param   pCmd - command payload
//  614  *
//  615  * @return  none
//  616  */

        RSEG BANKED_CODE:HUGECODE:NOROOT(0)
//  617 static void zclGp_GpProxyTableReqCB( zclGpProxyTableRequest_t *pCmd )
zclGp_GpProxyTableReqCB:
          CFI Block cfiBlock53 Using cfiCommon0
          CFI Function zclGp_GpProxyTableReqCB
        CODE
//  618 {
        FUNCALL zclGp_GpProxyTableReqCB, gp_ResetProxyBasicTblEntry
        LOCFRAME ISTACK, 0, STACK
        LOCFRAME PSTACK, 0, STACK
        LOCFRAME XSTACK, 178, STACK
        LOCFRAME IOVERLAY, 0, STATIC
        LOCFRAME DOVERLAY, 0, STATIC
        ARGFRAME ISTACK, 0, STACK
        ARGFRAME PSTACK, 0, STACK
        ARGFRAME XSTACK, 178, STACK
        ARGFRAME IOVERLAY, 0, STATIC
        ARGFRAME DOVERLAY, 0, STATIC
        FUNCALL zclGp_GpProxyTableReqCB, gp_ZclProxyTableReqParse
        LOCFRAME ISTACK, 0, STACK
        LOCFRAME PSTACK, 0, STACK
        LOCFRAME XSTACK, 178, STACK
        LOCFRAME IOVERLAY, 0, STATIC
        LOCFRAME DOVERLAY, 0, STATIC
        ARGFRAME ISTACK, 0, STACK
        ARGFRAME PSTACK, 0, STACK
        ARGFRAME XSTACK, 178, STACK
        ARGFRAME IOVERLAY, 0, STATIC
        ARGFRAME DOVERLAY, 0, STATIC
        FUNCALL zclGp_GpProxyTableReqCB, gp_getProxyTableByIndex
        LOCFRAME ISTACK, 0, STACK
        LOCFRAME PSTACK, 0, STACK
        LOCFRAME XSTACK, 178, STACK
        LOCFRAME IOVERLAY, 0, STATIC
        LOCFRAME DOVERLAY, 0, STATIC
        ARGFRAME ISTACK, 0, STACK
        ARGFRAME PSTACK, 0, STACK
        ARGFRAME XSTACK, 178, STACK
        ARGFRAME IOVERLAY, 0, STATIC
        ARGFRAME DOVERLAY, 0, STATIC
        FUNCALL zclGp_GpProxyTableReqCB, zclGp_SendGpProxyTableResponse
        LOCFRAME ISTACK, 0, STACK
        LOCFRAME PSTACK, 0, STACK
        LOCFRAME XSTACK, 178, STACK
        LOCFRAME IOVERLAY, 0, STATIC
        LOCFRAME DOVERLAY, 0, STATIC
        ARGFRAME ISTACK, 0, STACK
        ARGFRAME PSTACK, 0, STACK
        ARGFRAME XSTACK, 178, STACK
        ARGFRAME IOVERLAY, 0, STATIC
        ARGFRAME DOVERLAY, 0, STATIC
        FUNCALL zclGp_GpProxyTableReqCB, pt_ZclReadGetProxyEntry
        LOCFRAME ISTACK, 0, STACK
        LOCFRAME PSTACK, 0, STACK
        LOCFRAME XSTACK, 180, STACK
        LOCFRAME IOVERLAY, 0, STATIC
        LOCFRAME DOVERLAY, 0, STATIC
        ARGFRAME ISTACK, 0, STACK
        ARGFRAME PSTACK, 0, STACK
        ARGFRAME XSTACK, 180, STACK
        ARGFRAME IOVERLAY, 0, STATIC
        ARGFRAME DOVERLAY, 0, STATIC
        FUNCALL zclGp_GpProxyTableReqCB, osal_mem_alloc
        LOCFRAME ISTACK, 0, STACK
        LOCFRAME PSTACK, 0, STACK
        LOCFRAME XSTACK, 178, STACK
        LOCFRAME IOVERLAY, 0, STATIC
        LOCFRAME DOVERLAY, 0, STATIC
        ARGFRAME ISTACK, 0, STACK
        ARGFRAME PSTACK, 0, STACK
        ARGFRAME XSTACK, 178, STACK
        ARGFRAME IOVERLAY, 0, STATIC
        ARGFRAME DOVERLAY, 0, STATIC
        FUNCALL zclGp_GpProxyTableReqCB, pt_ZclReadGetProxyEntry
        LOCFRAME ISTACK, 0, STACK
        LOCFRAME PSTACK, 0, STACK
        LOCFRAME XSTACK, 180, STACK
        LOCFRAME IOVERLAY, 0, STATIC
        LOCFRAME DOVERLAY, 0, STATIC
        ARGFRAME ISTACK, 0, STACK
        ARGFRAME PSTACK, 0, STACK
        ARGFRAME XSTACK, 180, STACK
        ARGFRAME IOVERLAY, 0, STATIC
        ARGFRAME DOVERLAY, 0, STATIC
        FUNCALL zclGp_GpProxyTableReqCB, osal_memcpy
        LOCFRAME ISTACK, 0, STACK
        LOCFRAME PSTACK, 0, STACK
        LOCFRAME XSTACK, 181, STACK
        LOCFRAME IOVERLAY, 0, STATIC
        LOCFRAME DOVERLAY, 0, STATIC
        ARGFRAME ISTACK, 0, STACK
        ARGFRAME PSTACK, 0, STACK
        ARGFRAME XSTACK, 181, STACK
        ARGFRAME IOVERLAY, 0, STATIC
        ARGFRAME DOVERLAY, 0, STATIC
        FUNCALL zclGp_GpProxyTableReqCB, gp_getProxyTableByGpId
        LOCFRAME ISTACK, 0, STACK
        LOCFRAME PSTACK, 0, STACK
        LOCFRAME XSTACK, 180, STACK
        LOCFRAME IOVERLAY, 0, STATIC
        LOCFRAME DOVERLAY, 0, STATIC
        ARGFRAME ISTACK, 0, STACK
        ARGFRAME PSTACK, 0, STACK
        ARGFRAME XSTACK, 180, STACK
        ARGFRAME IOVERLAY, 0, STATIC
        ARGFRAME DOVERLAY, 0, STATIC
        FUNCALL zclGp_GpProxyTableReqCB, pt_ZclReadGetProxyEntry
        LOCFRAME ISTACK, 0, STACK
        LOCFRAME PSTACK, 0, STACK
        LOCFRAME XSTACK, 180, STACK
        LOCFRAME IOVERLAY, 0, STATIC
        LOCFRAME DOVERLAY, 0, STATIC
        ARGFRAME ISTACK, 0, STACK
        ARGFRAME PSTACK, 0, STACK
        ARGFRAME XSTACK, 180, STACK
        ARGFRAME IOVERLAY, 0, STATIC
        ARGFRAME DOVERLAY, 0, STATIC
        FUNCALL zclGp_GpProxyTableReqCB, osal_mem_alloc
        LOCFRAME ISTACK, 0, STACK
        LOCFRAME PSTACK, 0, STACK
        LOCFRAME XSTACK, 178, STACK
        LOCFRAME IOVERLAY, 0, STATIC
        LOCFRAME DOVERLAY, 0, STATIC
        ARGFRAME ISTACK, 0, STACK
        ARGFRAME PSTACK, 0, STACK
        ARGFRAME XSTACK, 178, STACK
        ARGFRAME IOVERLAY, 0, STATIC
        ARGFRAME DOVERLAY, 0, STATIC
        FUNCALL zclGp_GpProxyTableReqCB, pt_ZclReadGetProxyEntry
        LOCFRAME ISTACK, 0, STACK
        LOCFRAME PSTACK, 0, STACK
        LOCFRAME XSTACK, 180, STACK
        LOCFRAME IOVERLAY, 0, STATIC
        LOCFRAME DOVERLAY, 0, STATIC
        ARGFRAME ISTACK, 0, STACK
        ARGFRAME PSTACK, 0, STACK
        ARGFRAME XSTACK, 180, STACK
        ARGFRAME IOVERLAY, 0, STATIC
        ARGFRAME DOVERLAY, 0, STATIC
        FUNCALL zclGp_GpProxyTableReqCB, zclGp_SendGpProxyTableResponse
        LOCFRAME ISTACK, 0, STACK
        LOCFRAME PSTACK, 0, STACK
        LOCFRAME XSTACK, 178, STACK
        LOCFRAME IOVERLAY, 0, STATIC
        LOCFRAME DOVERLAY, 0, STATIC
        ARGFRAME ISTACK, 0, STACK
        ARGFRAME PSTACK, 0, STACK
        ARGFRAME XSTACK, 178, STACK
        ARGFRAME IOVERLAY, 0, STATIC
        ARGFRAME DOVERLAY, 0, STATIC
        FUNCALL zclGp_GpProxyTableReqCB, osal_mem_free
        LOCFRAME ISTACK, 0, STACK
        LOCFRAME PSTACK, 0, STACK
        LOCFRAME XSTACK, 178, STACK
        LOCFRAME IOVERLAY, 0, STATIC
        LOCFRAME DOVERLAY, 0, STATIC
        ARGFRAME ISTACK, 0, STACK
        ARGFRAME PSTACK, 0, STACK
        ARGFRAME XSTACK, 178, STACK
        ARGFRAME IOVERLAY, 0, STATIC
        ARGFRAME DOVERLAY, 0, STATIC
        REQUIRE ?V0
        REQUIRE ?V1
        REQUIRE ?V2
        REQUIRE ?V3
        REQUIRE ?V4
        REQUIRE ?V5
        REQUIRE ?V6
        MOV       A,#-0xf
        LCALL     ?BANKED_ENTER_XDATA
          CFI DPH0 load(1, XDATA, add(CFA_XSP16, literal(-1)))
          CFI DPL0 load(1, XDATA, add(CFA_XSP16, literal(-2)))
          CFI ?BRET_EXT load(1, XDATA, add(CFA_XSP16, literal(-3)))
          CFI ?RET_HIGH load(1, XDATA, add(CFA_XSP16, literal(-4)))
          CFI ?RET_LOW load(1, XDATA, add(CFA_XSP16, literal(-5)))
          CFI R7 load(1, XDATA, add(CFA_XSP16, literal(-6)))
          CFI V6 load(1, XDATA, add(CFA_XSP16, literal(-7)))
          CFI V5 load(1, XDATA, add(CFA_XSP16, literal(-8)))
          CFI V4 load(1, XDATA, add(CFA_XSP16, literal(-9)))
          CFI V3 load(1, XDATA, add(CFA_XSP16, literal(-10)))
          CFI V2 load(1, XDATA, add(CFA_XSP16, literal(-11)))
          CFI V1 load(1, XDATA, add(CFA_XSP16, literal(-12)))
          CFI V0 load(1, XDATA, add(CFA_XSP16, literal(-13)))
          CFI VB load(1, XDATA, add(CFA_XSP16, literal(-14)))
          CFI R6 load(1, XDATA, add(CFA_XSP16, literal(-15)))
          CFI CFA_SP SP+0
          CFI CFA_XSP16 add(XSP16, 15)
        ; Saved register size: 15
        ; Auto size: 163
        MOV       A,#0x5d
        LCALL     ?ALLOC_XSTACK8
          CFI CFA_XSP16 add(XSP16, 178)
        MOV       ?V2,R2
        MOV       ?V3,R3
//  619   uint8 i;
//  620   uint8 entryLen = 0;
        MOV       DPL,?XSP + 0
        MOV       DPH,?XSP + 1
        CLR       A
        MOVX      @DPTR,A
//  621   uint8 maxEntryLen = 0;
        MOV       R7,#0x0
//  622   uint8* buf = NULL;
        MOV       ?V0,A
        MOV       ?V1,A
//  623   uint8 currEntry[PROXY_TBL_ENTRY_LEN];
//  624   
//  625   
//  626   gp_ResetProxyBasicTblEntry(currEntry);
        ; Setup parameters for call to function gp_ResetProxyBasicTblEntry
        MOV       A,#0x62
        LCALL     ?XSTACK_DISP101_8
        LCALL     `??gp_ResetProxyBasicTblEntry::?relay`; Banked call to: gp_ResetProxyBasicTblEntry
//  627   zclGpProxyTableResponse_t proxyTblRsp = {0};
        MOV       DPTR,#`?<Constant {0}>`
        MOV       A,#0x1
        LCALL     ?XSTACK_DISP102_8
        MOV       A,#0x6
        LCALL     ?MOVE_LONG8_XDATA_XDATA
//  628   gpProxyTableReqCmd_t proxyTblReqPayload = {0};
        MOV       DPTR,#`?<Constant {0, 0, {0, 0, 0, 0, 0, 0, 0, 0}, 0,_1`
        MOV       A,#0x12
        LCALL     ?XSTACK_DISP102_8
        MOV       A,#0xf
        LCALL     ?MOVE_LONG8_XDATA_XDATA
//  629   
//  630   proxyTblRsp.proxyTableEntry = NULL;
        MOV       A,#0x5
        LCALL     ?XSTACK_DISP0_8
        CLR       A
        MOVX      @DPTR,A
        INC       DPTR
        MOVX      @DPTR,A
//  631   
//  632 
//  633   gp_ZclProxyTableReqParse( pCmd, &proxyTblReqPayload );
        ; Setup parameters for call to function gp_ZclProxyTableReqParse
        MOV       A,#0x12
        LCALL     ?XSTACK_DISP102_8
        MOV       R2,?V2
        MOV       R3,?V3
        LCALL     `??gp_ZclProxyTableReqParse::?relay`; Banked call to: gp_ZclProxyTableReqParse
//  634   
//  635   // To get total entries for "Total number of non-empty Proxy Table entries" field
//  636   for ( i = 0; i <= GPP_MAX_PROXY_TABLE_ENTRIES; i++ )
        MOV       R6,#0x0
//  637   {
//  638     if ( gp_getProxyTableByIndex( ( ZCD_NV_PROXY_TABLE_START + i ), currEntry ) == SUCCESS )
??zclGp_GpProxyTableReqCB_0:
        ; Setup parameters for call to function gp_getProxyTableByIndex
        MOV       A,#0x62
        LCALL     ?XSTACK_DISP102_8
        LCALL     ?Subroutine29 & 0xFFFF
??CrossCallReturnLabel_62:
        LCALL     `??gp_getProxyTableByIndex::?relay`; Banked call to: gp_getProxyTableByIndex
        MOV       A,R1
        JNZ       ??zclGp_GpProxyTableReqCB_1
//  639     {
//  640       proxyTblRsp.tableEntriesTotal += 1;
        MOV       A,#0x2
        LCALL     ?XSTACK_DISP0_8
        MOVX      A,@DPTR
        INC       A
        MOVX      @DPTR,A
//  641     }
//  642   }
??zclGp_GpProxyTableReqCB_1:
        INC       R6
        MOV       A,R6
        CLR       C
        SUBB      A,#0x6
        JC        ??zclGp_GpProxyTableReqCB_0
//  643   
//  644   // for Request Table Entries by Index
//  645   if ( GP_IS_REQ_TPY_INDEX ( proxyTblReqPayload.options ) )
        MOV       A,#0x12
        LCALL     ?XSTACK_DISP0_8
        LCALL     ?Subroutine22 & 0xFFFF
??CrossCallReturnLabel_22:
        XRL       A,#0x1
        JZ        $+5
        LJMP      ??zclGp_GpProxyTableReqCB_2 & 0xFFFF
//  646   {
//  647     if ( (proxyTblRsp.tableEntriesTotal == 0x00) || (proxyTblRsp.tableEntriesTotal < proxyTblReqPayload.index) )
        MOV       A,#0x2
        LCALL     ?XSTACK_DISP0_8
        MOVX      A,@DPTR
        MOV       R1,A
        JZ        ??zclGp_GpProxyTableReqCB_3
        MOV       A,#0x20
        LCALL     ?XSTACK_DISP0_8
        MOVX      A,@DPTR
        MOV       R0,A
        MOV       A,R1
        CLR       C
        SUBB      A,R0
        JNC       ??zclGp_GpProxyTableReqCB_4
//  648     {
//  649       proxyTblRsp.status = SUCCESS;
??zclGp_GpProxyTableReqCB_3:
        MOV       A,#0x1
        LCALL     ?XSTACK_DISP0_8
        CLR       A
        MOVX      @DPTR,A
//  650       proxyTblRsp.startIndex = proxyTblReqPayload.index;
        MOV       A,#0x20
        LCALL     ?XSTACK_DISP0_8
        MOVX      A,@DPTR
        PUSH      A
          CFI CFA_SP SP+-1
        MOV       A,#0x3
        LCALL     ?XSTACK_DISP0_8
        POP       A
          CFI CFA_SP SP+0
        MOVX      @DPTR,A
//  651       proxyTblRsp.entriesCount = 0x00;
        MOV       A,#0x4
        LCALL     ?XSTACK_DISP0_8
        CLR       A
        LCALL     ?Subroutine10 & 0xFFFF
//  652       // Send response and exit
//  653       zclGp_SendGpProxyTableResponse( pCmd->srcAddr, &proxyTblRsp, zcl_InSeqNum );
??CrossCallReturnLabel_6:
        LCALL     ?XSTACK_DISP102_8
        LCALL     ?Subroutine11 & 0xFFFF
??CrossCallReturnLabel_85:
        LCALL     `??zclGp_SendGpProxyTableResponse::?relay`; Banked call to: zclGp_SendGpProxyTableResponse
//  654       return;
        LJMP      ??zclGp_GpProxyTableReqCB_5 & 0xFFFF
//  655     }
//  656     for ( i = proxyTblReqPayload.index; i <= GPP_MAX_PROXY_TABLE_ENTRIES; i++ )
??zclGp_GpProxyTableReqCB_4:
        MOV       A,R0
        MOV       R6,A
        SJMP      ??zclGp_GpProxyTableReqCB_6
??zclGp_GpProxyTableReqCB_7:
        INC       R6
??zclGp_GpProxyTableReqCB_6:
        MOV       A,R6
        CLR       C
        SUBB      A,#0x6
        JNC       ??zclGp_GpProxyTableReqCB_8
//  657     {    
//  658       maxEntryLen = entryLen;    // Save the last iteration Lenght
        LCALL     ?Subroutine15 & 0xFFFF
//  659       
//  660       // Get the length of the payload
//  661       if ( pt_ZclReadGetProxyEntry ( ( ZCD_NV_PROXY_TABLE_START + i ), NULL, &entryLen ) != SUCCESS )
??CrossCallReturnLabel_10:
        LCALL     ?PUSH_XSTACK_I_TWO
          CFI CFA_XSP16 add(XSP16, 180)
        MOV       R4,#0x0
        MOV       R5,#0x0
        LCALL     ?Subroutine29 & 0xFFFF
??CrossCallReturnLabel_63:
        LCALL     `??pt_ZclReadGetProxyEntry::?relay`; Banked call to: pt_ZclReadGetProxyEntry
        MOV       A,#0x2
        LCALL     ?DEALLOC_XSTACK8
          CFI CFA_XSP16 add(XSP16, 178)
        MOV       A,R1
        JNZ       ??zclGp_GpProxyTableReqCB_8
//  662       {
//  663         break;
//  664       }
//  665       
//  666       if ( entryLen >= 75 )   // max payload for entries
        MOV       DPL,?XSP + 0
        MOV       DPH,?XSP + 1
        MOVX      A,@DPTR
        CLR       C
        SUBB      A,#0x4b
        JC        ??zclGp_GpProxyTableReqCB_7
//  667       {
//  668         entryLen = maxEntryLen;   // The last valid lenght is the MAX for this packet
        MOV       A,R7
        MOVX      @DPTR,A
//  669         break;
//  670       }
//  671     }
//  672 
//  673     if ( entryLen )
??zclGp_GpProxyTableReqCB_8:
        MOV       DPL,?XSP + 0
        MOV       DPH,?XSP + 1
        MOVX      A,@DPTR
        JZ        ??zclGp_GpProxyTableReqCB_2
//  674     {
//  675       buf = zcl_mem_alloc( entryLen );
        ; Setup parameters for call to function osal_mem_alloc
        MOV       R2,A
        MOV       R3,#0x0
        LCALL     `??osal_mem_alloc::?relay`; Banked call to: osal_mem_alloc
        MOV       ?V0,R2
        MOV       ?V1,R3
//  676       if ( buf != NULL )
        MOV       A,R2
        ORL       A,?V1
        JZ        ??zclGp_GpProxyTableReqCB_2
//  677       {
//  678         // Load the buffer - serially
//  679         uint8 *pBuf = buf;
//  680       
//  681         entryLen = 0;
        MOV       DPL,?XSP + 0
        MOV       DPH,?XSP + 1
        CLR       A
        MOVX      @DPTR,A
//  682         proxyTblRsp.entriesCount = 0;
        MOV       A,#0x4
        LCALL     ?XSTACK_DISP0_8
        CLR       A
        MOVX      @DPTR,A
//  683         for ( i = proxyTblReqPayload.index; i <= GPP_MAX_PROXY_TABLE_ENTRIES ; i++ )
        MOV       A,#0x20
        LCALL     ?XSTACK_DISP0_8
        MOVX      A,@DPTR
        MOV       R6,A
        SJMP      ??zclGp_GpProxyTableReqCB_9
??zclGp_GpProxyTableReqCB_10:
        INC       R6
??zclGp_GpProxyTableReqCB_9:
        MOV       A,R6
        CLR       C
        SUBB      A,#0x6
        JNC       ??zclGp_GpProxyTableReqCB_2
//  684         {  
//  685           if( pt_ZclReadGetProxyEntry ( ( ZCD_NV_PROXY_TABLE_START + i ), pBuf, &entryLen ) != SUCCESS )
        ; Setup parameters for call to function pt_ZclReadGetProxyEntry
        MOV       R0,?XSP + 0
        MOV       R1,?XSP + 1
        MOV       ?V4,R0
        MOV       ?V5,R1
        MOV       R0,#?V4
        LCALL     ?PUSH_XSTACK_I_TWO
          CFI CFA_XSP16 add(XSP16, 180)
        MOV       R4,?V0
        MOV       R5,?V1
        LCALL     ?Subroutine29 & 0xFFFF
??CrossCallReturnLabel_64:
        LCALL     `??pt_ZclReadGetProxyEntry::?relay`; Banked call to: pt_ZclReadGetProxyEntry
        MOV       A,#0x2
        LCALL     ?DEALLOC_XSTACK8
          CFI CFA_XSP16 add(XSP16, 178)
        MOV       A,R1
        JNZ       ??zclGp_GpProxyTableReqCB_2
//  686           {
//  687             break;
//  688           }
//  689           
//  690           proxyTblRsp.entriesCount += 1;
        MOV       A,#0x4
        LCALL     ?XSTACK_DISP0_8
        MOVX      A,@DPTR
        INC       A
        LCALL     ?Subroutine9 & 0xFFFF
//  691           if ( entryLen >= maxEntryLen )   // to see if we reched the MAX calculated payload
//  692           {
//  693             break;
//  694           }
//  695         }
//  696       }
//  697     }
//  698   }
??CrossCallReturnLabel_5:
        CLR       C
        SUBB      A,R7
        JC        ??zclGp_GpProxyTableReqCB_10
//  699   
//  700   // for Request Table Entries by GPD ID
//  701   if ( GP_IS_REQ_TYP_GPD ( proxyTblReqPayload.options ) )
??zclGp_GpProxyTableReqCB_2:
        MOV       A,#0x12
        LCALL     ?XSTACK_DISP0_8
        LCALL     ?Subroutine22 & 0xFFFF
??CrossCallReturnLabel_23:
        JZ        $+5
        LJMP      ??zclGp_GpProxyTableReqCB_11 & 0xFFFF
//  702   {
//  703     uint8 lookForEntry = 0;
//  704     gpd_ID_t gpd_ID;
//  705     uint16 NvProxyTableIndex;
//  706     uint8  ProxyTableEntryTemp[PROXY_TBL_ENTRY_LEN];
//  707     
//  708     if ( GP_IS_APPLICATION_ID_GPD( proxyTblReqPayload.options ) )
        MOVX      A,@DPTR
        ANL       A,#0x7
        MOV       R0,A
        JNZ       ??zclGp_GpProxyTableReqCB_12
//  709     {
//  710       gpd_ID.AppID = GP_OPT_APP_ID_GPD;
        MOV       A,#0x9
        LCALL     ?XSTACK_DISP0_8
        CLR       A
        MOVX      @DPTR,A
//  711       gpd_ID.GPDId.SrcID = proxyTblReqPayload.gpdId;
        MOV       A,#0x13
        LCALL     ?XSTACK_DISP0_8
        LCALL     ?XLOAD_R0123
        MOV       A,#0xa
        LCALL     ?XSTACK_DISP0_8
        LCALL     ?XSTORE_R0123
//  712       lookForEntry = 1;
//  713       proxyTblRsp.startIndex = 0xFF;
        SJMP      ??zclGp_GpProxyTableReqCB_13
//  714     }
//  715     else if ( GP_IS_APPLICATION_ID_IEEE( proxyTblReqPayload.options ) )
??zclGp_GpProxyTableReqCB_12:
        MOV       A,#0x2
        XRL       A,R0
        JZ        $+5
        LJMP      ??zclGp_GpProxyTableReqCB_11 & 0xFFFF
//  716     {
//  717       gpd_ID.AppID = GP_OPT_APP_ID_IEEE;
        MOV       A,#0x9
        LCALL     ?XSTACK_DISP0_8
        MOV       A,#0x2
        MOVX      @DPTR,A
//  718       osal_memcpy( gpd_ID.GPDId.GPDExtAddr, proxyTblReqPayload.gpdIEEE, Z_EXTADDR_LEN );
        ; Setup parameters for call to function osal_memcpy
        MOV       A,#0x17
        LCALL     ?XSTACK_DISP0_8
        MOV       R1,DPL
        MOV       R2,DPH
        MOV       ?V4,R1
        MOV       ?V5,R2
        MOV       ?V6,#0x0
        MOV       R0,#?V4
        LCALL     ?PUSH_XSTACK_I_THREE
          CFI CFA_XSP16 add(XSP16, 181)
        MOV       R4,#0x8
        MOV       R5,#0x0
        MOV       A,#0xd
        LCALL     ?XSTACK_DISP0_8
        MOV       R2,DPL
        MOV       R3,DPH
        LCALL     `??osal_memcpy::?relay`; Banked call to: osal_memcpy
        MOV       A,#0x3
        LCALL     ?DEALLOC_XSTACK8
          CFI CFA_XSP16 add(XSP16, 178)
//  719       lookForEntry = 1;
//  720       proxyTblRsp.startIndex = 0xFF;
??zclGp_GpProxyTableReqCB_13:
        MOV       A,#0x3
        LCALL     ?XSTACK_DISP0_8
        MOV       A,#-0x1
        MOVX      @DPTR,A
//  721     }
//  722     
//  723     if ( lookForEntry )
//  724     {
//  725       if ( gp_getProxyTableByGpId(&gpd_ID, ProxyTableEntryTemp, &NvProxyTableIndex) == ZSuccess )
        ; Setup parameters for call to function gp_getProxyTableByGpId
        MOV       A,#0x7
        LCALL     ?XSTACK_DISP100_8
        MOV       ?V4,R0
        MOV       ?V5,R1
        MOV       R0,#?V4
        LCALL     ?PUSH_XSTACK_I_TWO
          CFI CFA_XSP16 add(XSP16, 180)
        MOV       A,#0x23
        LCALL     ?XSTACK_DISP102_8
        MOV       A,#0xb
        LCALL     ?XSTACK_DISP101_8
        LCALL     `??gp_getProxyTableByGpId::?relay`; Banked call to: gp_getProxyTableByGpId
        MOV       A,#0x2
        LCALL     ?DEALLOC_XSTACK8
          CFI CFA_XSP16 add(XSP16, 178)
        MOV       A,R1
        JNZ       ??zclGp_GpProxyTableReqCB_14
//  726       {    
//  727         maxEntryLen = entryLen;    // Save the last iteration Lenght
        LCALL     ?Subroutine15 & 0xFFFF
//  728         
//  729         // Get the length of the payload
//  730         if ( pt_ZclReadGetProxyEntry ( NvProxyTableIndex, NULL, &entryLen ) != ZSuccess )
??CrossCallReturnLabel_11:
        LCALL     ?PUSH_XSTACK_I_TWO
          CFI CFA_XSP16 add(XSP16, 180)
        MOV       R4,#0x0
        MOV       R5,#0x0
        MOV       A,#0x9
        LCALL     ?XSTACK_DISP0_8
        LCALL     ??Subroutine41_0 & 0xFFFF
??CrossCallReturnLabel_77:
        LCALL     `??pt_ZclReadGetProxyEntry::?relay`; Banked call to: pt_ZclReadGetProxyEntry
        MOV       A,#0x2
        LCALL     ?DEALLOC_XSTACK8
          CFI CFA_XSP16 add(XSP16, 178)
        MOV       A,R1
        MOV       DPL,?XSP + 0
        MOV       DPH,?XSP + 1
        JZ        ??zclGp_GpProxyTableReqCB_15
//  731         {
//  732           entryLen = 0;
        CLR       A
        SJMP      ??zclGp_GpProxyTableReqCB_16
//  733         }
//  734       
//  735         if ( entryLen >= 75 )   // max payload for entries
??zclGp_GpProxyTableReqCB_15:
        MOVX      A,@DPTR
        CLR       C
        SUBB      A,#0x4b
        JC        ??zclGp_GpProxyTableReqCB_17
//  736         {
//  737           entryLen = maxEntryLen;   // The last valid lenght is the MAX for this packet
        MOV       A,R7
        SJMP      ??zclGp_GpProxyTableReqCB_18
//  738         }
//  739       }
//  740       else
//  741       {
//  742         proxyTblRsp.status = ZCL_STATUS_NOT_FOUND;
??zclGp_GpProxyTableReqCB_14:
        MOV       A,#0x1
        LCALL     ?XSTACK_DISP0_8
        MOV       A,#-0x75
??zclGp_GpProxyTableReqCB_18:
        MOVX      @DPTR,A
//  743       }
//  744       
//  745       if ( entryLen )
??zclGp_GpProxyTableReqCB_17:
        MOV       DPL,?XSP + 0
        MOV       DPH,?XSP + 1
        MOVX      A,@DPTR
        JZ        ??zclGp_GpProxyTableReqCB_11
//  746       {
//  747         buf = zcl_mem_alloc( entryLen );
        ; Setup parameters for call to function osal_mem_alloc
        MOV       R2,A
        MOV       R3,#0x0
        LCALL     `??osal_mem_alloc::?relay`; Banked call to: osal_mem_alloc
        MOV       ?V0,R2
        MOV       ?V1,R3
//  748         if ( buf != NULL )
        MOV       A,R2
        ORL       A,?V1
        JZ        ??zclGp_GpProxyTableReqCB_11
//  749         {
//  750           // Load the buffer - serially
//  751           uint8 *pBuf = buf;
//  752         
//  753           entryLen = 0;
        MOV       DPL,?XSP + 0
        MOV       DPH,?XSP + 1
        CLR       A
        MOVX      @DPTR,A
//  754           proxyTblRsp.entriesCount = 0;
        MOV       A,#0x4
        LCALL     ?XSTACK_DISP0_8
        CLR       A
        MOVX      @DPTR,A
//  755         
//  756           if ( pt_ZclReadGetProxyEntry ( NvProxyTableIndex, pBuf, &entryLen ) == SUCCESS )
        ; Setup parameters for call to function pt_ZclReadGetProxyEntry
        MOV       R0,?XSP + 0
        MOV       R1,?XSP + 1
        MOV       ?V4,R0
        MOV       ?V5,R1
        MOV       R0,#?V4
        LCALL     ?PUSH_XSTACK_I_TWO
          CFI CFA_XSP16 add(XSP16, 180)
        MOV       R4,?V0
        MOV       R5,?V1
        MOV       A,#0x9
        LCALL     ?XSTACK_DISP0_8
        LCALL     ??Subroutine41_0 & 0xFFFF
??CrossCallReturnLabel_78:
        LCALL     `??pt_ZclReadGetProxyEntry::?relay`; Banked call to: pt_ZclReadGetProxyEntry
        MOV       A,#0x2
        LCALL     ?DEALLOC_XSTACK8
          CFI CFA_XSP16 add(XSP16, 178)
        MOV       A,R1
        JNZ       ??zclGp_GpProxyTableReqCB_11
//  757           {
//  758             proxyTblRsp.entriesCount = 1;
        MOV       A,#0x4
        LCALL     ?XSTACK_DISP0_8
        MOV       A,#0x1
??zclGp_GpProxyTableReqCB_16:
        MOVX      @DPTR,A
//  759           }
//  760         }
//  761       }
//  762     }
//  763   }
//  764   
//  765   // Send response and exit
//  766   proxyTblRsp.startIndex = proxyTblReqPayload.index;
??zclGp_GpProxyTableReqCB_11:
        MOV       A,#0x20
        LCALL     ?XSTACK_DISP0_8
        MOVX      A,@DPTR
        PUSH      A
          CFI CFA_SP SP+-1
        MOV       A,#0x3
        LCALL     ?XSTACK_DISP0_8
        POP       A
          CFI CFA_SP SP+0
        MOVX      @DPTR,A
//  767   proxyTblRsp.proxyTableEntry = buf;
        MOV       A,#0x5
        LCALL     ?XSTACK_DISP0_8
        MOV       A,?V0
        MOVX      @DPTR,A
        INC       DPTR
        MOV       A,?V1
        LCALL     ?Subroutine10 & 0xFFFF
//  768   zclGp_SendGpProxyTableResponse( pCmd->srcAddr, &proxyTblRsp, zcl_InSeqNum );
??CrossCallReturnLabel_7:
        LCALL     ?XSTACK_DISP102_8
        LCALL     ?Subroutine11 & 0xFFFF
??CrossCallReturnLabel_86:
        LCALL     `??zclGp_SendGpProxyTableResponse::?relay`; Banked call to: zclGp_SendGpProxyTableResponse
//  769   zcl_mem_free( buf );
        ; Setup parameters for call to function osal_mem_free
        MOV       R2,?V0
        MOV       R3,?V1
        LCALL     `??osal_mem_free::?relay`; Banked call to: osal_mem_free
//  770 }
??zclGp_GpProxyTableReqCB_5:
        MOV       A,#-0x5d
        LJMP      ?Subroutine1 & 0xFFFF
          CFI EndBlock cfiBlock53

        RSEG BANKED_CODE:HUGECODE:NOROOT(0)
?Subroutine29:
          CFI Block cfiCond54 Using cfiCommon0
          CFI Function zclGp_GpProxyTableReqCB
          CFI Conditional ??CrossCallReturnLabel_62
          CFI R6 load(1, XDATA, add(CFA_XSP16, literal(-15)))
          CFI VB load(1, XDATA, add(CFA_XSP16, literal(-14)))
          CFI V0 load(1, XDATA, add(CFA_XSP16, literal(-13)))
          CFI V1 load(1, XDATA, add(CFA_XSP16, literal(-12)))
          CFI V2 load(1, XDATA, add(CFA_XSP16, literal(-11)))
          CFI V3 load(1, XDATA, add(CFA_XSP16, literal(-10)))
          CFI V4 load(1, XDATA, add(CFA_XSP16, literal(-9)))
          CFI V5 load(1, XDATA, add(CFA_XSP16, literal(-8)))
          CFI V6 load(1, XDATA, add(CFA_XSP16, literal(-7)))
          CFI R7 load(1, XDATA, add(CFA_XSP16, literal(-6)))
          CFI ?RET_LOW load(1, XDATA, add(CFA_XSP16, literal(-5)))
          CFI ?RET_HIGH load(1, XDATA, add(CFA_XSP16, literal(-4)))
          CFI ?BRET_EXT load(1, XDATA, add(CFA_XSP16, literal(-3)))
          CFI DPL0 load(1, XDATA, add(CFA_XSP16, literal(-2)))
          CFI DPH0 load(1, XDATA, add(CFA_XSP16, literal(-1)))
          CFI CFA_SP SP+-2
          CFI CFA_XSP16 add(XSP16, 178)
          CFI Block cfiCond55 Using cfiCommon0
          CFI (cfiCond55) Function zclGp_GpProxyTableReqCB
          CFI (cfiCond55) Conditional ??CrossCallReturnLabel_63
          CFI (cfiCond55) R6 load(1, XDATA, add(CFA_XSP16, literal(-15)))
          CFI (cfiCond55) VB load(1, XDATA, add(CFA_XSP16, literal(-14)))
          CFI (cfiCond55) V0 load(1, XDATA, add(CFA_XSP16, literal(-13)))
          CFI (cfiCond55) V1 load(1, XDATA, add(CFA_XSP16, literal(-12)))
          CFI (cfiCond55) V2 load(1, XDATA, add(CFA_XSP16, literal(-11)))
          CFI (cfiCond55) V3 load(1, XDATA, add(CFA_XSP16, literal(-10)))
          CFI (cfiCond55) V4 load(1, XDATA, add(CFA_XSP16, literal(-9)))
          CFI (cfiCond55) V5 load(1, XDATA, add(CFA_XSP16, literal(-8)))
          CFI (cfiCond55) V6 load(1, XDATA, add(CFA_XSP16, literal(-7)))
          CFI (cfiCond55) R7 load(1, XDATA, add(CFA_XSP16, literal(-6)))
          CFI (cfiCond55) ?RET_LOW load(1, XDATA, add(CFA_XSP16, literal(-5)))
          CFI (cfiCond55) ?RET_HIGH load(1, XDATA, add(CFA_XSP16, literal(-4)))
          CFI (cfiCond55) ?BRET_EXT load(1, XDATA, add(CFA_XSP16, literal(-3)))
          CFI (cfiCond55) DPL0 load(1, XDATA, add(CFA_XSP16, literal(-2)))
          CFI (cfiCond55) DPH0 load(1, XDATA, add(CFA_XSP16, literal(-1)))
          CFI (cfiCond55) CFA_SP SP+-2
          CFI (cfiCond55) CFA_XSP16 add(XSP16, 180)
          CFI Block cfiCond56 Using cfiCommon0
          CFI (cfiCond56) Function zclGp_GpProxyTableReqCB
          CFI (cfiCond56) Conditional ??CrossCallReturnLabel_64
          CFI (cfiCond56) R6 load(1, XDATA, add(CFA_XSP16, literal(-15)))
          CFI (cfiCond56) VB load(1, XDATA, add(CFA_XSP16, literal(-14)))
          CFI (cfiCond56) V0 load(1, XDATA, add(CFA_XSP16, literal(-13)))
          CFI (cfiCond56) V1 load(1, XDATA, add(CFA_XSP16, literal(-12)))
          CFI (cfiCond56) V2 load(1, XDATA, add(CFA_XSP16, literal(-11)))
          CFI (cfiCond56) V3 load(1, XDATA, add(CFA_XSP16, literal(-10)))
          CFI (cfiCond56) V4 load(1, XDATA, add(CFA_XSP16, literal(-9)))
          CFI (cfiCond56) V5 load(1, XDATA, add(CFA_XSP16, literal(-8)))
          CFI (cfiCond56) V6 load(1, XDATA, add(CFA_XSP16, literal(-7)))
          CFI (cfiCond56) R7 load(1, XDATA, add(CFA_XSP16, literal(-6)))
          CFI (cfiCond56) ?RET_LOW load(1, XDATA, add(CFA_XSP16, literal(-5)))
          CFI (cfiCond56) ?RET_HIGH load(1, XDATA, add(CFA_XSP16, literal(-4)))
          CFI (cfiCond56) ?BRET_EXT load(1, XDATA, add(CFA_XSP16, literal(-3)))
          CFI (cfiCond56) DPL0 load(1, XDATA, add(CFA_XSP16, literal(-2)))
          CFI (cfiCond56) DPH0 load(1, XDATA, add(CFA_XSP16, literal(-1)))
          CFI (cfiCond56) CFA_SP SP+-2
          CFI (cfiCond56) CFA_XSP16 add(XSP16, 180)
          CFI Block cfiCond57 Using cfiCommon0
          CFI (cfiCond57) Function gp_getProxyTableByGpId
          CFI (cfiCond57) Conditional ??CrossCallReturnLabel_65
          CFI (cfiCond57) R6 load(1, XDATA, add(CFA_XSP16, literal(-19)))
          CFI (cfiCond57) VB load(1, XDATA, add(CFA_XSP16, literal(-18)))
          CFI (cfiCond57) V0 load(1, XDATA, add(CFA_XSP16, literal(-17)))
          CFI (cfiCond57) V1 load(1, XDATA, add(CFA_XSP16, literal(-16)))
          CFI (cfiCond57) V2 load(1, XDATA, add(CFA_XSP16, literal(-15)))
          CFI (cfiCond57) V3 load(1, XDATA, add(CFA_XSP16, literal(-14)))
          CFI (cfiCond57) V4 load(1, XDATA, add(CFA_XSP16, literal(-13)))
          CFI (cfiCond57) V5 load(1, XDATA, add(CFA_XSP16, literal(-12)))
          CFI (cfiCond57) V6 load(1, XDATA, add(CFA_XSP16, literal(-11)))
          CFI (cfiCond57) V7 load(1, XDATA, add(CFA_XSP16, literal(-10)))
          CFI (cfiCond57) V8 load(1, XDATA, add(CFA_XSP16, literal(-9)))
          CFI (cfiCond57) V9 load(1, XDATA, add(CFA_XSP16, literal(-8)))
          CFI (cfiCond57) V10 load(1, XDATA, add(CFA_XSP16, literal(-7)))
          CFI (cfiCond57) R7 load(1, XDATA, add(CFA_XSP16, literal(-6)))
          CFI (cfiCond57) ?RET_LOW load(1, XDATA, add(CFA_XSP16, literal(-5)))
          CFI (cfiCond57) ?RET_HIGH load(1, XDATA, add(CFA_XSP16, literal(-4)))
          CFI (cfiCond57) ?BRET_EXT load(1, XDATA, add(CFA_XSP16, literal(-3)))
          CFI (cfiCond57) DPL0 load(1, XDATA, add(CFA_XSP16, literal(-2)))
          CFI (cfiCond57) DPH0 load(1, XDATA, add(CFA_XSP16, literal(-1)))
          CFI (cfiCond57) CFA_SP SP+-2
          CFI (cfiCond57) CFA_XSP16 add(XSP16, 19)
          CFI Block cfiPicker58 Using cfiCommon1
          CFI (cfiPicker58) NoFunction
          CFI (cfiPicker58) Picker
        MOV       A,R6
          CFI EndBlock cfiCond54
          CFI EndBlock cfiCond55
          CFI EndBlock cfiCond56
          CFI EndBlock cfiCond57
          CFI EndBlock cfiPicker58
        REQUIRE ??Subroutine39_0
        ; // Fall through to label ??Subroutine39_0

        RSEG BANKED_CODE:HUGECODE:NOROOT(0)
??Subroutine39_0:
          CFI Block cfiCond59 Using cfiCommon0
          CFI Function zclGp_DataIndParse
          CFI Conditional ??CrossCallReturnLabel_60
          CFI R6 load(1, XDATA, add(CFA_XSP16, literal(-22)))
          CFI VB load(1, XDATA, add(CFA_XSP16, literal(-21)))
          CFI V0 load(1, XDATA, add(CFA_XSP16, literal(-20)))
          CFI V1 load(1, XDATA, add(CFA_XSP16, literal(-19)))
          CFI V2 load(1, XDATA, add(CFA_XSP16, literal(-18)))
          CFI V3 load(1, XDATA, add(CFA_XSP16, literal(-17)))
          CFI V4 load(1, XDATA, add(CFA_XSP16, literal(-16)))
          CFI V5 load(1, XDATA, add(CFA_XSP16, literal(-15)))
          CFI V6 load(1, XDATA, add(CFA_XSP16, literal(-14)))
          CFI V7 load(1, XDATA, add(CFA_XSP16, literal(-13)))
          CFI V8 load(1, XDATA, add(CFA_XSP16, literal(-12)))
          CFI V9 load(1, XDATA, add(CFA_XSP16, literal(-11)))
          CFI V10 load(1, XDATA, add(CFA_XSP16, literal(-10)))
          CFI V11 load(1, XDATA, add(CFA_XSP16, literal(-9)))
          CFI V12 load(1, XDATA, add(CFA_XSP16, literal(-8)))
          CFI V13 load(1, XDATA, add(CFA_XSP16, literal(-7)))
          CFI R7 load(1, XDATA, add(CFA_XSP16, literal(-6)))
          CFI ?RET_LOW load(1, XDATA, add(CFA_XSP16, literal(-5)))
          CFI ?RET_HIGH load(1, XDATA, add(CFA_XSP16, literal(-4)))
          CFI ?BRET_EXT load(1, XDATA, add(CFA_XSP16, literal(-3)))
          CFI DPL0 load(1, XDATA, add(CFA_XSP16, literal(-2)))
          CFI DPH0 load(1, XDATA, add(CFA_XSP16, literal(-1)))
          CFI CFA_SP SP+-2
          CFI CFA_XSP16 add(XSP16, 87)
          CFI Block cfiCond60 Using cfiCommon0
          CFI (cfiCond60) Function gp_ZclPairingParse
          CFI (cfiCond60) Conditional ??CrossCallReturnLabel_61
          CFI (cfiCond60) R6 load(1, XDATA, add(CFA_XSP16, literal(-20)))
          CFI (cfiCond60) VB load(1, XDATA, add(CFA_XSP16, literal(-19)))
          CFI (cfiCond60) V0 load(1, XDATA, add(CFA_XSP16, literal(-18)))
          CFI (cfiCond60) V1 load(1, XDATA, add(CFA_XSP16, literal(-17)))
          CFI (cfiCond60) V2 load(1, XDATA, add(CFA_XSP16, literal(-16)))
          CFI (cfiCond60) V3 load(1, XDATA, add(CFA_XSP16, literal(-15)))
          CFI (cfiCond60) V4 load(1, XDATA, add(CFA_XSP16, literal(-14)))
          CFI (cfiCond60) V5 load(1, XDATA, add(CFA_XSP16, literal(-13)))
          CFI (cfiCond60) V6 load(1, XDATA, add(CFA_XSP16, literal(-12)))
          CFI (cfiCond60) V7 load(1, XDATA, add(CFA_XSP16, literal(-11)))
          CFI (cfiCond60) V8 load(1, XDATA, add(CFA_XSP16, literal(-10)))
          CFI (cfiCond60) V9 load(1, XDATA, add(CFA_XSP16, literal(-9)))
          CFI (cfiCond60) V10 load(1, XDATA, add(CFA_XSP16, literal(-8)))
          CFI (cfiCond60) V11 load(1, XDATA, add(CFA_XSP16, literal(-7)))
          CFI (cfiCond60) R7 load(1, XDATA, add(CFA_XSP16, literal(-6)))
          CFI (cfiCond60) ?RET_LOW load(1, XDATA, add(CFA_XSP16, literal(-5)))
          CFI (cfiCond60) ?RET_HIGH load(1, XDATA, add(CFA_XSP16, literal(-4)))
          CFI (cfiCond60) ?BRET_EXT load(1, XDATA, add(CFA_XSP16, literal(-3)))
          CFI (cfiCond60) DPL0 load(1, XDATA, add(CFA_XSP16, literal(-2)))
          CFI (cfiCond60) DPH0 load(1, XDATA, add(CFA_XSP16, literal(-1)))
          CFI (cfiCond60) CFA_SP SP+-2
          CFI (cfiCond60) CFA_XSP16 add(XSP16, 85)
          CFI Block cfiCond61 Using cfiCommon0
          CFI (cfiCond61) Function zclGp_GpProxyTableReqCB
          CFI (cfiCond61) Conditional ??CrossCallReturnLabel_62
          CFI (cfiCond61) R6 load(1, XDATA, add(CFA_XSP16, literal(-15)))
          CFI (cfiCond61) VB load(1, XDATA, add(CFA_XSP16, literal(-14)))
          CFI (cfiCond61) V0 load(1, XDATA, add(CFA_XSP16, literal(-13)))
          CFI (cfiCond61) V1 load(1, XDATA, add(CFA_XSP16, literal(-12)))
          CFI (cfiCond61) V2 load(1, XDATA, add(CFA_XSP16, literal(-11)))
          CFI (cfiCond61) V3 load(1, XDATA, add(CFA_XSP16, literal(-10)))
          CFI (cfiCond61) V4 load(1, XDATA, add(CFA_XSP16, literal(-9)))
          CFI (cfiCond61) V5 load(1, XDATA, add(CFA_XSP16, literal(-8)))
          CFI (cfiCond61) V6 load(1, XDATA, add(CFA_XSP16, literal(-7)))
          CFI (cfiCond61) R7 load(1, XDATA, add(CFA_XSP16, literal(-6)))
          CFI (cfiCond61) ?RET_LOW load(1, XDATA, add(CFA_XSP16, literal(-5)))
          CFI (cfiCond61) ?RET_HIGH load(1, XDATA, add(CFA_XSP16, literal(-4)))
          CFI (cfiCond61) ?BRET_EXT load(1, XDATA, add(CFA_XSP16, literal(-3)))
          CFI (cfiCond61) DPL0 load(1, XDATA, add(CFA_XSP16, literal(-2)))
          CFI (cfiCond61) DPH0 load(1, XDATA, add(CFA_XSP16, literal(-1)))
          CFI (cfiCond61) CFA_SP SP+-2
          CFI (cfiCond61) CFA_XSP16 add(XSP16, 178)
          CFI Block cfiCond62 Using cfiCommon0
          CFI (cfiCond62) Function zclGp_GpProxyTableReqCB
          CFI (cfiCond62) Conditional ??CrossCallReturnLabel_63
          CFI (cfiCond62) R6 load(1, XDATA, add(CFA_XSP16, literal(-15)))
          CFI (cfiCond62) VB load(1, XDATA, add(CFA_XSP16, literal(-14)))
          CFI (cfiCond62) V0 load(1, XDATA, add(CFA_XSP16, literal(-13)))
          CFI (cfiCond62) V1 load(1, XDATA, add(CFA_XSP16, literal(-12)))
          CFI (cfiCond62) V2 load(1, XDATA, add(CFA_XSP16, literal(-11)))
          CFI (cfiCond62) V3 load(1, XDATA, add(CFA_XSP16, literal(-10)))
          CFI (cfiCond62) V4 load(1, XDATA, add(CFA_XSP16, literal(-9)))
          CFI (cfiCond62) V5 load(1, XDATA, add(CFA_XSP16, literal(-8)))
          CFI (cfiCond62) V6 load(1, XDATA, add(CFA_XSP16, literal(-7)))
          CFI (cfiCond62) R7 load(1, XDATA, add(CFA_XSP16, literal(-6)))
          CFI (cfiCond62) ?RET_LOW load(1, XDATA, add(CFA_XSP16, literal(-5)))
          CFI (cfiCond62) ?RET_HIGH load(1, XDATA, add(CFA_XSP16, literal(-4)))
          CFI (cfiCond62) ?BRET_EXT load(1, XDATA, add(CFA_XSP16, literal(-3)))
          CFI (cfiCond62) DPL0 load(1, XDATA, add(CFA_XSP16, literal(-2)))
          CFI (cfiCond62) DPH0 load(1, XDATA, add(CFA_XSP16, literal(-1)))
          CFI (cfiCond62) CFA_SP SP+-2
          CFI (cfiCond62) CFA_XSP16 add(XSP16, 180)
          CFI Block cfiCond63 Using cfiCommon0
          CFI (cfiCond63) Function zclGp_GpProxyTableReqCB
          CFI (cfiCond63) Conditional ??CrossCallReturnLabel_64
          CFI (cfiCond63) R6 load(1, XDATA, add(CFA_XSP16, literal(-15)))
          CFI (cfiCond63) VB load(1, XDATA, add(CFA_XSP16, literal(-14)))
          CFI (cfiCond63) V0 load(1, XDATA, add(CFA_XSP16, literal(-13)))
          CFI (cfiCond63) V1 load(1, XDATA, add(CFA_XSP16, literal(-12)))
          CFI (cfiCond63) V2 load(1, XDATA, add(CFA_XSP16, literal(-11)))
          CFI (cfiCond63) V3 load(1, XDATA, add(CFA_XSP16, literal(-10)))
          CFI (cfiCond63) V4 load(1, XDATA, add(CFA_XSP16, literal(-9)))
          CFI (cfiCond63) V5 load(1, XDATA, add(CFA_XSP16, literal(-8)))
          CFI (cfiCond63) V6 load(1, XDATA, add(CFA_XSP16, literal(-7)))
          CFI (cfiCond63) R7 load(1, XDATA, add(CFA_XSP16, literal(-6)))
          CFI (cfiCond63) ?RET_LOW load(1, XDATA, add(CFA_XSP16, literal(-5)))
          CFI (cfiCond63) ?RET_HIGH load(1, XDATA, add(CFA_XSP16, literal(-4)))
          CFI (cfiCond63) ?BRET_EXT load(1, XDATA, add(CFA_XSP16, literal(-3)))
          CFI (cfiCond63) DPL0 load(1, XDATA, add(CFA_XSP16, literal(-2)))
          CFI (cfiCond63) DPH0 load(1, XDATA, add(CFA_XSP16, literal(-1)))
          CFI (cfiCond63) CFA_SP SP+-2
          CFI (cfiCond63) CFA_XSP16 add(XSP16, 180)
          CFI Block cfiCond64 Using cfiCommon0
          CFI (cfiCond64) Function gp_getProxyTableByGpId
          CFI (cfiCond64) Conditional ??CrossCallReturnLabel_65
          CFI (cfiCond64) R6 load(1, XDATA, add(CFA_XSP16, literal(-19)))
          CFI (cfiCond64) VB load(1, XDATA, add(CFA_XSP16, literal(-18)))
          CFI (cfiCond64) V0 load(1, XDATA, add(CFA_XSP16, literal(-17)))
          CFI (cfiCond64) V1 load(1, XDATA, add(CFA_XSP16, literal(-16)))
          CFI (cfiCond64) V2 load(1, XDATA, add(CFA_XSP16, literal(-15)))
          CFI (cfiCond64) V3 load(1, XDATA, add(CFA_XSP16, literal(-14)))
          CFI (cfiCond64) V4 load(1, XDATA, add(CFA_XSP16, literal(-13)))
          CFI (cfiCond64) V5 load(1, XDATA, add(CFA_XSP16, literal(-12)))
          CFI (cfiCond64) V6 load(1, XDATA, add(CFA_XSP16, literal(-11)))
          CFI (cfiCond64) V7 load(1, XDATA, add(CFA_XSP16, literal(-10)))
          CFI (cfiCond64) V8 load(1, XDATA, add(CFA_XSP16, literal(-9)))
          CFI (cfiCond64) V9 load(1, XDATA, add(CFA_XSP16, literal(-8)))
          CFI (cfiCond64) V10 load(1, XDATA, add(CFA_XSP16, literal(-7)))
          CFI (cfiCond64) R7 load(1, XDATA, add(CFA_XSP16, literal(-6)))
          CFI (cfiCond64) ?RET_LOW load(1, XDATA, add(CFA_XSP16, literal(-5)))
          CFI (cfiCond64) ?RET_HIGH load(1, XDATA, add(CFA_XSP16, literal(-4)))
          CFI (cfiCond64) ?BRET_EXT load(1, XDATA, add(CFA_XSP16, literal(-3)))
          CFI (cfiCond64) DPL0 load(1, XDATA, add(CFA_XSP16, literal(-2)))
          CFI (cfiCond64) DPH0 load(1, XDATA, add(CFA_XSP16, literal(-1)))
          CFI (cfiCond64) CFA_SP SP+-2
          CFI (cfiCond64) CFA_XSP16 add(XSP16, 19)
          CFI Block cfiPicker65 Using cfiCommon1
          CFI (cfiPicker65) NoFunction
          CFI (cfiPicker65) Picker
        ADD       A,#0x10
        MOV       R2,A
        CLR       A
        ADDC      A,#0x3
        MOV       R3,A
        RET
          CFI EndBlock cfiCond59
          CFI EndBlock cfiCond60
          CFI EndBlock cfiCond61
          CFI EndBlock cfiCond62
          CFI EndBlock cfiCond63
          CFI EndBlock cfiCond64
          CFI EndBlock cfiPicker65

        RSEG BANKED_CODE:HUGECODE:NOROOT(0)
?Subroutine22:
          CFI Block cfiCond66 Using cfiCommon0
          CFI Function zclGp_GpProxyTableReqCB
          CFI Conditional ??CrossCallReturnLabel_22
          CFI R6 load(1, XDATA, add(CFA_XSP16, literal(-15)))
          CFI VB load(1, XDATA, add(CFA_XSP16, literal(-14)))
          CFI V0 load(1, XDATA, add(CFA_XSP16, literal(-13)))
          CFI V1 load(1, XDATA, add(CFA_XSP16, literal(-12)))
          CFI V2 load(1, XDATA, add(CFA_XSP16, literal(-11)))
          CFI V3 load(1, XDATA, add(CFA_XSP16, literal(-10)))
          CFI V4 load(1, XDATA, add(CFA_XSP16, literal(-9)))
          CFI V5 load(1, XDATA, add(CFA_XSP16, literal(-8)))
          CFI V6 load(1, XDATA, add(CFA_XSP16, literal(-7)))
          CFI R7 load(1, XDATA, add(CFA_XSP16, literal(-6)))
          CFI ?RET_LOW load(1, XDATA, add(CFA_XSP16, literal(-5)))
          CFI ?RET_HIGH load(1, XDATA, add(CFA_XSP16, literal(-4)))
          CFI ?BRET_EXT load(1, XDATA, add(CFA_XSP16, literal(-3)))
          CFI DPL0 load(1, XDATA, add(CFA_XSP16, literal(-2)))
          CFI DPH0 load(1, XDATA, add(CFA_XSP16, literal(-1)))
          CFI CFA_SP SP+-2
          CFI CFA_XSP16 add(XSP16, 178)
          CFI Block cfiCond67 Using cfiCommon0
          CFI (cfiCond67) Function zclGp_GpProxyTableReqCB
          CFI (cfiCond67) Conditional ??CrossCallReturnLabel_23
          CFI (cfiCond67) R6 load(1, XDATA, add(CFA_XSP16, literal(-15)))
          CFI (cfiCond67) VB load(1, XDATA, add(CFA_XSP16, literal(-14)))
          CFI (cfiCond67) V0 load(1, XDATA, add(CFA_XSP16, literal(-13)))
          CFI (cfiCond67) V1 load(1, XDATA, add(CFA_XSP16, literal(-12)))
          CFI (cfiCond67) V2 load(1, XDATA, add(CFA_XSP16, literal(-11)))
          CFI (cfiCond67) V3 load(1, XDATA, add(CFA_XSP16, literal(-10)))
          CFI (cfiCond67) V4 load(1, XDATA, add(CFA_XSP16, literal(-9)))
          CFI (cfiCond67) V5 load(1, XDATA, add(CFA_XSP16, literal(-8)))
          CFI (cfiCond67) V6 load(1, XDATA, add(CFA_XSP16, literal(-7)))
          CFI (cfiCond67) R7 load(1, XDATA, add(CFA_XSP16, literal(-6)))
          CFI (cfiCond67) ?RET_LOW load(1, XDATA, add(CFA_XSP16, literal(-5)))
          CFI (cfiCond67) ?RET_HIGH load(1, XDATA, add(CFA_XSP16, literal(-4)))
          CFI (cfiCond67) ?BRET_EXT load(1, XDATA, add(CFA_XSP16, literal(-3)))
          CFI (cfiCond67) DPL0 load(1, XDATA, add(CFA_XSP16, literal(-2)))
          CFI (cfiCond67) DPH0 load(1, XDATA, add(CFA_XSP16, literal(-1)))
          CFI (cfiCond67) CFA_SP SP+-2
          CFI (cfiCond67) CFA_XSP16 add(XSP16, 178)
          CFI Block cfiPicker68 Using cfiCommon1
          CFI (cfiPicker68) NoFunction
          CFI (cfiPicker68) Picker
        MOVX      A,@DPTR
        RRC       A
        RRC       A
        RRC       A
        ANL       A,#0x1f
        ANL       A,#0x3
        RET
          CFI EndBlock cfiCond66
          CFI EndBlock cfiCond67
          CFI EndBlock cfiPicker68

        RSEG BANKED_CODE:HUGECODE:NOROOT(0)
?Subroutine15:
          CFI Block cfiCond69 Using cfiCommon0
          CFI Function zclGp_GpProxyTableReqCB
          CFI Conditional ??CrossCallReturnLabel_10
          CFI R6 load(1, XDATA, add(CFA_XSP16, literal(-15)))
          CFI VB load(1, XDATA, add(CFA_XSP16, literal(-14)))
          CFI V0 load(1, XDATA, add(CFA_XSP16, literal(-13)))
          CFI V1 load(1, XDATA, add(CFA_XSP16, literal(-12)))
          CFI V2 load(1, XDATA, add(CFA_XSP16, literal(-11)))
          CFI V3 load(1, XDATA, add(CFA_XSP16, literal(-10)))
          CFI V4 load(1, XDATA, add(CFA_XSP16, literal(-9)))
          CFI V5 load(1, XDATA, add(CFA_XSP16, literal(-8)))
          CFI V6 load(1, XDATA, add(CFA_XSP16, literal(-7)))
          CFI R7 load(1, XDATA, add(CFA_XSP16, literal(-6)))
          CFI ?RET_LOW load(1, XDATA, add(CFA_XSP16, literal(-5)))
          CFI ?RET_HIGH load(1, XDATA, add(CFA_XSP16, literal(-4)))
          CFI ?BRET_EXT load(1, XDATA, add(CFA_XSP16, literal(-3)))
          CFI DPL0 load(1, XDATA, add(CFA_XSP16, literal(-2)))
          CFI DPH0 load(1, XDATA, add(CFA_XSP16, literal(-1)))
          CFI CFA_SP SP+-2
          CFI CFA_XSP16 add(XSP16, 178)
          CFI Block cfiCond70 Using cfiCommon0
          CFI (cfiCond70) Function zclGp_GpProxyTableReqCB
          CFI (cfiCond70) Conditional ??CrossCallReturnLabel_11
          CFI (cfiCond70) R6 load(1, XDATA, add(CFA_XSP16, literal(-15)))
          CFI (cfiCond70) VB load(1, XDATA, add(CFA_XSP16, literal(-14)))
          CFI (cfiCond70) V0 load(1, XDATA, add(CFA_XSP16, literal(-13)))
          CFI (cfiCond70) V1 load(1, XDATA, add(CFA_XSP16, literal(-12)))
          CFI (cfiCond70) V2 load(1, XDATA, add(CFA_XSP16, literal(-11)))
          CFI (cfiCond70) V3 load(1, XDATA, add(CFA_XSP16, literal(-10)))
          CFI (cfiCond70) V4 load(1, XDATA, add(CFA_XSP16, literal(-9)))
          CFI (cfiCond70) V5 load(1, XDATA, add(CFA_XSP16, literal(-8)))
          CFI (cfiCond70) V6 load(1, XDATA, add(CFA_XSP16, literal(-7)))
          CFI (cfiCond70) R7 load(1, XDATA, add(CFA_XSP16, literal(-6)))
          CFI (cfiCond70) ?RET_LOW load(1, XDATA, add(CFA_XSP16, literal(-5)))
          CFI (cfiCond70) ?RET_HIGH load(1, XDATA, add(CFA_XSP16, literal(-4)))
          CFI (cfiCond70) ?BRET_EXT load(1, XDATA, add(CFA_XSP16, literal(-3)))
          CFI (cfiCond70) DPL0 load(1, XDATA, add(CFA_XSP16, literal(-2)))
          CFI (cfiCond70) DPH0 load(1, XDATA, add(CFA_XSP16, literal(-1)))
          CFI (cfiCond70) CFA_SP SP+-2
          CFI (cfiCond70) CFA_XSP16 add(XSP16, 178)
          CFI Block cfiPicker71 Using cfiCommon1
          CFI (cfiPicker71) NoFunction
          CFI (cfiPicker71) Picker
        MOV       DPL,?XSP + 0
        MOV       DPH,?XSP + 1
        MOVX      A,@DPTR
        MOV       R7,A
        ; Setup parameters for call to function pt_ZclReadGetProxyEntry
        ; Setup parameters for call to function pt_ZclReadGetProxyEntry
        MOV       R0,?XSP + 0
        MOV       R1,?XSP + 1
        MOV       ?V4,R0
        MOV       ?V5,R1
        MOV       R0,#?V4
        RET
          CFI EndBlock cfiCond69
          CFI EndBlock cfiCond70
          CFI EndBlock cfiPicker71

        RSEG BANKED_CODE:HUGECODE:NOROOT(0)
?Subroutine10:
          CFI Block cfiCond72 Using cfiCommon0
          CFI Function zclGp_GpProxyTableReqCB
          CFI Conditional ??CrossCallReturnLabel_6
          CFI R6 load(1, XDATA, add(CFA_XSP16, literal(-15)))
          CFI VB load(1, XDATA, add(CFA_XSP16, literal(-14)))
          CFI V0 load(1, XDATA, add(CFA_XSP16, literal(-13)))
          CFI V1 load(1, XDATA, add(CFA_XSP16, literal(-12)))
          CFI V2 load(1, XDATA, add(CFA_XSP16, literal(-11)))
          CFI V3 load(1, XDATA, add(CFA_XSP16, literal(-10)))
          CFI V4 load(1, XDATA, add(CFA_XSP16, literal(-9)))
          CFI V5 load(1, XDATA, add(CFA_XSP16, literal(-8)))
          CFI V6 load(1, XDATA, add(CFA_XSP16, literal(-7)))
          CFI R7 load(1, XDATA, add(CFA_XSP16, literal(-6)))
          CFI ?RET_LOW load(1, XDATA, add(CFA_XSP16, literal(-5)))
          CFI ?RET_HIGH load(1, XDATA, add(CFA_XSP16, literal(-4)))
          CFI ?BRET_EXT load(1, XDATA, add(CFA_XSP16, literal(-3)))
          CFI DPL0 load(1, XDATA, add(CFA_XSP16, literal(-2)))
          CFI DPH0 load(1, XDATA, add(CFA_XSP16, literal(-1)))
          CFI CFA_SP SP+-2
          CFI CFA_XSP16 add(XSP16, 178)
          CFI Block cfiCond73 Using cfiCommon0
          CFI (cfiCond73) Function zclGp_GpProxyTableReqCB
          CFI (cfiCond73) Conditional ??CrossCallReturnLabel_7
          CFI (cfiCond73) R6 load(1, XDATA, add(CFA_XSP16, literal(-15)))
          CFI (cfiCond73) VB load(1, XDATA, add(CFA_XSP16, literal(-14)))
          CFI (cfiCond73) V0 load(1, XDATA, add(CFA_XSP16, literal(-13)))
          CFI (cfiCond73) V1 load(1, XDATA, add(CFA_XSP16, literal(-12)))
          CFI (cfiCond73) V2 load(1, XDATA, add(CFA_XSP16, literal(-11)))
          CFI (cfiCond73) V3 load(1, XDATA, add(CFA_XSP16, literal(-10)))
          CFI (cfiCond73) V4 load(1, XDATA, add(CFA_XSP16, literal(-9)))
          CFI (cfiCond73) V5 load(1, XDATA, add(CFA_XSP16, literal(-8)))
          CFI (cfiCond73) V6 load(1, XDATA, add(CFA_XSP16, literal(-7)))
          CFI (cfiCond73) R7 load(1, XDATA, add(CFA_XSP16, literal(-6)))
          CFI (cfiCond73) ?RET_LOW load(1, XDATA, add(CFA_XSP16, literal(-5)))
          CFI (cfiCond73) ?RET_HIGH load(1, XDATA, add(CFA_XSP16, literal(-4)))
          CFI (cfiCond73) ?BRET_EXT load(1, XDATA, add(CFA_XSP16, literal(-3)))
          CFI (cfiCond73) DPL0 load(1, XDATA, add(CFA_XSP16, literal(-2)))
          CFI (cfiCond73) DPH0 load(1, XDATA, add(CFA_XSP16, literal(-1)))
          CFI (cfiCond73) CFA_SP SP+-2
          CFI (cfiCond73) CFA_XSP16 add(XSP16, 178)
          CFI Block cfiPicker74 Using cfiCommon1
          CFI (cfiPicker74) NoFunction
          CFI (cfiPicker74) Picker
        MOVX      @DPTR,A
        ; Setup parameters for call to function zclGp_SendGpProxyTableResponse
        ; Setup parameters for call to function zclGp_SendGpProxyTableResponse
        MOV       DPTR,#zcl_InSeqNum
        MOVX      A,@DPTR
        MOV       R1,A
        MOV       A,#0x1
        RET
          CFI EndBlock cfiCond72
          CFI EndBlock cfiCond73
          CFI EndBlock cfiPicker74

        RSEG BANKED_CODE:HUGECODE:NOROOT(0)
?Subroutine9:
          CFI Block cfiCond75 Using cfiCommon0
          CFI Function zclGp_ManteinanceIndParse
          CFI Conditional ??CrossCallReturnLabel_4
          CFI R6 load(1, XDATA, add(CFA_XSP16, literal(-15)))
          CFI VB load(1, XDATA, add(CFA_XSP16, literal(-14)))
          CFI V0 load(1, XDATA, add(CFA_XSP16, literal(-13)))
          CFI V1 load(1, XDATA, add(CFA_XSP16, literal(-12)))
          CFI V2 load(1, XDATA, add(CFA_XSP16, literal(-11)))
          CFI V3 load(1, XDATA, add(CFA_XSP16, literal(-10)))
          CFI V4 load(1, XDATA, add(CFA_XSP16, literal(-9)))
          CFI V5 load(1, XDATA, add(CFA_XSP16, literal(-8)))
          CFI V6 load(1, XDATA, add(CFA_XSP16, literal(-7)))
          CFI R7 load(1, XDATA, add(CFA_XSP16, literal(-6)))
          CFI ?RET_LOW load(1, XDATA, add(CFA_XSP16, literal(-5)))
          CFI ?RET_HIGH load(1, XDATA, add(CFA_XSP16, literal(-4)))
          CFI ?BRET_EXT load(1, XDATA, add(CFA_XSP16, literal(-3)))
          CFI DPL0 load(1, XDATA, add(CFA_XSP16, literal(-2)))
          CFI DPH0 load(1, XDATA, add(CFA_XSP16, literal(-1)))
          CFI CFA_SP SP+-2
          CFI CFA_XSP16 add(XSP16, 82)
          CFI Block cfiCond76 Using cfiCommon0
          CFI (cfiCond76) Function zclGp_GpProxyTableReqCB
          CFI (cfiCond76) Conditional ??CrossCallReturnLabel_5
          CFI (cfiCond76) R6 load(1, XDATA, add(CFA_XSP16, literal(-15)))
          CFI (cfiCond76) VB load(1, XDATA, add(CFA_XSP16, literal(-14)))
          CFI (cfiCond76) V0 load(1, XDATA, add(CFA_XSP16, literal(-13)))
          CFI (cfiCond76) V1 load(1, XDATA, add(CFA_XSP16, literal(-12)))
          CFI (cfiCond76) V2 load(1, XDATA, add(CFA_XSP16, literal(-11)))
          CFI (cfiCond76) V3 load(1, XDATA, add(CFA_XSP16, literal(-10)))
          CFI (cfiCond76) V4 load(1, XDATA, add(CFA_XSP16, literal(-9)))
          CFI (cfiCond76) V5 load(1, XDATA, add(CFA_XSP16, literal(-8)))
          CFI (cfiCond76) V6 load(1, XDATA, add(CFA_XSP16, literal(-7)))
          CFI (cfiCond76) R7 load(1, XDATA, add(CFA_XSP16, literal(-6)))
          CFI (cfiCond76) ?RET_LOW load(1, XDATA, add(CFA_XSP16, literal(-5)))
          CFI (cfiCond76) ?RET_HIGH load(1, XDATA, add(CFA_XSP16, literal(-4)))
          CFI (cfiCond76) ?BRET_EXT load(1, XDATA, add(CFA_XSP16, literal(-3)))
          CFI (cfiCond76) DPL0 load(1, XDATA, add(CFA_XSP16, literal(-2)))
          CFI (cfiCond76) DPH0 load(1, XDATA, add(CFA_XSP16, literal(-1)))
          CFI (cfiCond76) CFA_SP SP+-2
          CFI (cfiCond76) CFA_XSP16 add(XSP16, 178)
          CFI Block cfiPicker77 Using cfiCommon1
          CFI (cfiPicker77) NoFunction
          CFI (cfiPicker77) Picker
        MOVX      @DPTR,A
        MOV       DPL,?XSP + 0
        MOV       DPH,?XSP + 1
        MOVX      A,@DPTR
        RET
          CFI EndBlock cfiCond75
          CFI EndBlock cfiCond76
          CFI EndBlock cfiPicker77
//  771 
//  772 
//  773 /*********************************************************************
//  774  * @fn      zclGp_GpResponseCommandCB
//  775  *
//  776  * @brief   Callback from the ZCL GreenPower Cluster Library when
//  777  *          it received a Gp Response command. (Ref A.3.5.2.1)
//  778  *
//  779  * @param   pCmd - command payload
//  780  *
//  781  * @return  none
//  782  */

        RSEG BANKED_CODE:HUGECODE:NOROOT(0)
//  783 static void zclGp_GpResponseCommandCB(zclGpResponse_t *pCmd)
zclGp_GpResponseCommandCB:
          CFI Block cfiBlock78 Using cfiCommon0
          CFI Function zclGp_GpResponseCommandCB
        CODE
//  784 {
        FUNCALL zclGp_GpResponseCommandCB, osal_build_uint32
        LOCFRAME ISTACK, 0, STACK
        LOCFRAME PSTACK, 0, STACK
        LOCFRAME XSTACK, 98, STACK
        LOCFRAME IOVERLAY, 0, STATIC
        LOCFRAME DOVERLAY, 0, STATIC
        ARGFRAME ISTACK, 0, STACK
        ARGFRAME PSTACK, 0, STACK
        ARGFRAME XSTACK, 98, STACK
        ARGFRAME IOVERLAY, 0, STATIC
        ARGFRAME DOVERLAY, 0, STATIC
        FUNCALL zclGp_GpResponseCommandCB, osal_msg_allocate
        LOCFRAME ISTACK, 0, STACK
        LOCFRAME PSTACK, 0, STACK
        LOCFRAME XSTACK, 98, STACK
        LOCFRAME IOVERLAY, 0, STATIC
        LOCFRAME DOVERLAY, 0, STATIC
        ARGFRAME ISTACK, 0, STACK
        ARGFRAME PSTACK, 0, STACK
        ARGFRAME XSTACK, 98, STACK
        ARGFRAME IOVERLAY, 0, STATIC
        ARGFRAME DOVERLAY, 0, STATIC
        FUNCALL zclGp_GpResponseCommandCB, osal_memcpy
        LOCFRAME ISTACK, 0, STACK
        LOCFRAME PSTACK, 0, STACK
        LOCFRAME XSTACK, 101, STACK
        LOCFRAME IOVERLAY, 0, STATIC
        LOCFRAME DOVERLAY, 0, STATIC
        ARGFRAME ISTACK, 0, STACK
        ARGFRAME PSTACK, 0, STACK
        ARGFRAME XSTACK, 101, STACK
        ARGFRAME IOVERLAY, 0, STATIC
        ARGFRAME DOVERLAY, 0, STATIC
        FUNCALL zclGp_GpResponseCommandCB, osal_memcpy
        LOCFRAME ISTACK, 0, STACK
        LOCFRAME PSTACK, 0, STACK
        LOCFRAME XSTACK, 101, STACK
        LOCFRAME IOVERLAY, 0, STATIC
        LOCFRAME DOVERLAY, 0, STATIC
        ARGFRAME ISTACK, 0, STACK
        ARGFRAME PSTACK, 0, STACK
        ARGFRAME XSTACK, 101, STACK
        ARGFRAME IOVERLAY, 0, STATIC
        ARGFRAME DOVERLAY, 0, STATIC
        FUNCALL zclGp_GpResponseCommandCB, gp_GetHandle
        LOCFRAME ISTACK, 0, STACK
        LOCFRAME PSTACK, 0, STACK
        LOCFRAME XSTACK, 98, STACK
        LOCFRAME IOVERLAY, 0, STATIC
        LOCFRAME DOVERLAY, 0, STATIC
        ARGFRAME ISTACK, 0, STACK
        ARGFRAME PSTACK, 0, STACK
        ARGFRAME XSTACK, 98, STACK
        ARGFRAME IOVERLAY, 0, STATIC
        ARGFRAME DOVERLAY, 0, STATIC
        FUNCALL zclGp_GpResponseCommandCB, gp_getProxyTableByGpId
        LOCFRAME ISTACK, 0, STACK
        LOCFRAME PSTACK, 0, STACK
        LOCFRAME XSTACK, 100, STACK
        LOCFRAME IOVERLAY, 0, STATIC
        LOCFRAME DOVERLAY, 0, STATIC
        ARGFRAME ISTACK, 0, STACK
        ARGFRAME PSTACK, 0, STACK
        ARGFRAME XSTACK, 100, STACK
        ARGFRAME IOVERLAY, 0, STATIC
        ARGFRAME DOVERLAY, 0, STATIC
        FUNCALL zclGp_GpResponseCommandCB, osal_nv_write
        LOCFRAME ISTACK, 0, STACK
        LOCFRAME PSTACK, 0, STACK
        LOCFRAME XSTACK, 102, STACK
        LOCFRAME IOVERLAY, 0, STATIC
        LOCFRAME DOVERLAY, 0, STATIC
        ARGFRAME ISTACK, 0, STACK
        ARGFRAME PSTACK, 0, STACK
        ARGFRAME XSTACK, 102, STACK
        ARGFRAME IOVERLAY, 0, STATIC
        ARGFRAME DOVERLAY, 0, STATIC
        FUNCALL zclGp_GpResponseCommandCB, osal_get_timeoutEx
        LOCFRAME ISTACK, 0, STACK
        LOCFRAME PSTACK, 0, STACK
        LOCFRAME XSTACK, 98, STACK
        LOCFRAME IOVERLAY, 0, STATIC
        LOCFRAME DOVERLAY, 0, STATIC
        ARGFRAME ISTACK, 0, STACK
        ARGFRAME PSTACK, 0, STACK
        ARGFRAME XSTACK, 98, STACK
        ARGFRAME IOVERLAY, 0, STATIC
        ARGFRAME DOVERLAY, 0, STATIC
        FUNCALL zclGp_GpResponseCommandCB, ZMacSetReq
        LOCFRAME ISTACK, 0, STACK
        LOCFRAME PSTACK, 0, STACK
        LOCFRAME XSTACK, 98, STACK
        LOCFRAME IOVERLAY, 0, STATIC
        LOCFRAME DOVERLAY, 0, STATIC
        ARGFRAME ISTACK, 0, STACK
        ARGFRAME PSTACK, 0, STACK
        ARGFRAME XSTACK, 98, STACK
        ARGFRAME IOVERLAY, 0, STATIC
        ARGFRAME DOVERLAY, 0, STATIC
        FUNCALL zclGp_GpResponseCommandCB, gp_getProxyTableByGpId
        LOCFRAME ISTACK, 0, STACK
        LOCFRAME PSTACK, 0, STACK
        LOCFRAME XSTACK, 100, STACK
        LOCFRAME IOVERLAY, 0, STATIC
        LOCFRAME DOVERLAY, 0, STATIC
        ARGFRAME ISTACK, 0, STACK
        ARGFRAME PSTACK, 0, STACK
        ARGFRAME XSTACK, 100, STACK
        ARGFRAME IOVERLAY, 0, STATIC
        ARGFRAME DOVERLAY, 0, STATIC
        FUNCALL zclGp_GpResponseCommandCB, osal_nv_write
        LOCFRAME ISTACK, 0, STACK
        LOCFRAME PSTACK, 0, STACK
        LOCFRAME XSTACK, 102, STACK
        LOCFRAME IOVERLAY, 0, STATIC
        LOCFRAME DOVERLAY, 0, STATIC
        ARGFRAME ISTACK, 0, STACK
        ARGFRAME PSTACK, 0, STACK
        ARGFRAME XSTACK, 102, STACK
        ARGFRAME IOVERLAY, 0, STATIC
        ARGFRAME DOVERLAY, 0, STATIC
        FUNCALL zclGp_GpResponseCommandCB, osal_msg_send
        LOCFRAME ISTACK, 0, STACK
        LOCFRAME PSTACK, 0, STACK
        LOCFRAME XSTACK, 98, STACK
        LOCFRAME IOVERLAY, 0, STATIC
        LOCFRAME DOVERLAY, 0, STATIC
        ARGFRAME ISTACK, 0, STACK
        ARGFRAME PSTACK, 0, STACK
        ARGFRAME XSTACK, 98, STACK
        ARGFRAME IOVERLAY, 0, STATIC
        ARGFRAME DOVERLAY, 0, STATIC
        REQUIRE ?V0
        REQUIRE ?V1
        REQUIRE ?V2
        REQUIRE ?V3
        REQUIRE ?V4
        REQUIRE ?V5
        REQUIRE ?V6
        REQUIRE ?V7
        REQUIRE ?V8
        REQUIRE ?V9
        REQUIRE ?V10
        REQUIRE ?V12
        REQUIRE ?V13
        MOV       A,#-0x16
        LCALL     ?BANKED_ENTER_XDATA
          CFI DPH0 load(1, XDATA, add(CFA_XSP16, literal(-1)))
          CFI DPL0 load(1, XDATA, add(CFA_XSP16, literal(-2)))
          CFI ?BRET_EXT load(1, XDATA, add(CFA_XSP16, literal(-3)))
          CFI ?RET_HIGH load(1, XDATA, add(CFA_XSP16, literal(-4)))
          CFI ?RET_LOW load(1, XDATA, add(CFA_XSP16, literal(-5)))
          CFI R7 load(1, XDATA, add(CFA_XSP16, literal(-6)))
          CFI V13 load(1, XDATA, add(CFA_XSP16, literal(-7)))
          CFI V12 load(1, XDATA, add(CFA_XSP16, literal(-8)))
          CFI V11 load(1, XDATA, add(CFA_XSP16, literal(-9)))
          CFI V10 load(1, XDATA, add(CFA_XSP16, literal(-10)))
          CFI V9 load(1, XDATA, add(CFA_XSP16, literal(-11)))
          CFI V8 load(1, XDATA, add(CFA_XSP16, literal(-12)))
          CFI V7 load(1, XDATA, add(CFA_XSP16, literal(-13)))
          CFI V6 load(1, XDATA, add(CFA_XSP16, literal(-14)))
          CFI V5 load(1, XDATA, add(CFA_XSP16, literal(-15)))
          CFI V4 load(1, XDATA, add(CFA_XSP16, literal(-16)))
          CFI V3 load(1, XDATA, add(CFA_XSP16, literal(-17)))
          CFI V2 load(1, XDATA, add(CFA_XSP16, literal(-18)))
          CFI V1 load(1, XDATA, add(CFA_XSP16, literal(-19)))
          CFI V0 load(1, XDATA, add(CFA_XSP16, literal(-20)))
          CFI VB load(1, XDATA, add(CFA_XSP16, literal(-21)))
          CFI R6 load(1, XDATA, add(CFA_XSP16, literal(-22)))
          CFI CFA_SP SP+0
          CFI CFA_XSP16 add(XSP16, 22)
        ; Saved register size: 22
        ; Auto size: 76
        MOV       A,#-0x4c
        LCALL     ?ALLOC_XSTACK8
          CFI CFA_XSP16 add(XSP16, 98)
        MOV       ?V2,R2
        MOV       ?V3,R3
//  785   gp_DataReq_t  *gp_DataReq;
//  786   gpd_ID_t      gpd_ID;
//  787   uint8         endpoint = 0;
//  788   uint8         command;
//  789   uint8         payloadLen = 0;
//  790   
//  791   //No bidirectional communication in operational mode
//  792   //A.3.2.8
//  793   if(!zgGP_InCommissioningMode)
        MOV       DPTR,#zgGP_InCommissioningMode
        MOVX      A,@DPTR
        JNZ       $+5
        LJMP      ??zclGp_GpResponseCommandCB_0 & 0xFFFF
//  794   {
//  795     return;
//  796   }
//  797   
//  798   gpd_ID.AppID = pCmd->options & GP_RSP_CMD_OPT_APP_ID_MASK;
        MOV       A,R2
        ADD       A,#0x2
        MOV       ?V12,A
        CLR       A
        ADDC      A,?V3
        MOV       ?V13,A
        MOV       DPL,?V12
        MOV       DPH,A
        MOVX      A,@DPTR
        ANL       A,#0x7
        PUSH      A
          CFI CFA_SP SP+-1
        MOV       A,#0x2
        LCALL     ?XSTACK_DISP0_8
        POP       A
          CFI CFA_SP SP+0
        MOVX      @DPTR,A
//  799   if(gpd_ID.AppID == GP_APP_ID_DEFAULT)
        JZ        $+5
        LJMP      ??zclGp_GpResponseCommandCB_0 & 0xFFFF
//  800   {
//  801     gpd_ID.GPDId.SrcID = osal_build_uint32(pCmd->pData,sizeof(uint32));
        MOV       A,R2
        ADD       A,#0x6
        MOV       R6,A
        CLR       A
        ADDC      A,?V3
        MOV       R7,A
        ; Setup parameters for call to function osal_build_uint32
        MOV       R1,#0x4
        MOV       DPL,R6
        MOV       DPH,R7
        LCALL     ??Subroutine41_0 & 0xFFFF
??CrossCallReturnLabel_79:
        LCALL     `??osal_build_uint32::?relay`; Banked call to: osal_build_uint32
        MOV       A,R2
        MOV       R0,A
        MOV       A,R3
        MOV       R1,A
        MOV       A,R4
        MOV       R2,A
        MOV       A,R5
        MOV       R3,A
        MOV       A,#0x3
        LCALL     ?XSTACK_DISP0_8
        LCALL     ?XSTORE_R0123
//  802     pCmd->pData += sizeof(uint32);
        MOV       DPL,R6
        MOV       DPH,R7
        MOVX      A,@DPTR
        ADD       A,#0x4
        MOV       R0,A
        INC       DPTR
        MOVX      A,@DPTR
        ADDC      A,#0x0
        MOV       R1,A
        LCALL     ?Subroutine7 & 0xFFFF
//  803   }
//  804   else if(gpd_ID.AppID == GP_APP_ID_DEFAULT)
//  805   {
//  806     gpd_ID.GPDId.SrcID = osal_build_uint32(pCmd->pData,sizeof(uint32));
//  807     pCmd->pData += sizeof(uint32);
//  808     
//  809     endpoint = *pCmd->pData;
//  810     pCmd->pData++;
//  811   }
//  812   else
//  813   {
//  814     //Invalid app ID
//  815     return;
//  816   }
//  817   
//  818   command  = *pCmd->pData;
??CrossCallReturnLabel_2:
        MOV       ?V5,A
//  819   pCmd->pData++;
        INC       DPTR
        MOV       R0,DPL
        MOV       R1,DPH
        LCALL     ?Subroutine7 & 0xFFFF
//  820   payloadLen = *pCmd->pData;
??CrossCallReturnLabel_3:
        MOV       ?V4,A
//  821   pCmd->pData++;
        INC       DPTR
        INC       R0
        MOV       R1,DPH
        MOV       DPL,R6
        MOV       DPH,R7
        LCALL     ??Subroutine44_0 & 0xFFFF
//  822    
//  823   gp_DataReq = (gp_DataReq_t*)osal_msg_allocate(sizeof(gp_DataReq_t) + payloadLen);  
??CrossCallReturnLabel_91:
        ; Setup parameters for call to function osal_msg_allocate
        MOV       A,?V4
        ADD       A,#0x15
        MOV       R2,A
        CLR       A
        ADDC      A,#0x0
        MOV       R3,A
        LCALL     `??osal_msg_allocate::?relay`; Banked call to: osal_msg_allocate
        MOV       ?V0,R2
        MOV       ?V1,R3
//  824   
//  825   if(gp_DataReq == NULL)
        MOV       A,R2
        ORL       A,?V1
        JNZ       $+5
        LJMP      ??zclGp_GpResponseCommandCB_0 & 0xFFFF
//  826   {
//  827     //FAIL no memory
//  828     return;
//  829   }
//  830   if(payloadLen == 0xFF)
        MOV       A,#-0x1
        XRL       A,?V4
        JNZ       ??zclGp_GpResponseCommandCB_1
//  831   {
//  832     payloadLen = 0;
        MOV       ?V4,#0x0
//  833   }
//  834   gp_DataReq->TxOptions = GP_OPT_USE_TX_QUEUE_MASK;
??zclGp_GpResponseCommandCB_1:
        MOV       A,R2
        ADD       A,#0x3
        MOV       ?V6,A
        CLR       A
        ADDC      A,?V1
        MOV       ?V7,A
        MOV       DPL,?V6
        MOV       DPH,A
        MOV       A,#0x1
        MOVX      @DPTR,A
//  835   gp_DataReq->EndPoint = endpoint;
        MOV       A,R2
        ADD       A,#0xd
        LCALL     ??Subroutine40_0 & 0xFFFF
??CrossCallReturnLabel_70:
        CLR       A
        MOVX      @DPTR,A
//  836   osal_memcpy(gp_DataReq->GPDasdu,pCmd->pData,payloadLen);
        ; Setup parameters for call to function osal_memcpy
        MOV       DPL,R6
        MOV       DPH,R7
        MOVX      A,@DPTR
        MOV       ?V8,A
        INC       DPTR
        MOVX      A,@DPTR
        MOV       ?V9,A
        MOV       ?V10,#0x0
        MOV       R0,#?V8
        LCALL     ?PUSH_XSTACK_I_THREE
          CFI CFA_XSP16 add(XSP16, 101)
        MOV       R4,?V4
        MOV       R5,#0x0
        MOV       A,R2
        ADD       A,#0x14
        MOV       R2,A
        CLR       A
        ADDC      A,?V1
        MOV       R3,A
        LCALL     `??osal_memcpy::?relay`; Banked call to: osal_memcpy
        MOV       A,#0x3
        LCALL     ?DEALLOC_XSTACK8
          CFI CFA_XSP16 add(XSP16, 98)
//  837   gp_DataReq->GPDasduLength = payloadLen;
        MOV       A,?V0
        ADD       A,#0x13
        LCALL     ??Subroutine40_0 & 0xFFFF
??CrossCallReturnLabel_71:
        MOV       A,?V4
        MOVX      @DPTR,A
//  838   gp_DataReq->GPDCmmdId = command;
        LCALL     ?Subroutine28 & 0xFFFF
??CrossCallReturnLabel_76:
        MOV       A,?V5
        MOVX      @DPTR,A
//  839   osal_memcpy(&gp_DataReq->gpd_ID,&gpd_ID,sizeof(gpd_ID_t));
        ; Setup parameters for call to function osal_memcpy
        MOV       A,#0x2
        LCALL     ?XSTACK_DISP100_8
        MOV       ?V8,R0
        MOV       ?V9,R1
        MOV       R0,#?V8
        LCALL     ?PUSH_XSTACK_I_THREE
          CFI CFA_XSP16 add(XSP16, 101)
        MOV       R4,#0x9
        MOV       R5,#0x0
        MOV       A,?V0
        ADD       A,#0x4
        MOV       R2,A
        CLR       A
        ADDC      A,?V1
        MOV       R3,A
        LCALL     `??osal_memcpy::?relay`; Banked call to: osal_memcpy
        MOV       A,#0x3
        LCALL     ?DEALLOC_XSTACK8
          CFI CFA_XSP16 add(XSP16, 98)
//  840 
//  841   gp_DataReq->GPEPhandle = gp_GetHandle(GPEP_HANDLE_TYPE);
        ; Setup parameters for call to function gp_GetHandle
        MOV       R1,#0x1
        LCALL     `??gp_GetHandle::?relay`; Banked call to: gp_GetHandle
        MOV       A,?V0
        ADD       A,#0xf
        LCALL     ??Subroutine40_0 & 0xFFFF
??CrossCallReturnLabel_72:
        MOV       A,R1
        MOVX      @DPTR,A
//  842       
//  843   gp_DataReq->hdr.event = GP_DATA_REQ;
        MOV       DPL,?V0
        MOV       DPH,?V1
        MOV       A,#0x5
        MOVX      @DPTR,A
//  844   gp_DataReq->hdr.status = 0;  
        INC       DPTR
        CLR       A
        MOVX      @DPTR,A
//  845   
//  846   if(pCmd->options & GP_RSP_CMD_OPT_TRANSMIT_ON_ENDPOINT_MATCH_MASK)
        MOV       DPL,?V12
        MOV       DPH,?V13
        MOVX      A,@DPTR
        MOV       C,0xE0 /* A   */.3
        JNC       ??zclGp_GpResponseCommandCB_2
//  847   {
//  848     gp_DataReq->TxOptions |= GP_OPT_TX_ON_MATCHING_ENDPOINT_MASK;
        MOV       DPL,?V6
        MOV       DPH,?V7
        MOVX      A,@DPTR
        SETB      0xE0 /* A   */.5
        MOVX      @DPTR,A
//  849   }
//  850   
//  851   //Validate the command being send as unicast and we are the tempMaster
//  852   if((pCmd->tempMasterShortAddr == _NIB.nwkDevAddress) && (pCmd->dstAddr == _NIB.nwkDevAddress))
??zclGp_GpResponseCommandCB_2:
        LCALL     ?Subroutine20 & 0xFFFF
??CrossCallReturnLabel_59:
        MOV       A,?V0
        ADD       A,#0x2
        MOV       R6,A
        CLR       A
        ADDC      A,?V1
        MOV       R7,A
        MOV       DPL,?V2
        MOV       DPH,?V3
        INC       DPTR
        INC       DPTR
        INC       DPTR
        MOVX      A,@DPTR
        XRL       A,R0
        JNZ       ??zclGp_GpResponseCommandCB_3
        INC       DPTR
        MOVX      A,@DPTR
        XRL       A,R1
??zclGp_GpResponseCommandCB_3:
        JZ        $+5
        LJMP      ??zclGp_GpResponseCommandCB_4 & 0xFFFF
        MOV       DPL,?V2
        MOV       DPH,?V3
        MOVX      A,@DPTR
        XRL       A,R0
        JNZ       ??zclGp_GpResponseCommandCB_5
        INC       DPTR
        MOVX      A,@DPTR
        XRL       A,R1
??zclGp_GpResponseCommandCB_5:
        JZ        $+5
        LJMP      ??zclGp_GpResponseCommandCB_4 & 0xFFFF
//  853   {
//  854     uint16 NvProxyTableIndex;
//  855     uint8  ProxyTableEntryTemp[PROXY_TBL_ENTRY_LEN];
//  856     
//  857     //Check if the entry exist, if so, set the first to forward flag to 1
//  858     if ( gp_getProxyTableByGpId(&gpd_ID,ProxyTableEntryTemp,&NvProxyTableIndex) == ZSuccess )
        ; Setup parameters for call to function gp_getProxyTableByGpId
        MOV       R0,?XSP + 0
        MOV       R1,?XSP + 1
        MOV       ?V4,R0
        MOV       ?V5,R1
        MOV       R0,#?V4
        LCALL     ?PUSH_XSTACK_I_TWO
          CFI CFA_XSP16 add(XSP16, 100)
        MOV       A,#0xd
        LCALL     ?XSTACK_DISP102_8
        MOV       A,#0x4
        LCALL     ?XSTACK_DISP101_8
        LCALL     `??gp_getProxyTableByGpId::?relay`; Banked call to: gp_getProxyTableByGpId
        MOV       A,#0x2
        LCALL     ?DEALLOC_XSTACK8
          CFI CFA_XSP16 add(XSP16, 98)
        MOV       A,R1
        JNZ       ??zclGp_GpResponseCommandCB_6
//  859     {
//  860       //Update FirstToForward to 1
//  861       if(PROXY_TBL_GET_FIRST_TO_FORWARD(ProxyTableEntryTemp[PROXY_TBL_ENTRY_OPT]) == 0)
        MOV       A,#0xb
        LCALL     ?XSTACK_DISP0_8
        MOVX      A,@DPTR
        MOV       C,0xE0 /* A   */.1
        JC        ??zclGp_GpResponseCommandCB_6
//  862       {
//  863         PROXY_TBL_SET_FIRST_TO_FORWARD(&ProxyTableEntryTemp[PROXY_TBL_ENTRY_OPT]);
        SETB      0xE0 /* A   */.1
        MOVX      @DPTR,A
//  864         osal_nv_write(NvProxyTableIndex,PROXY_TBL_ENTRY_OPT,2,&ProxyTableEntryTemp[PROXY_TBL_ENTRY_OPT]);
        ; Setup parameters for call to function osal_nv_write
        MOV       A,#0xb
        LCALL     ?XSTACK_DISP100_8
        MOV       ?V4,R0
        MOV       ?V5,R1
        MOV       R0,#?V4
        LCALL     ?PUSH_XSTACK_I_TWO
          CFI CFA_XSP16 add(XSP16, 100)
        MOV       ?V4,#0x2
        MOV       ?V5,#0x0
        MOV       R0,#?V4
        LCALL     ?PUSH_XSTACK_I_TWO
          CFI CFA_XSP16 add(XSP16, 102)
        MOV       R4,#0x0
        MOV       R5,#0x0
        MOV       A,#0x4
        LCALL     ?XSTACK_DISP0_8
        LCALL     ??Subroutine41_0 & 0xFFFF
//  865       }
//  866     }
??CrossCallReturnLabel_80:
        LCALL     `??osal_nv_write::?relay`; Banked call to: osal_nv_write
        MOV       A,#0x4
        LCALL     ?DEALLOC_XSTACK8
          CFI CFA_XSP16 add(XSP16, 98)
//  867     //Depends on TempMasterAddress
//  868     gp_DataReq->Action = TRUE;
??zclGp_GpResponseCommandCB_6:
        MOV       DPL,R6
        MOV       DPH,R7
        MOV       A,#0x1
        MOVX      @DPTR,A
//  869     
//  870     //Step 6 of Section A.3.9.1 The Procedure
//  871     //Check if we are in a different channel
//  872     if((pCmd->tempMasterTxChannel + 0x0B) != _NIB.nwkLogicalChannel)
        MOV       A,?V2
        ADD       A,#0x5
        MOV       R0,A
        CLR       A
        ADDC      A,?V3
        MOV       R1,A
        MOV       A,R0
        MOV       R6,A
        MOV       A,R1
        MOV       R7,A
        MOV       DPL,R6
        MOV       DPH,R7
        MOVX      A,@DPTR
        MOV       R1,#0x0
        ADD       A,#0xb
        MOV       R0,A
        JNC       ??zclGp_GpResponseCommandCB_7
        INC       R1
??zclGp_GpResponseCommandCB_7:
        MOV       DPTR,#_NIB + 22
        MOVX      A,@DPTR
        XRL       A,R0
        JNZ       ??zclGp_GpResponseCommandCB_8
        MOV       A,R1
??zclGp_GpResponseCommandCB_8:
        JNZ       $+5
        LJMP      ??zclGp_GpResponseCommandCB_9 & 0xFFFF
//  873     {
//  874       //did we got permission to attend channel request?
//  875       if(osal_get_timeoutEx(gp_TaskID,GP_CHANNEL_CONFIGURATION_TIMEOUT))
        ; Setup parameters for call to function osal_get_timeoutEx
        MOV       R2,#0x8
        MOV       R3,#0x0
        MOV       DPTR,#gp_TaskID
        MOVX      A,@DPTR
        MOV       R1,A
        LCALL     `??osal_get_timeoutEx::?relay`; Banked call to: osal_get_timeoutEx
        MOV       A,R2
        ORL       A,R3
        ORL       A,R4
        ORL       A,R5
        JZ        ??zclGp_GpResponseCommandCB_9
//  876       {
//  877         gp_tempLogicalChannel = _NIB.nwkLogicalChannel;
        MOV       DPTR,#_NIB + 22
        MOVX      A,@DPTR
        MOV       DPTR,#gp_tempLogicalChannel
        MOVX      @DPTR,A
//  878         _NIB.nwkLogicalChannel = pCmd->tempMasterTxChannel;
        MOV       DPL,R6
        MOV       DPH,R7
        LCALL     ?Subroutine17 & 0xFFFF
//  879         ZMacSetReq( ZMacChannel, &(_NIB.nwkLogicalChannel) );
//  880       }
//  881     }
//  882   }
??CrossCallReturnLabel_14:
        LCALL     `??ZMacSetReq::?relay`; Banked call to: ZMacSetReq
        SJMP      ??zclGp_GpResponseCommandCB_9
//  883   else
//  884   {
//  885     uint16 NvProxyTableIndex;
//  886     uint8  ProxyTableEntryTemp[PROXY_TBL_ENTRY_LEN];
//  887        
//  888     //We are not the tempMaster or this was not a unicast to us, set the first to forward flag to 0
//  889     if( gp_getProxyTableByGpId(&gpd_ID,ProxyTableEntryTemp,&NvProxyTableIndex) == ZSuccess )
??zclGp_GpResponseCommandCB_4:
        ; Setup parameters for call to function gp_getProxyTableByGpId
        MOV       R0,?XSP + 0
        MOV       R1,?XSP + 1
        MOV       ?V2,R0
        MOV       ?V3,R1
        MOV       R0,#?V2
        LCALL     ?PUSH_XSTACK_I_TWO
          CFI CFA_XSP16 add(XSP16, 100)
        MOV       A,#0xd
        LCALL     ?XSTACK_DISP102_8
        MOV       A,#0x4
        LCALL     ?XSTACK_DISP101_8
        LCALL     `??gp_getProxyTableByGpId::?relay`; Banked call to: gp_getProxyTableByGpId
        MOV       A,#0x2
        LCALL     ?DEALLOC_XSTACK8
          CFI CFA_XSP16 add(XSP16, 98)
        MOV       A,R1
        JNZ       ??zclGp_GpResponseCommandCB_10
//  890     {
//  891       if(PROXY_TBL_GET_FIRST_TO_FORWARD(ProxyTableEntryTemp[PROXY_TBL_ENTRY_OPT]) == 1)
        MOV       A,#0xb
        LCALL     ?XSTACK_DISP0_8
        MOVX      A,@DPTR
        MOV       C,0xE0 /* A   */.1
        JNC       ??zclGp_GpResponseCommandCB_10
//  892       {
//  893         PROXY_TBL_SET_FIRST_TO_FORWARD(&ProxyTableEntryTemp[PROXY_TBL_ENTRY_OPT]);
        SETB      0xE0 /* A   */.1
        MOVX      @DPTR,A
//  894         osal_nv_write(NvProxyTableIndex,PROXY_TBL_ENTRY_OPT,2,&ProxyTableEntryTemp[PROXY_TBL_ENTRY_OPT]);
        ; Setup parameters for call to function osal_nv_write
        MOV       A,#0xb
        LCALL     ?XSTACK_DISP100_8
        MOV       ?V2,R0
        MOV       ?V3,R1
        MOV       R0,#?V2
        LCALL     ?PUSH_XSTACK_I_TWO
          CFI CFA_XSP16 add(XSP16, 100)
        MOV       ?V2,#0x2
        MOV       ?V3,#0x0
        MOV       R0,#?V2
        LCALL     ?PUSH_XSTACK_I_TWO
          CFI CFA_XSP16 add(XSP16, 102)
        MOV       R4,#0x0
        MOV       R5,#0x0
        MOV       A,#0x4
        LCALL     ?XSTACK_DISP0_8
        LCALL     ??Subroutine41_0 & 0xFFFF
//  895       } 
//  896     }
??CrossCallReturnLabel_81:
        LCALL     `??osal_nv_write::?relay`; Banked call to: osal_nv_write
        MOV       A,#0x4
        LCALL     ?DEALLOC_XSTACK8
          CFI CFA_XSP16 add(XSP16, 98)
//  897     
//  898     //Also remove any packet to the GPD
//  899     gp_DataReq->Action = 0;
??zclGp_GpResponseCommandCB_10:
        MOV       DPL,R6
        MOV       DPH,R7
        CLR       A
        MOVX      @DPTR,A
//  900   }
//  901   
//  902   osal_msg_send(gp_TaskID,(uint8*)gp_DataReq);
??zclGp_GpResponseCommandCB_9:
        ; Setup parameters for call to function osal_msg_send
        MOV       R2,?V0
        MOV       R3,?V1
        MOV       DPTR,#gp_TaskID
        MOVX      A,@DPTR
        MOV       R1,A
        LCALL     `??osal_msg_send::?relay`; Banked call to: osal_msg_send
//  903 }
??zclGp_GpResponseCommandCB_0:
        LJMP      ?Subroutine2 & 0xFFFF
          CFI EndBlock cfiBlock78

        RSEG BANKED_CODE:HUGECODE:NOROOT(0)
?Subroutine28:
          CFI Block cfiCond79 Using cfiCommon0
          CFI Function zclGp_ManteinanceIndParse
          CFI Conditional ??CrossCallReturnLabel_75
          CFI R6 load(1, XDATA, add(CFA_XSP16, literal(-15)))
          CFI VB load(1, XDATA, add(CFA_XSP16, literal(-14)))
          CFI V0 load(1, XDATA, add(CFA_XSP16, literal(-13)))
          CFI V1 load(1, XDATA, add(CFA_XSP16, literal(-12)))
          CFI V2 load(1, XDATA, add(CFA_XSP16, literal(-11)))
          CFI V3 load(1, XDATA, add(CFA_XSP16, literal(-10)))
          CFI V4 load(1, XDATA, add(CFA_XSP16, literal(-9)))
          CFI V5 load(1, XDATA, add(CFA_XSP16, literal(-8)))
          CFI V6 load(1, XDATA, add(CFA_XSP16, literal(-7)))
          CFI R7 load(1, XDATA, add(CFA_XSP16, literal(-6)))
          CFI ?RET_LOW load(1, XDATA, add(CFA_XSP16, literal(-5)))
          CFI ?RET_HIGH load(1, XDATA, add(CFA_XSP16, literal(-4)))
          CFI ?BRET_EXT load(1, XDATA, add(CFA_XSP16, literal(-3)))
          CFI DPL0 load(1, XDATA, add(CFA_XSP16, literal(-2)))
          CFI DPH0 load(1, XDATA, add(CFA_XSP16, literal(-1)))
          CFI CFA_XSP16 add(XSP16, 82)
          CFI Block cfiCond80 Using cfiCommon0
          CFI (cfiCond80) Function zclGp_GpResponseCommandCB
          CFI (cfiCond80) Conditional ??CrossCallReturnLabel_76
          CFI (cfiCond80) R6 load(1, XDATA, add(CFA_XSP16, literal(-22)))
          CFI (cfiCond80) VB load(1, XDATA, add(CFA_XSP16, literal(-21)))
          CFI (cfiCond80) V0 load(1, XDATA, add(CFA_XSP16, literal(-20)))
          CFI (cfiCond80) V1 load(1, XDATA, add(CFA_XSP16, literal(-19)))
          CFI (cfiCond80) V2 load(1, XDATA, add(CFA_XSP16, literal(-18)))
          CFI (cfiCond80) V3 load(1, XDATA, add(CFA_XSP16, literal(-17)))
          CFI (cfiCond80) V4 load(1, XDATA, add(CFA_XSP16, literal(-16)))
          CFI (cfiCond80) V5 load(1, XDATA, add(CFA_XSP16, literal(-15)))
          CFI (cfiCond80) V6 load(1, XDATA, add(CFA_XSP16, literal(-14)))
          CFI (cfiCond80) V7 load(1, XDATA, add(CFA_XSP16, literal(-13)))
          CFI (cfiCond80) V8 load(1, XDATA, add(CFA_XSP16, literal(-12)))
          CFI (cfiCond80) V9 load(1, XDATA, add(CFA_XSP16, literal(-11)))
          CFI (cfiCond80) V10 load(1, XDATA, add(CFA_XSP16, literal(-10)))
          CFI (cfiCond80) V11 load(1, XDATA, add(CFA_XSP16, literal(-9)))
          CFI (cfiCond80) V12 load(1, XDATA, add(CFA_XSP16, literal(-8)))
          CFI (cfiCond80) V13 load(1, XDATA, add(CFA_XSP16, literal(-7)))
          CFI (cfiCond80) R7 load(1, XDATA, add(CFA_XSP16, literal(-6)))
          CFI (cfiCond80) ?RET_LOW load(1, XDATA, add(CFA_XSP16, literal(-5)))
          CFI (cfiCond80) ?RET_HIGH load(1, XDATA, add(CFA_XSP16, literal(-4)))
          CFI (cfiCond80) ?BRET_EXT load(1, XDATA, add(CFA_XSP16, literal(-3)))
          CFI (cfiCond80) DPL0 load(1, XDATA, add(CFA_XSP16, literal(-2)))
          CFI (cfiCond80) DPH0 load(1, XDATA, add(CFA_XSP16, literal(-1)))
          CFI (cfiCond80) CFA_SP SP+-2
          CFI (cfiCond80) CFA_XSP16 add(XSP16, 98)
          CFI Block cfiPicker81 Using cfiCommon1
          CFI (cfiPicker81) NoFunction
          CFI (cfiPicker81) Picker
        MOV       A,?V0
        ADD       A,#0xe
          CFI EndBlock cfiCond79
          CFI EndBlock cfiCond80
          CFI EndBlock cfiPicker81
        REQUIRE ??Subroutine40_0
        ; // Fall through to label ??Subroutine40_0

        RSEG BANKED_CODE:HUGECODE:NOROOT(0)
??Subroutine40_0:
          CFI Block cfiCond82 Using cfiCommon0
          CFI Function zclGp_ManteinanceIndParse
          CFI Conditional ??CrossCallReturnLabel_66
          CFI R6 load(1, XDATA, add(CFA_XSP16, literal(-15)))
          CFI VB load(1, XDATA, add(CFA_XSP16, literal(-14)))
          CFI V0 load(1, XDATA, add(CFA_XSP16, literal(-13)))
          CFI V1 load(1, XDATA, add(CFA_XSP16, literal(-12)))
          CFI V2 load(1, XDATA, add(CFA_XSP16, literal(-11)))
          CFI V3 load(1, XDATA, add(CFA_XSP16, literal(-10)))
          CFI V4 load(1, XDATA, add(CFA_XSP16, literal(-9)))
          CFI V5 load(1, XDATA, add(CFA_XSP16, literal(-8)))
          CFI V6 load(1, XDATA, add(CFA_XSP16, literal(-7)))
          CFI R7 load(1, XDATA, add(CFA_XSP16, literal(-6)))
          CFI ?RET_LOW load(1, XDATA, add(CFA_XSP16, literal(-5)))
          CFI ?RET_HIGH load(1, XDATA, add(CFA_XSP16, literal(-4)))
          CFI ?BRET_EXT load(1, XDATA, add(CFA_XSP16, literal(-3)))
          CFI DPL0 load(1, XDATA, add(CFA_XSP16, literal(-2)))
          CFI DPH0 load(1, XDATA, add(CFA_XSP16, literal(-1)))
          CFI CFA_SP SP+-2
          CFI CFA_XSP16 add(XSP16, 82)
          CFI Block cfiCond83 Using cfiCommon0
          CFI (cfiCond83) Function zclGp_ManteinanceIndParse
          CFI (cfiCond83) Conditional ??CrossCallReturnLabel_67
          CFI (cfiCond83) R6 load(1, XDATA, add(CFA_XSP16, literal(-15)))
          CFI (cfiCond83) VB load(1, XDATA, add(CFA_XSP16, literal(-14)))
          CFI (cfiCond83) V0 load(1, XDATA, add(CFA_XSP16, literal(-13)))
          CFI (cfiCond83) V1 load(1, XDATA, add(CFA_XSP16, literal(-12)))
          CFI (cfiCond83) V2 load(1, XDATA, add(CFA_XSP16, literal(-11)))
          CFI (cfiCond83) V3 load(1, XDATA, add(CFA_XSP16, literal(-10)))
          CFI (cfiCond83) V4 load(1, XDATA, add(CFA_XSP16, literal(-9)))
          CFI (cfiCond83) V5 load(1, XDATA, add(CFA_XSP16, literal(-8)))
          CFI (cfiCond83) V6 load(1, XDATA, add(CFA_XSP16, literal(-7)))
          CFI (cfiCond83) R7 load(1, XDATA, add(CFA_XSP16, literal(-6)))
          CFI (cfiCond83) ?RET_LOW load(1, XDATA, add(CFA_XSP16, literal(-5)))
          CFI (cfiCond83) ?RET_HIGH load(1, XDATA, add(CFA_XSP16, literal(-4)))
          CFI (cfiCond83) ?BRET_EXT load(1, XDATA, add(CFA_XSP16, literal(-3)))
          CFI (cfiCond83) DPL0 load(1, XDATA, add(CFA_XSP16, literal(-2)))
          CFI (cfiCond83) DPH0 load(1, XDATA, add(CFA_XSP16, literal(-1)))
          CFI (cfiCond83) CFA_XSP16 add(XSP16, 82)
          CFI Block cfiCond84 Using cfiCommon0
          CFI (cfiCond84) Function zclGp_ManteinanceIndParse
          CFI (cfiCond84) Conditional ??CrossCallReturnLabel_68
          CFI (cfiCond84) R6 load(1, XDATA, add(CFA_XSP16, literal(-15)))
          CFI (cfiCond84) VB load(1, XDATA, add(CFA_XSP16, literal(-14)))
          CFI (cfiCond84) V0 load(1, XDATA, add(CFA_XSP16, literal(-13)))
          CFI (cfiCond84) V1 load(1, XDATA, add(CFA_XSP16, literal(-12)))
          CFI (cfiCond84) V2 load(1, XDATA, add(CFA_XSP16, literal(-11)))
          CFI (cfiCond84) V3 load(1, XDATA, add(CFA_XSP16, literal(-10)))
          CFI (cfiCond84) V4 load(1, XDATA, add(CFA_XSP16, literal(-9)))
          CFI (cfiCond84) V5 load(1, XDATA, add(CFA_XSP16, literal(-8)))
          CFI (cfiCond84) V6 load(1, XDATA, add(CFA_XSP16, literal(-7)))
          CFI (cfiCond84) R7 load(1, XDATA, add(CFA_XSP16, literal(-6)))
          CFI (cfiCond84) ?RET_LOW load(1, XDATA, add(CFA_XSP16, literal(-5)))
          CFI (cfiCond84) ?RET_HIGH load(1, XDATA, add(CFA_XSP16, literal(-4)))
          CFI (cfiCond84) ?BRET_EXT load(1, XDATA, add(CFA_XSP16, literal(-3)))
          CFI (cfiCond84) DPL0 load(1, XDATA, add(CFA_XSP16, literal(-2)))
          CFI (cfiCond84) DPH0 load(1, XDATA, add(CFA_XSP16, literal(-1)))
          CFI (cfiCond84) CFA_XSP16 add(XSP16, 82)
          CFI Block cfiCond85 Using cfiCommon0
          CFI (cfiCond85) Function zclGp_ManteinanceIndParse
          CFI (cfiCond85) Conditional ??CrossCallReturnLabel_69
          CFI (cfiCond85) R6 load(1, XDATA, add(CFA_XSP16, literal(-15)))
          CFI (cfiCond85) VB load(1, XDATA, add(CFA_XSP16, literal(-14)))
          CFI (cfiCond85) V0 load(1, XDATA, add(CFA_XSP16, literal(-13)))
          CFI (cfiCond85) V1 load(1, XDATA, add(CFA_XSP16, literal(-12)))
          CFI (cfiCond85) V2 load(1, XDATA, add(CFA_XSP16, literal(-11)))
          CFI (cfiCond85) V3 load(1, XDATA, add(CFA_XSP16, literal(-10)))
          CFI (cfiCond85) V4 load(1, XDATA, add(CFA_XSP16, literal(-9)))
          CFI (cfiCond85) V5 load(1, XDATA, add(CFA_XSP16, literal(-8)))
          CFI (cfiCond85) V6 load(1, XDATA, add(CFA_XSP16, literal(-7)))
          CFI (cfiCond85) R7 load(1, XDATA, add(CFA_XSP16, literal(-6)))
          CFI (cfiCond85) ?RET_LOW load(1, XDATA, add(CFA_XSP16, literal(-5)))
          CFI (cfiCond85) ?RET_HIGH load(1, XDATA, add(CFA_XSP16, literal(-4)))
          CFI (cfiCond85) ?BRET_EXT load(1, XDATA, add(CFA_XSP16, literal(-3)))
          CFI (cfiCond85) DPL0 load(1, XDATA, add(CFA_XSP16, literal(-2)))
          CFI (cfiCond85) DPH0 load(1, XDATA, add(CFA_XSP16, literal(-1)))
          CFI (cfiCond85) CFA_XSP16 add(XSP16, 82)
          CFI Block cfiCond86 Using cfiCommon0
          CFI (cfiCond86) Function zclGp_GpResponseCommandCB
          CFI (cfiCond86) Conditional ??CrossCallReturnLabel_70
          CFI (cfiCond86) R6 load(1, XDATA, add(CFA_XSP16, literal(-22)))
          CFI (cfiCond86) VB load(1, XDATA, add(CFA_XSP16, literal(-21)))
          CFI (cfiCond86) V0 load(1, XDATA, add(CFA_XSP16, literal(-20)))
          CFI (cfiCond86) V1 load(1, XDATA, add(CFA_XSP16, literal(-19)))
          CFI (cfiCond86) V2 load(1, XDATA, add(CFA_XSP16, literal(-18)))
          CFI (cfiCond86) V3 load(1, XDATA, add(CFA_XSP16, literal(-17)))
          CFI (cfiCond86) V4 load(1, XDATA, add(CFA_XSP16, literal(-16)))
          CFI (cfiCond86) V5 load(1, XDATA, add(CFA_XSP16, literal(-15)))
          CFI (cfiCond86) V6 load(1, XDATA, add(CFA_XSP16, literal(-14)))
          CFI (cfiCond86) V7 load(1, XDATA, add(CFA_XSP16, literal(-13)))
          CFI (cfiCond86) V8 load(1, XDATA, add(CFA_XSP16, literal(-12)))
          CFI (cfiCond86) V9 load(1, XDATA, add(CFA_XSP16, literal(-11)))
          CFI (cfiCond86) V10 load(1, XDATA, add(CFA_XSP16, literal(-10)))
          CFI (cfiCond86) V11 load(1, XDATA, add(CFA_XSP16, literal(-9)))
          CFI (cfiCond86) V12 load(1, XDATA, add(CFA_XSP16, literal(-8)))
          CFI (cfiCond86) V13 load(1, XDATA, add(CFA_XSP16, literal(-7)))
          CFI (cfiCond86) R7 load(1, XDATA, add(CFA_XSP16, literal(-6)))
          CFI (cfiCond86) ?RET_LOW load(1, XDATA, add(CFA_XSP16, literal(-5)))
          CFI (cfiCond86) ?RET_HIGH load(1, XDATA, add(CFA_XSP16, literal(-4)))
          CFI (cfiCond86) ?BRET_EXT load(1, XDATA, add(CFA_XSP16, literal(-3)))
          CFI (cfiCond86) DPL0 load(1, XDATA, add(CFA_XSP16, literal(-2)))
          CFI (cfiCond86) DPH0 load(1, XDATA, add(CFA_XSP16, literal(-1)))
          CFI (cfiCond86) CFA_SP SP+-2
          CFI (cfiCond86) CFA_XSP16 add(XSP16, 98)
          CFI Block cfiCond87 Using cfiCommon0
          CFI (cfiCond87) Function zclGp_GpResponseCommandCB
          CFI (cfiCond87) Conditional ??CrossCallReturnLabel_71
          CFI (cfiCond87) R6 load(1, XDATA, add(CFA_XSP16, literal(-22)))
          CFI (cfiCond87) VB load(1, XDATA, add(CFA_XSP16, literal(-21)))
          CFI (cfiCond87) V0 load(1, XDATA, add(CFA_XSP16, literal(-20)))
          CFI (cfiCond87) V1 load(1, XDATA, add(CFA_XSP16, literal(-19)))
          CFI (cfiCond87) V2 load(1, XDATA, add(CFA_XSP16, literal(-18)))
          CFI (cfiCond87) V3 load(1, XDATA, add(CFA_XSP16, literal(-17)))
          CFI (cfiCond87) V4 load(1, XDATA, add(CFA_XSP16, literal(-16)))
          CFI (cfiCond87) V5 load(1, XDATA, add(CFA_XSP16, literal(-15)))
          CFI (cfiCond87) V6 load(1, XDATA, add(CFA_XSP16, literal(-14)))
          CFI (cfiCond87) V7 load(1, XDATA, add(CFA_XSP16, literal(-13)))
          CFI (cfiCond87) V8 load(1, XDATA, add(CFA_XSP16, literal(-12)))
          CFI (cfiCond87) V9 load(1, XDATA, add(CFA_XSP16, literal(-11)))
          CFI (cfiCond87) V10 load(1, XDATA, add(CFA_XSP16, literal(-10)))
          CFI (cfiCond87) V11 load(1, XDATA, add(CFA_XSP16, literal(-9)))
          CFI (cfiCond87) V12 load(1, XDATA, add(CFA_XSP16, literal(-8)))
          CFI (cfiCond87) V13 load(1, XDATA, add(CFA_XSP16, literal(-7)))
          CFI (cfiCond87) R7 load(1, XDATA, add(CFA_XSP16, literal(-6)))
          CFI (cfiCond87) ?RET_LOW load(1, XDATA, add(CFA_XSP16, literal(-5)))
          CFI (cfiCond87) ?RET_HIGH load(1, XDATA, add(CFA_XSP16, literal(-4)))
          CFI (cfiCond87) ?BRET_EXT load(1, XDATA, add(CFA_XSP16, literal(-3)))
          CFI (cfiCond87) DPL0 load(1, XDATA, add(CFA_XSP16, literal(-2)))
          CFI (cfiCond87) DPH0 load(1, XDATA, add(CFA_XSP16, literal(-1)))
          CFI (cfiCond87) CFA_SP SP+-2
          CFI (cfiCond87) CFA_XSP16 add(XSP16, 98)
          CFI Block cfiCond88 Using cfiCommon0
          CFI (cfiCond88) Function zclGp_GpResponseCommandCB
          CFI (cfiCond88) Conditional ??CrossCallReturnLabel_72
          CFI (cfiCond88) R6 load(1, XDATA, add(CFA_XSP16, literal(-22)))
          CFI (cfiCond88) VB load(1, XDATA, add(CFA_XSP16, literal(-21)))
          CFI (cfiCond88) V0 load(1, XDATA, add(CFA_XSP16, literal(-20)))
          CFI (cfiCond88) V1 load(1, XDATA, add(CFA_XSP16, literal(-19)))
          CFI (cfiCond88) V2 load(1, XDATA, add(CFA_XSP16, literal(-18)))
          CFI (cfiCond88) V3 load(1, XDATA, add(CFA_XSP16, literal(-17)))
          CFI (cfiCond88) V4 load(1, XDATA, add(CFA_XSP16, literal(-16)))
          CFI (cfiCond88) V5 load(1, XDATA, add(CFA_XSP16, literal(-15)))
          CFI (cfiCond88) V6 load(1, XDATA, add(CFA_XSP16, literal(-14)))
          CFI (cfiCond88) V7 load(1, XDATA, add(CFA_XSP16, literal(-13)))
          CFI (cfiCond88) V8 load(1, XDATA, add(CFA_XSP16, literal(-12)))
          CFI (cfiCond88) V9 load(1, XDATA, add(CFA_XSP16, literal(-11)))
          CFI (cfiCond88) V10 load(1, XDATA, add(CFA_XSP16, literal(-10)))
          CFI (cfiCond88) V11 load(1, XDATA, add(CFA_XSP16, literal(-9)))
          CFI (cfiCond88) V12 load(1, XDATA, add(CFA_XSP16, literal(-8)))
          CFI (cfiCond88) V13 load(1, XDATA, add(CFA_XSP16, literal(-7)))
          CFI (cfiCond88) R7 load(1, XDATA, add(CFA_XSP16, literal(-6)))
          CFI (cfiCond88) ?RET_LOW load(1, XDATA, add(CFA_XSP16, literal(-5)))
          CFI (cfiCond88) ?RET_HIGH load(1, XDATA, add(CFA_XSP16, literal(-4)))
          CFI (cfiCond88) ?BRET_EXT load(1, XDATA, add(CFA_XSP16, literal(-3)))
          CFI (cfiCond88) DPL0 load(1, XDATA, add(CFA_XSP16, literal(-2)))
          CFI (cfiCond88) DPH0 load(1, XDATA, add(CFA_XSP16, literal(-1)))
          CFI (cfiCond88) CFA_SP SP+-2
          CFI (cfiCond88) CFA_XSP16 add(XSP16, 98)
          CFI Block cfiCond89 Using cfiCommon0
          CFI (cfiCond89) Function GP_SecReq
          CFI (cfiCond89) Conditional ??CrossCallReturnLabel_73
          CFI (cfiCond89) R6 load(1, XDATA, add(CFA_XSP16, literal(-24)))
          CFI (cfiCond89) VB load(1, XDATA, add(CFA_XSP16, literal(-23)))
          CFI (cfiCond89) V0 load(1, XDATA, add(CFA_XSP16, literal(-22)))
          CFI (cfiCond89) V1 load(1, XDATA, add(CFA_XSP16, literal(-21)))
          CFI (cfiCond89) V2 load(1, XDATA, add(CFA_XSP16, literal(-20)))
          CFI (cfiCond89) V3 load(1, XDATA, add(CFA_XSP16, literal(-19)))
          CFI (cfiCond89) V4 load(1, XDATA, add(CFA_XSP16, literal(-18)))
          CFI (cfiCond89) V5 load(1, XDATA, add(CFA_XSP16, literal(-17)))
          CFI (cfiCond89) V6 load(1, XDATA, add(CFA_XSP16, literal(-16)))
          CFI (cfiCond89) V7 load(1, XDATA, add(CFA_XSP16, literal(-15)))
          CFI (cfiCond89) V8 load(1, XDATA, add(CFA_XSP16, literal(-14)))
          CFI (cfiCond89) V9 load(1, XDATA, add(CFA_XSP16, literal(-13)))
          CFI (cfiCond89) V10 load(1, XDATA, add(CFA_XSP16, literal(-12)))
          CFI (cfiCond89) V11 load(1, XDATA, add(CFA_XSP16, literal(-11)))
          CFI (cfiCond89) V12 load(1, XDATA, add(CFA_XSP16, literal(-10)))
          CFI (cfiCond89) V13 load(1, XDATA, add(CFA_XSP16, literal(-9)))
          CFI (cfiCond89) V14 load(1, XDATA, add(CFA_XSP16, literal(-8)))
          CFI (cfiCond89) V15 load(1, XDATA, add(CFA_XSP16, literal(-7)))
          CFI (cfiCond89) R7 load(1, XDATA, add(CFA_XSP16, literal(-6)))
          CFI (cfiCond89) ?RET_LOW load(1, XDATA, add(CFA_XSP16, literal(-5)))
          CFI (cfiCond89) ?RET_HIGH load(1, XDATA, add(CFA_XSP16, literal(-4)))
          CFI (cfiCond89) ?BRET_EXT load(1, XDATA, add(CFA_XSP16, literal(-3)))
          CFI (cfiCond89) DPL0 load(1, XDATA, add(CFA_XSP16, literal(-2)))
          CFI (cfiCond89) DPH0 load(1, XDATA, add(CFA_XSP16, literal(-1)))
          CFI (cfiCond89) CFA_SP SP+-2
          CFI (cfiCond89) CFA_XSP16 add(XSP16, 127)
          CFI Block cfiCond90 Using cfiCommon0
          CFI (cfiCond90) Function GP_SecReq
          CFI (cfiCond90) Conditional ??CrossCallReturnLabel_74
          CFI (cfiCond90) R6 load(1, XDATA, add(CFA_XSP16, literal(-24)))
          CFI (cfiCond90) VB load(1, XDATA, add(CFA_XSP16, literal(-23)))
          CFI (cfiCond90) V0 load(1, XDATA, add(CFA_XSP16, literal(-22)))
          CFI (cfiCond90) V1 load(1, XDATA, add(CFA_XSP16, literal(-21)))
          CFI (cfiCond90) V2 load(1, XDATA, add(CFA_XSP16, literal(-20)))
          CFI (cfiCond90) V3 load(1, XDATA, add(CFA_XSP16, literal(-19)))
          CFI (cfiCond90) V4 load(1, XDATA, add(CFA_XSP16, literal(-18)))
          CFI (cfiCond90) V5 load(1, XDATA, add(CFA_XSP16, literal(-17)))
          CFI (cfiCond90) V6 load(1, XDATA, add(CFA_XSP16, literal(-16)))
          CFI (cfiCond90) V7 load(1, XDATA, add(CFA_XSP16, literal(-15)))
          CFI (cfiCond90) V8 load(1, XDATA, add(CFA_XSP16, literal(-14)))
          CFI (cfiCond90) V9 load(1, XDATA, add(CFA_XSP16, literal(-13)))
          CFI (cfiCond90) V10 load(1, XDATA, add(CFA_XSP16, literal(-12)))
          CFI (cfiCond90) V11 load(1, XDATA, add(CFA_XSP16, literal(-11)))
          CFI (cfiCond90) V12 load(1, XDATA, add(CFA_XSP16, literal(-10)))
          CFI (cfiCond90) V13 load(1, XDATA, add(CFA_XSP16, literal(-9)))
          CFI (cfiCond90) V14 load(1, XDATA, add(CFA_XSP16, literal(-8)))
          CFI (cfiCond90) V15 load(1, XDATA, add(CFA_XSP16, literal(-7)))
          CFI (cfiCond90) R7 load(1, XDATA, add(CFA_XSP16, literal(-6)))
          CFI (cfiCond90) ?RET_LOW load(1, XDATA, add(CFA_XSP16, literal(-5)))
          CFI (cfiCond90) ?RET_HIGH load(1, XDATA, add(CFA_XSP16, literal(-4)))
          CFI (cfiCond90) ?BRET_EXT load(1, XDATA, add(CFA_XSP16, literal(-3)))
          CFI (cfiCond90) DPL0 load(1, XDATA, add(CFA_XSP16, literal(-2)))
          CFI (cfiCond90) DPH0 load(1, XDATA, add(CFA_XSP16, literal(-1)))
          CFI (cfiCond90) CFA_SP SP+-2
          CFI (cfiCond90) CFA_XSP16 add(XSP16, 127)
          CFI Block cfiCond91 Using cfiCommon0
          CFI (cfiCond91) Function zclGp_ManteinanceIndParse
          CFI (cfiCond91) Conditional ??CrossCallReturnLabel_75
          CFI (cfiCond91) R6 load(1, XDATA, add(CFA_XSP16, literal(-15)))
          CFI (cfiCond91) VB load(1, XDATA, add(CFA_XSP16, literal(-14)))
          CFI (cfiCond91) V0 load(1, XDATA, add(CFA_XSP16, literal(-13)))
          CFI (cfiCond91) V1 load(1, XDATA, add(CFA_XSP16, literal(-12)))
          CFI (cfiCond91) V2 load(1, XDATA, add(CFA_XSP16, literal(-11)))
          CFI (cfiCond91) V3 load(1, XDATA, add(CFA_XSP16, literal(-10)))
          CFI (cfiCond91) V4 load(1, XDATA, add(CFA_XSP16, literal(-9)))
          CFI (cfiCond91) V5 load(1, XDATA, add(CFA_XSP16, literal(-8)))
          CFI (cfiCond91) V6 load(1, XDATA, add(CFA_XSP16, literal(-7)))
          CFI (cfiCond91) R7 load(1, XDATA, add(CFA_XSP16, literal(-6)))
          CFI (cfiCond91) ?RET_LOW load(1, XDATA, add(CFA_XSP16, literal(-5)))
          CFI (cfiCond91) ?RET_HIGH load(1, XDATA, add(CFA_XSP16, literal(-4)))
          CFI (cfiCond91) ?BRET_EXT load(1, XDATA, add(CFA_XSP16, literal(-3)))
          CFI (cfiCond91) DPL0 load(1, XDATA, add(CFA_XSP16, literal(-2)))
          CFI (cfiCond91) DPH0 load(1, XDATA, add(CFA_XSP16, literal(-1)))
          CFI (cfiCond91) CFA_XSP16 add(XSP16, 82)
          CFI Block cfiCond92 Using cfiCommon0
          CFI (cfiCond92) Function zclGp_GpResponseCommandCB
          CFI (cfiCond92) Conditional ??CrossCallReturnLabel_76
          CFI (cfiCond92) R6 load(1, XDATA, add(CFA_XSP16, literal(-22)))
          CFI (cfiCond92) VB load(1, XDATA, add(CFA_XSP16, literal(-21)))
          CFI (cfiCond92) V0 load(1, XDATA, add(CFA_XSP16, literal(-20)))
          CFI (cfiCond92) V1 load(1, XDATA, add(CFA_XSP16, literal(-19)))
          CFI (cfiCond92) V2 load(1, XDATA, add(CFA_XSP16, literal(-18)))
          CFI (cfiCond92) V3 load(1, XDATA, add(CFA_XSP16, literal(-17)))
          CFI (cfiCond92) V4 load(1, XDATA, add(CFA_XSP16, literal(-16)))
          CFI (cfiCond92) V5 load(1, XDATA, add(CFA_XSP16, literal(-15)))
          CFI (cfiCond92) V6 load(1, XDATA, add(CFA_XSP16, literal(-14)))
          CFI (cfiCond92) V7 load(1, XDATA, add(CFA_XSP16, literal(-13)))
          CFI (cfiCond92) V8 load(1, XDATA, add(CFA_XSP16, literal(-12)))
          CFI (cfiCond92) V9 load(1, XDATA, add(CFA_XSP16, literal(-11)))
          CFI (cfiCond92) V10 load(1, XDATA, add(CFA_XSP16, literal(-10)))
          CFI (cfiCond92) V11 load(1, XDATA, add(CFA_XSP16, literal(-9)))
          CFI (cfiCond92) V12 load(1, XDATA, add(CFA_XSP16, literal(-8)))
          CFI (cfiCond92) V13 load(1, XDATA, add(CFA_XSP16, literal(-7)))
          CFI (cfiCond92) R7 load(1, XDATA, add(CFA_XSP16, literal(-6)))
          CFI (cfiCond92) ?RET_LOW load(1, XDATA, add(CFA_XSP16, literal(-5)))
          CFI (cfiCond92) ?RET_HIGH load(1, XDATA, add(CFA_XSP16, literal(-4)))
          CFI (cfiCond92) ?BRET_EXT load(1, XDATA, add(CFA_XSP16, literal(-3)))
          CFI (cfiCond92) DPL0 load(1, XDATA, add(CFA_XSP16, literal(-2)))
          CFI (cfiCond92) DPH0 load(1, XDATA, add(CFA_XSP16, literal(-1)))
          CFI (cfiCond92) CFA_SP SP+-2
          CFI (cfiCond92) CFA_XSP16 add(XSP16, 98)
          CFI Block cfiPicker93 Using cfiCommon1
          CFI (cfiPicker93) NoFunction
          CFI (cfiPicker93) Picker
        MOV       DPL,A
        CLR       A
        ADDC      A,?V1
        MOV       DPH,A
        RET
          CFI EndBlock cfiCond82
          CFI EndBlock cfiCond83
          CFI EndBlock cfiCond84
          CFI EndBlock cfiCond85
          CFI EndBlock cfiCond86
          CFI EndBlock cfiCond87
          CFI EndBlock cfiCond88
          CFI EndBlock cfiCond89
          CFI EndBlock cfiCond90
          CFI EndBlock cfiCond91
          CFI EndBlock cfiCond92
          CFI EndBlock cfiPicker93

        RSEG BANKED_CODE:HUGECODE:NOROOT(0)
?Subroutine7:
          CFI Block cfiCond94 Using cfiCommon0
          CFI Function zclGp_GpResponseCommandCB
          CFI Conditional ??CrossCallReturnLabel_2
          CFI R6 load(1, XDATA, add(CFA_XSP16, literal(-22)))
          CFI VB load(1, XDATA, add(CFA_XSP16, literal(-21)))
          CFI V0 load(1, XDATA, add(CFA_XSP16, literal(-20)))
          CFI V1 load(1, XDATA, add(CFA_XSP16, literal(-19)))
          CFI V2 load(1, XDATA, add(CFA_XSP16, literal(-18)))
          CFI V3 load(1, XDATA, add(CFA_XSP16, literal(-17)))
          CFI V4 load(1, XDATA, add(CFA_XSP16, literal(-16)))
          CFI V5 load(1, XDATA, add(CFA_XSP16, literal(-15)))
          CFI V6 load(1, XDATA, add(CFA_XSP16, literal(-14)))
          CFI V7 load(1, XDATA, add(CFA_XSP16, literal(-13)))
          CFI V8 load(1, XDATA, add(CFA_XSP16, literal(-12)))
          CFI V9 load(1, XDATA, add(CFA_XSP16, literal(-11)))
          CFI V10 load(1, XDATA, add(CFA_XSP16, literal(-10)))
          CFI V11 load(1, XDATA, add(CFA_XSP16, literal(-9)))
          CFI V12 load(1, XDATA, add(CFA_XSP16, literal(-8)))
          CFI V13 load(1, XDATA, add(CFA_XSP16, literal(-7)))
          CFI R7 load(1, XDATA, add(CFA_XSP16, literal(-6)))
          CFI ?RET_LOW load(1, XDATA, add(CFA_XSP16, literal(-5)))
          CFI ?RET_HIGH load(1, XDATA, add(CFA_XSP16, literal(-4)))
          CFI ?BRET_EXT load(1, XDATA, add(CFA_XSP16, literal(-3)))
          CFI DPL0 load(1, XDATA, add(CFA_XSP16, literal(-2)))
          CFI DPH0 load(1, XDATA, add(CFA_XSP16, literal(-1)))
          CFI CFA_SP SP+-2
          CFI CFA_XSP16 add(XSP16, 98)
          CFI Block cfiCond95 Using cfiCommon0
          CFI (cfiCond95) Function zclGp_GpResponseCommandCB
          CFI (cfiCond95) Conditional ??CrossCallReturnLabel_3
          CFI (cfiCond95) R6 load(1, XDATA, add(CFA_XSP16, literal(-22)))
          CFI (cfiCond95) VB load(1, XDATA, add(CFA_XSP16, literal(-21)))
          CFI (cfiCond95) V0 load(1, XDATA, add(CFA_XSP16, literal(-20)))
          CFI (cfiCond95) V1 load(1, XDATA, add(CFA_XSP16, literal(-19)))
          CFI (cfiCond95) V2 load(1, XDATA, add(CFA_XSP16, literal(-18)))
          CFI (cfiCond95) V3 load(1, XDATA, add(CFA_XSP16, literal(-17)))
          CFI (cfiCond95) V4 load(1, XDATA, add(CFA_XSP16, literal(-16)))
          CFI (cfiCond95) V5 load(1, XDATA, add(CFA_XSP16, literal(-15)))
          CFI (cfiCond95) V6 load(1, XDATA, add(CFA_XSP16, literal(-14)))
          CFI (cfiCond95) V7 load(1, XDATA, add(CFA_XSP16, literal(-13)))
          CFI (cfiCond95) V8 load(1, XDATA, add(CFA_XSP16, literal(-12)))
          CFI (cfiCond95) V9 load(1, XDATA, add(CFA_XSP16, literal(-11)))
          CFI (cfiCond95) V10 load(1, XDATA, add(CFA_XSP16, literal(-10)))
          CFI (cfiCond95) V11 load(1, XDATA, add(CFA_XSP16, literal(-9)))
          CFI (cfiCond95) V12 load(1, XDATA, add(CFA_XSP16, literal(-8)))
          CFI (cfiCond95) V13 load(1, XDATA, add(CFA_XSP16, literal(-7)))
          CFI (cfiCond95) R7 load(1, XDATA, add(CFA_XSP16, literal(-6)))
          CFI (cfiCond95) ?RET_LOW load(1, XDATA, add(CFA_XSP16, literal(-5)))
          CFI (cfiCond95) ?RET_HIGH load(1, XDATA, add(CFA_XSP16, literal(-4)))
          CFI (cfiCond95) ?BRET_EXT load(1, XDATA, add(CFA_XSP16, literal(-3)))
          CFI (cfiCond95) DPL0 load(1, XDATA, add(CFA_XSP16, literal(-2)))
          CFI (cfiCond95) DPH0 load(1, XDATA, add(CFA_XSP16, literal(-1)))
          CFI (cfiCond95) CFA_SP SP+-2
          CFI (cfiCond95) CFA_XSP16 add(XSP16, 98)
          CFI Block cfiPicker96 Using cfiCommon1
          CFI (cfiPicker96) NoFunction
          CFI (cfiPicker96) Picker
        MOV       DPL,R6
        MOV       DPH,R7
        MOV       A,R0
        MOVX      @DPTR,A
        INC       DPTR
        MOV       A,R1
        MOVX      @DPTR,A
        MOV       DPL,R0
        MOV       DPH,R1
        MOVX      A,@DPTR
        RET
          CFI EndBlock cfiCond94
          CFI EndBlock cfiCond95
          CFI EndBlock cfiPicker96
//  904 
//  905 
//  906 
//  907 /*********************************************************************
//  908  * @fn      zclGp_GpProxyCommissioningModeCB
//  909  *
//  910  * @brief   Callback from the ZCL GreenPower Cluster Library when
//  911  *          it received a Gp Commissioning Mode command.
//  912  *
//  913  * @param   pCmd - command payload
//  914  *
//  915  * @return  none
//  916  */

        RSEG BANKED_CODE:HUGECODE:NOROOT(0)
//  917 static void zclGp_GpProxyCommissioningModeCB(zclGpProxyCommissioningMode_t* pCmd)
zclGp_GpProxyCommissioningModeCB:
          CFI Block cfiBlock97 Using cfiCommon0
          CFI Function zclGp_GpProxyCommissioningModeCB
        CODE
//  918 {
        FUNCALL zclGp_GpProxyCommissioningModeCB, osal_build_uint16
        LOCFRAME ISTACK, 0, STACK
        LOCFRAME PSTACK, 0, STACK
        LOCFRAME XSTACK, 10, STACK
        LOCFRAME IOVERLAY, 0, STATIC
        LOCFRAME DOVERLAY, 0, STATIC
        ARGFRAME ISTACK, 0, STACK
        ARGFRAME PSTACK, 0, STACK
        ARGFRAME XSTACK, 10, STACK
        ARGFRAME IOVERLAY, 0, STATIC
        ARGFRAME DOVERLAY, 0, STATIC
        FUNCALL zclGp_GpProxyCommissioningModeCB, gp_stopCommissioningMode
        LOCFRAME ISTACK, 0, STACK
        LOCFRAME PSTACK, 0, STACK
        LOCFRAME XSTACK, 10, STACK
        LOCFRAME IOVERLAY, 0, STATIC
        LOCFRAME DOVERLAY, 0, STATIC
        ARGFRAME ISTACK, 0, STACK
        ARGFRAME PSTACK, 0, STACK
        ARGFRAME XSTACK, 10, STACK
        ARGFRAME IOVERLAY, 0, STATIC
        ARGFRAME DOVERLAY, 0, STATIC
        REQUIRE ?V0
        REQUIRE ?V1
        MOV       A,#-0xa
        LCALL     ?BANKED_ENTER_XDATA
          CFI DPH0 load(1, XDATA, add(CFA_XSP16, literal(-1)))
          CFI DPL0 load(1, XDATA, add(CFA_XSP16, literal(-2)))
          CFI ?BRET_EXT load(1, XDATA, add(CFA_XSP16, literal(-3)))
          CFI ?RET_HIGH load(1, XDATA, add(CFA_XSP16, literal(-4)))
          CFI ?RET_LOW load(1, XDATA, add(CFA_XSP16, literal(-5)))
          CFI R7 load(1, XDATA, add(CFA_XSP16, literal(-6)))
          CFI V1 load(1, XDATA, add(CFA_XSP16, literal(-7)))
          CFI V0 load(1, XDATA, add(CFA_XSP16, literal(-8)))
          CFI VB load(1, XDATA, add(CFA_XSP16, literal(-9)))
          CFI R6 load(1, XDATA, add(CFA_XSP16, literal(-10)))
          CFI CFA_SP SP+0
          CFI CFA_XSP16 add(XSP16, 10)
        ; Saved register size: 10
        ; Auto size: 0
        MOV       A,R2
        MOV       R6,A
        MOV       A,R3
        MOV       R7,A
//  919   gp_commissioningOptions = pCmd->options;
        MOV       DPL,R6
        MOV       DPH,R7
        INC       DPTR
        INC       DPTR
        MOVX      A,@DPTR
        MOV       DPTR,#gp_commissioningOptions
        MOVX      @DPTR,A
//  920   uint32 CommissioningWindow = PGG_COMMISSIONING_WINDOW;
//  921   
//  922   if ( ( zgGP_InCommissioningMode == TRUE ) && ( gp_commissionerAddress != pCmd->srcAddr ) )
        MOV       DPTR,#zgGP_InCommissioningMode
        MOVX      A,@DPTR
        XRL       A,#0x1
        JNZ       ??zclGp_GpProxyCommissioningModeCB_0
        MOV       DPTR,#gp_commissionerAddress
        LCALL     ??Subroutine37_0 & 0xFFFF
??CrossCallReturnLabel_55:
        MOV       DPL,R6
        MOV       DPH,R7
        MOVX      A,@DPTR
        XRL       A,R0
        JNZ       ??zclGp_GpProxyCommissioningModeCB_1
        INC       DPTR
        MOVX      A,@DPTR
        XRL       A,R1
??zclGp_GpProxyCommissioningModeCB_1:
        JNZ       ??zclGp_GpProxyCommissioningModeCB_2
//  923   {
//  924     // If is in commissioning mode and the soruce address is different from 
//  925     // the device that set the proxy in commissioning mode, then drop
//  926     // the request.
//  927     return;
//  928   }
//  929 
//  930   //Enter in commissioning mode
//  931   if(gp_commissioningOptions & GP_COMM_OPT_ACTION_MASK)
??zclGp_GpProxyCommissioningModeCB_0:
        MOV       DPTR,#gp_commissioningOptions
        MOVX      A,@DPTR
        MOV       C,0xE0 /* A   */.0
        JNC       ??zclGp_GpProxyCommissioningModeCB_3
//  932   {
//  933   
//  934 #if 0
//  935     if(gp_commissioningOptions & GP_COMM_OPT_CHANNEL_PRES_MASK)
//  936     {
//  937       //Section A.3.3.5.3, channel field is not supported in the current version of the spec
//  938     }
//  939 #endif
//  940  
//  941     if(gp_commissioningOptions & GP_COMM_OPT_EXIT_ON_WINDOW_EXPIRATION_MASK)
        MOV       C,0xE0 /* A   */.1
        JNC       ??CrossCallReturnLabel_92
//  942     {
//  943       CommissioningWindow = osal_build_uint16(pCmd->pData);
        MOV       A,R6
        ADD       A,#0x3
        LCALL     ?Subroutine23 & 0xFFFF
??CrossCallReturnLabel_24:
        LCALL     ??Subroutine41_0 & 0xFFFF
??CrossCallReturnLabel_82:
        LCALL     `??osal_build_uint16::?relay`; Banked call to: osal_build_uint16
//  944       pCmd->pData += sizeof(uint16);
        LCALL     ?Subroutine13 & 0xFFFF
//  945       
//  946       
//  947     }
??CrossCallReturnLabel_8:
        LCALL     ??Subroutine44_0 & 0xFFFF
//  948     if(gp_commissioningOptions & GP_COMM_OPT_UNICAST_COMM_MASK)
??CrossCallReturnLabel_92:
        MOV       DPTR,#gp_commissioningOptions
        MOVX      A,@DPTR
        MOV       C,0xE0 /* A   */.5
        JNC       ??zclGp_GpProxyCommissioningModeCB_4
//  949     {
//  950       gp_commissionerAddress = pCmd->srcAddr;
        MOV       DPL,R6
        MOV       DPH,R7
        LCALL     ??Subroutine37_0 & 0xFFFF
//  951     }
??CrossCallReturnLabel_56:
        MOV       DPTR,#gp_commissionerAddress
        MOV       A,R0
        MOVX      @DPTR,A
        INC       DPTR
        MOV       A,R1
        SJMP      ??zclGp_GpProxyCommissioningModeCB_5
//  952     else
//  953     {
//  954       gp_commissionerAddress = 0xFFFF;
??zclGp_GpProxyCommissioningModeCB_4:
        MOV       DPTR,#gp_commissionerAddress
        MOV       A,#-0x1
        MOVX      @DPTR,A
        INC       DPTR
??zclGp_GpProxyCommissioningModeCB_5:
        MOVX      @DPTR,A
//  955     }
//  956     
//  957     //Convert to timer units
//  958     CommissioningWindow = CommissioningWindow * 1000;
//  959     
//  960     //Exit upon expire
//  961     zgGP_InCommissioningMode = TRUE;
        MOV       DPTR,#zgGP_InCommissioningMode
        MOV       A,#0x1
        MOVX      @DPTR,A
//  962     
//  963     //Notify the user about entering in commissioning mode
//  964     if(pfnCommissioningMode)
        LCALL     ?Subroutine12 & 0xFFFF
??CrossCallReturnLabel_49:
        JZ        ??zclGp_GpProxyCommissioningModeCB_2
//  965     {
//  966       pfnCommissioningMode(TRUE);
        ; Setup parameters for indirect call
        MOV       R1,#0x1
        LCALL     ??Subroutine46_0 & 0xFFFF
//  967     }
//  968   }
??CrossCallReturnLabel_112:
        LCALL     ?CALL_IND
        SJMP      ??zclGp_GpProxyCommissioningModeCB_2
//  969   //Exit commissioning mode
//  970   else
//  971   { 
//  972     gp_stopCommissioningMode();
??zclGp_GpProxyCommissioningModeCB_3:
        ; Setup parameters for call to function gp_stopCommissioningMode
        LCALL     `??gp_stopCommissioningMode::?relay`; Banked call to: gp_stopCommissioningMode
//  973   }
//  974 }
??zclGp_GpProxyCommissioningModeCB_2:
        MOV       R7,#0x2
        LJMP      ?BANKED_LEAVE_XDATA
          CFI EndBlock cfiBlock97

        RSEG BANKED_CODE:HUGECODE:NOROOT(0)
?Subroutine11:
          CFI Block cfiCond98 Using cfiCommon0
          CFI Function zclGp_GpProxyTableReqCB
          CFI Conditional ??CrossCallReturnLabel_85
          CFI R6 load(1, XDATA, add(CFA_XSP16, literal(-15)))
          CFI VB load(1, XDATA, add(CFA_XSP16, literal(-14)))
          CFI V0 load(1, XDATA, add(CFA_XSP16, literal(-13)))
          CFI V1 load(1, XDATA, add(CFA_XSP16, literal(-12)))
          CFI V2 load(1, XDATA, add(CFA_XSP16, literal(-11)))
          CFI V3 load(1, XDATA, add(CFA_XSP16, literal(-10)))
          CFI V4 load(1, XDATA, add(CFA_XSP16, literal(-9)))
          CFI V5 load(1, XDATA, add(CFA_XSP16, literal(-8)))
          CFI V6 load(1, XDATA, add(CFA_XSP16, literal(-7)))
          CFI R7 load(1, XDATA, add(CFA_XSP16, literal(-6)))
          CFI ?RET_LOW load(1, XDATA, add(CFA_XSP16, literal(-5)))
          CFI ?RET_HIGH load(1, XDATA, add(CFA_XSP16, literal(-4)))
          CFI ?BRET_EXT load(1, XDATA, add(CFA_XSP16, literal(-3)))
          CFI DPL0 load(1, XDATA, add(CFA_XSP16, literal(-2)))
          CFI DPH0 load(1, XDATA, add(CFA_XSP16, literal(-1)))
          CFI CFA_SP SP+-2
          CFI CFA_XSP16 add(XSP16, 178)
          CFI Block cfiCond99 Using cfiCommon0
          CFI (cfiCond99) Function zclGp_GpProxyTableReqCB
          CFI (cfiCond99) Conditional ??CrossCallReturnLabel_86
          CFI (cfiCond99) R6 load(1, XDATA, add(CFA_XSP16, literal(-15)))
          CFI (cfiCond99) VB load(1, XDATA, add(CFA_XSP16, literal(-14)))
          CFI (cfiCond99) V0 load(1, XDATA, add(CFA_XSP16, literal(-13)))
          CFI (cfiCond99) V1 load(1, XDATA, add(CFA_XSP16, literal(-12)))
          CFI (cfiCond99) V2 load(1, XDATA, add(CFA_XSP16, literal(-11)))
          CFI (cfiCond99) V3 load(1, XDATA, add(CFA_XSP16, literal(-10)))
          CFI (cfiCond99) V4 load(1, XDATA, add(CFA_XSP16, literal(-9)))
          CFI (cfiCond99) V5 load(1, XDATA, add(CFA_XSP16, literal(-8)))
          CFI (cfiCond99) V6 load(1, XDATA, add(CFA_XSP16, literal(-7)))
          CFI (cfiCond99) R7 load(1, XDATA, add(CFA_XSP16, literal(-6)))
          CFI (cfiCond99) ?RET_LOW load(1, XDATA, add(CFA_XSP16, literal(-5)))
          CFI (cfiCond99) ?RET_HIGH load(1, XDATA, add(CFA_XSP16, literal(-4)))
          CFI (cfiCond99) ?BRET_EXT load(1, XDATA, add(CFA_XSP16, literal(-3)))
          CFI (cfiCond99) DPL0 load(1, XDATA, add(CFA_XSP16, literal(-2)))
          CFI (cfiCond99) DPH0 load(1, XDATA, add(CFA_XSP16, literal(-1)))
          CFI (cfiCond99) CFA_SP SP+-2
          CFI (cfiCond99) CFA_XSP16 add(XSP16, 178)
          CFI Block cfiPicker100 Using cfiCommon1
          CFI (cfiPicker100) NoFunction
          CFI (cfiPicker100) Picker
        MOV       DPL,?V2
        MOV       DPH,?V3
          CFI EndBlock cfiCond98
          CFI EndBlock cfiCond99
          CFI EndBlock cfiPicker100
        REQUIRE ??Subroutine41_0
        ; // Fall through to label ??Subroutine41_0

        RSEG BANKED_CODE:HUGECODE:NOROOT(0)
??Subroutine41_0:
          CFI Block cfiCond101 Using cfiCommon0
          CFI Function zclGp_GpProxyTableReqCB
          CFI Conditional ??CrossCallReturnLabel_77
          CFI R6 load(1, XDATA, add(CFA_XSP16, literal(-15)))
          CFI VB load(1, XDATA, add(CFA_XSP16, literal(-14)))
          CFI V0 load(1, XDATA, add(CFA_XSP16, literal(-13)))
          CFI V1 load(1, XDATA, add(CFA_XSP16, literal(-12)))
          CFI V2 load(1, XDATA, add(CFA_XSP16, literal(-11)))
          CFI V3 load(1, XDATA, add(CFA_XSP16, literal(-10)))
          CFI V4 load(1, XDATA, add(CFA_XSP16, literal(-9)))
          CFI V5 load(1, XDATA, add(CFA_XSP16, literal(-8)))
          CFI V6 load(1, XDATA, add(CFA_XSP16, literal(-7)))
          CFI R7 load(1, XDATA, add(CFA_XSP16, literal(-6)))
          CFI ?RET_LOW load(1, XDATA, add(CFA_XSP16, literal(-5)))
          CFI ?RET_HIGH load(1, XDATA, add(CFA_XSP16, literal(-4)))
          CFI ?BRET_EXT load(1, XDATA, add(CFA_XSP16, literal(-3)))
          CFI DPL0 load(1, XDATA, add(CFA_XSP16, literal(-2)))
          CFI DPH0 load(1, XDATA, add(CFA_XSP16, literal(-1)))
          CFI CFA_SP SP+-2
          CFI CFA_XSP16 add(XSP16, 180)
          CFI Block cfiCond102 Using cfiCommon0
          CFI (cfiCond102) Function zclGp_GpProxyTableReqCB
          CFI (cfiCond102) Conditional ??CrossCallReturnLabel_78
          CFI (cfiCond102) R6 load(1, XDATA, add(CFA_XSP16, literal(-15)))
          CFI (cfiCond102) VB load(1, XDATA, add(CFA_XSP16, literal(-14)))
          CFI (cfiCond102) V0 load(1, XDATA, add(CFA_XSP16, literal(-13)))
          CFI (cfiCond102) V1 load(1, XDATA, add(CFA_XSP16, literal(-12)))
          CFI (cfiCond102) V2 load(1, XDATA, add(CFA_XSP16, literal(-11)))
          CFI (cfiCond102) V3 load(1, XDATA, add(CFA_XSP16, literal(-10)))
          CFI (cfiCond102) V4 load(1, XDATA, add(CFA_XSP16, literal(-9)))
          CFI (cfiCond102) V5 load(1, XDATA, add(CFA_XSP16, literal(-8)))
          CFI (cfiCond102) V6 load(1, XDATA, add(CFA_XSP16, literal(-7)))
          CFI (cfiCond102) R7 load(1, XDATA, add(CFA_XSP16, literal(-6)))
          CFI (cfiCond102) ?RET_LOW load(1, XDATA, add(CFA_XSP16, literal(-5)))
          CFI (cfiCond102) ?RET_HIGH load(1, XDATA, add(CFA_XSP16, literal(-4)))
          CFI (cfiCond102) ?BRET_EXT load(1, XDATA, add(CFA_XSP16, literal(-3)))
          CFI (cfiCond102) DPL0 load(1, XDATA, add(CFA_XSP16, literal(-2)))
          CFI (cfiCond102) DPH0 load(1, XDATA, add(CFA_XSP16, literal(-1)))
          CFI (cfiCond102) CFA_SP SP+-2
          CFI (cfiCond102) CFA_XSP16 add(XSP16, 180)
          CFI Block cfiCond103 Using cfiCommon0
          CFI (cfiCond103) Function zclGp_GpResponseCommandCB
          CFI (cfiCond103) Conditional ??CrossCallReturnLabel_79
          CFI (cfiCond103) R6 load(1, XDATA, add(CFA_XSP16, literal(-22)))
          CFI (cfiCond103) VB load(1, XDATA, add(CFA_XSP16, literal(-21)))
          CFI (cfiCond103) V0 load(1, XDATA, add(CFA_XSP16, literal(-20)))
          CFI (cfiCond103) V1 load(1, XDATA, add(CFA_XSP16, literal(-19)))
          CFI (cfiCond103) V2 load(1, XDATA, add(CFA_XSP16, literal(-18)))
          CFI (cfiCond103) V3 load(1, XDATA, add(CFA_XSP16, literal(-17)))
          CFI (cfiCond103) V4 load(1, XDATA, add(CFA_XSP16, literal(-16)))
          CFI (cfiCond103) V5 load(1, XDATA, add(CFA_XSP16, literal(-15)))
          CFI (cfiCond103) V6 load(1, XDATA, add(CFA_XSP16, literal(-14)))
          CFI (cfiCond103) V7 load(1, XDATA, add(CFA_XSP16, literal(-13)))
          CFI (cfiCond103) V8 load(1, XDATA, add(CFA_XSP16, literal(-12)))
          CFI (cfiCond103) V9 load(1, XDATA, add(CFA_XSP16, literal(-11)))
          CFI (cfiCond103) V10 load(1, XDATA, add(CFA_XSP16, literal(-10)))
          CFI (cfiCond103) V11 load(1, XDATA, add(CFA_XSP16, literal(-9)))
          CFI (cfiCond103) V12 load(1, XDATA, add(CFA_XSP16, literal(-8)))
          CFI (cfiCond103) V13 load(1, XDATA, add(CFA_XSP16, literal(-7)))
          CFI (cfiCond103) R7 load(1, XDATA, add(CFA_XSP16, literal(-6)))
          CFI (cfiCond103) ?RET_LOW load(1, XDATA, add(CFA_XSP16, literal(-5)))
          CFI (cfiCond103) ?RET_HIGH load(1, XDATA, add(CFA_XSP16, literal(-4)))
          CFI (cfiCond103) ?BRET_EXT load(1, XDATA, add(CFA_XSP16, literal(-3)))
          CFI (cfiCond103) DPL0 load(1, XDATA, add(CFA_XSP16, literal(-2)))
          CFI (cfiCond103) DPH0 load(1, XDATA, add(CFA_XSP16, literal(-1)))
          CFI (cfiCond103) CFA_SP SP+-2
          CFI (cfiCond103) CFA_XSP16 add(XSP16, 98)
          CFI Block cfiCond104 Using cfiCommon0
          CFI (cfiCond104) Function zclGp_GpResponseCommandCB
          CFI (cfiCond104) Conditional ??CrossCallReturnLabel_80
          CFI (cfiCond104) R6 load(1, XDATA, add(CFA_XSP16, literal(-22)))
          CFI (cfiCond104) VB load(1, XDATA, add(CFA_XSP16, literal(-21)))
          CFI (cfiCond104) V0 load(1, XDATA, add(CFA_XSP16, literal(-20)))
          CFI (cfiCond104) V1 load(1, XDATA, add(CFA_XSP16, literal(-19)))
          CFI (cfiCond104) V2 load(1, XDATA, add(CFA_XSP16, literal(-18)))
          CFI (cfiCond104) V3 load(1, XDATA, add(CFA_XSP16, literal(-17)))
          CFI (cfiCond104) V4 load(1, XDATA, add(CFA_XSP16, literal(-16)))
          CFI (cfiCond104) V5 load(1, XDATA, add(CFA_XSP16, literal(-15)))
          CFI (cfiCond104) V6 load(1, XDATA, add(CFA_XSP16, literal(-14)))
          CFI (cfiCond104) V7 load(1, XDATA, add(CFA_XSP16, literal(-13)))
          CFI (cfiCond104) V8 load(1, XDATA, add(CFA_XSP16, literal(-12)))
          CFI (cfiCond104) V9 load(1, XDATA, add(CFA_XSP16, literal(-11)))
          CFI (cfiCond104) V10 load(1, XDATA, add(CFA_XSP16, literal(-10)))
          CFI (cfiCond104) V11 load(1, XDATA, add(CFA_XSP16, literal(-9)))
          CFI (cfiCond104) V12 load(1, XDATA, add(CFA_XSP16, literal(-8)))
          CFI (cfiCond104) V13 load(1, XDATA, add(CFA_XSP16, literal(-7)))
          CFI (cfiCond104) R7 load(1, XDATA, add(CFA_XSP16, literal(-6)))
          CFI (cfiCond104) ?RET_LOW load(1, XDATA, add(CFA_XSP16, literal(-5)))
          CFI (cfiCond104) ?RET_HIGH load(1, XDATA, add(CFA_XSP16, literal(-4)))
          CFI (cfiCond104) ?BRET_EXT load(1, XDATA, add(CFA_XSP16, literal(-3)))
          CFI (cfiCond104) DPL0 load(1, XDATA, add(CFA_XSP16, literal(-2)))
          CFI (cfiCond104) DPH0 load(1, XDATA, add(CFA_XSP16, literal(-1)))
          CFI (cfiCond104) CFA_SP SP+-2
          CFI (cfiCond104) CFA_XSP16 add(XSP16, 102)
          CFI Block cfiCond105 Using cfiCommon0
          CFI (cfiCond105) Function zclGp_GpResponseCommandCB
          CFI (cfiCond105) Conditional ??CrossCallReturnLabel_81
          CFI (cfiCond105) R6 load(1, XDATA, add(CFA_XSP16, literal(-22)))
          CFI (cfiCond105) VB load(1, XDATA, add(CFA_XSP16, literal(-21)))
          CFI (cfiCond105) V0 load(1, XDATA, add(CFA_XSP16, literal(-20)))
          CFI (cfiCond105) V1 load(1, XDATA, add(CFA_XSP16, literal(-19)))
          CFI (cfiCond105) V2 load(1, XDATA, add(CFA_XSP16, literal(-18)))
          CFI (cfiCond105) V3 load(1, XDATA, add(CFA_XSP16, literal(-17)))
          CFI (cfiCond105) V4 load(1, XDATA, add(CFA_XSP16, literal(-16)))
          CFI (cfiCond105) V5 load(1, XDATA, add(CFA_XSP16, literal(-15)))
          CFI (cfiCond105) V6 load(1, XDATA, add(CFA_XSP16, literal(-14)))
          CFI (cfiCond105) V7 load(1, XDATA, add(CFA_XSP16, literal(-13)))
          CFI (cfiCond105) V8 load(1, XDATA, add(CFA_XSP16, literal(-12)))
          CFI (cfiCond105) V9 load(1, XDATA, add(CFA_XSP16, literal(-11)))
          CFI (cfiCond105) V10 load(1, XDATA, add(CFA_XSP16, literal(-10)))
          CFI (cfiCond105) V11 load(1, XDATA, add(CFA_XSP16, literal(-9)))
          CFI (cfiCond105) V12 load(1, XDATA, add(CFA_XSP16, literal(-8)))
          CFI (cfiCond105) V13 load(1, XDATA, add(CFA_XSP16, literal(-7)))
          CFI (cfiCond105) R7 load(1, XDATA, add(CFA_XSP16, literal(-6)))
          CFI (cfiCond105) ?RET_LOW load(1, XDATA, add(CFA_XSP16, literal(-5)))
          CFI (cfiCond105) ?RET_HIGH load(1, XDATA, add(CFA_XSP16, literal(-4)))
          CFI (cfiCond105) ?BRET_EXT load(1, XDATA, add(CFA_XSP16, literal(-3)))
          CFI (cfiCond105) DPL0 load(1, XDATA, add(CFA_XSP16, literal(-2)))
          CFI (cfiCond105) DPH0 load(1, XDATA, add(CFA_XSP16, literal(-1)))
          CFI (cfiCond105) CFA_SP SP+-2
          CFI (cfiCond105) CFA_XSP16 add(XSP16, 102)
          CFI Block cfiCond106 Using cfiCommon0
          CFI (cfiCond106) Function zclGp_GpProxyCommissioningModeCB
          CFI (cfiCond106) Conditional ??CrossCallReturnLabel_82
          CFI (cfiCond106) R6 load(1, XDATA, add(CFA_XSP16, literal(-10)))
          CFI (cfiCond106) VB load(1, XDATA, add(CFA_XSP16, literal(-9)))
          CFI (cfiCond106) V0 load(1, XDATA, add(CFA_XSP16, literal(-8)))
          CFI (cfiCond106) V1 load(1, XDATA, add(CFA_XSP16, literal(-7)))
          CFI (cfiCond106) R7 load(1, XDATA, add(CFA_XSP16, literal(-6)))
          CFI (cfiCond106) ?RET_LOW load(1, XDATA, add(CFA_XSP16, literal(-5)))
          CFI (cfiCond106) ?RET_HIGH load(1, XDATA, add(CFA_XSP16, literal(-4)))
          CFI (cfiCond106) ?BRET_EXT load(1, XDATA, add(CFA_XSP16, literal(-3)))
          CFI (cfiCond106) DPL0 load(1, XDATA, add(CFA_XSP16, literal(-2)))
          CFI (cfiCond106) DPH0 load(1, XDATA, add(CFA_XSP16, literal(-1)))
          CFI (cfiCond106) CFA_SP SP+-2
          CFI (cfiCond106) CFA_XSP16 add(XSP16, 10)
          CFI Block cfiCond107 Using cfiCommon0
          CFI (cfiCond107) Function GP_DataInd
          CFI (cfiCond107) Conditional ??CrossCallReturnLabel_83
          CFI (cfiCond107) R6 load(1, XDATA, add(CFA_XSP16, literal(-16)))
          CFI (cfiCond107) VB load(1, XDATA, add(CFA_XSP16, literal(-15)))
          CFI (cfiCond107) V0 load(1, XDATA, add(CFA_XSP16, literal(-14)))
          CFI (cfiCond107) V1 load(1, XDATA, add(CFA_XSP16, literal(-13)))
          CFI (cfiCond107) V2 load(1, XDATA, add(CFA_XSP16, literal(-12)))
          CFI (cfiCond107) V3 load(1, XDATA, add(CFA_XSP16, literal(-11)))
          CFI (cfiCond107) V4 load(1, XDATA, add(CFA_XSP16, literal(-10)))
          CFI (cfiCond107) V5 load(1, XDATA, add(CFA_XSP16, literal(-9)))
          CFI (cfiCond107) V6 load(1, XDATA, add(CFA_XSP16, literal(-8)))
          CFI (cfiCond107) V7 load(1, XDATA, add(CFA_XSP16, literal(-7)))
          CFI (cfiCond107) R7 load(1, XDATA, add(CFA_XSP16, literal(-6)))
          CFI (cfiCond107) ?RET_LOW load(1, XDATA, add(CFA_XSP16, literal(-5)))
          CFI (cfiCond107) ?RET_HIGH load(1, XDATA, add(CFA_XSP16, literal(-4)))
          CFI (cfiCond107) ?BRET_EXT load(1, XDATA, add(CFA_XSP16, literal(-3)))
          CFI (cfiCond107) DPL0 load(1, XDATA, add(CFA_XSP16, literal(-2)))
          CFI (cfiCond107) DPH0 load(1, XDATA, add(CFA_XSP16, literal(-1)))
          CFI (cfiCond107) CFA_SP SP+-2
          CFI (cfiCond107) CFA_XSP16 add(XSP16, 152)
          CFI Block cfiCond108 Using cfiCommon0
          CFI (cfiCond108) Function GP_SecReq
          CFI (cfiCond108) Conditional ??CrossCallReturnLabel_84
          CFI (cfiCond108) R6 load(1, XDATA, add(CFA_XSP16, literal(-24)))
          CFI (cfiCond108) VB load(1, XDATA, add(CFA_XSP16, literal(-23)))
          CFI (cfiCond108) V0 load(1, XDATA, add(CFA_XSP16, literal(-22)))
          CFI (cfiCond108) V1 load(1, XDATA, add(CFA_XSP16, literal(-21)))
          CFI (cfiCond108) V2 load(1, XDATA, add(CFA_XSP16, literal(-20)))
          CFI (cfiCond108) V3 load(1, XDATA, add(CFA_XSP16, literal(-19)))
          CFI (cfiCond108) V4 load(1, XDATA, add(CFA_XSP16, literal(-18)))
          CFI (cfiCond108) V5 load(1, XDATA, add(CFA_XSP16, literal(-17)))
          CFI (cfiCond108) V6 load(1, XDATA, add(CFA_XSP16, literal(-16)))
          CFI (cfiCond108) V7 load(1, XDATA, add(CFA_XSP16, literal(-15)))
          CFI (cfiCond108) V8 load(1, XDATA, add(CFA_XSP16, literal(-14)))
          CFI (cfiCond108) V9 load(1, XDATA, add(CFA_XSP16, literal(-13)))
          CFI (cfiCond108) V10 load(1, XDATA, add(CFA_XSP16, literal(-12)))
          CFI (cfiCond108) V11 load(1, XDATA, add(CFA_XSP16, literal(-11)))
          CFI (cfiCond108) V12 load(1, XDATA, add(CFA_XSP16, literal(-10)))
          CFI (cfiCond108) V13 load(1, XDATA, add(CFA_XSP16, literal(-9)))
          CFI (cfiCond108) V14 load(1, XDATA, add(CFA_XSP16, literal(-8)))
          CFI (cfiCond108) V15 load(1, XDATA, add(CFA_XSP16, literal(-7)))
          CFI (cfiCond108) R7 load(1, XDATA, add(CFA_XSP16, literal(-6)))
          CFI (cfiCond108) ?RET_LOW load(1, XDATA, add(CFA_XSP16, literal(-5)))
          CFI (cfiCond108) ?RET_HIGH load(1, XDATA, add(CFA_XSP16, literal(-4)))
          CFI (cfiCond108) ?BRET_EXT load(1, XDATA, add(CFA_XSP16, literal(-3)))
          CFI (cfiCond108) DPL0 load(1, XDATA, add(CFA_XSP16, literal(-2)))
          CFI (cfiCond108) DPH0 load(1, XDATA, add(CFA_XSP16, literal(-1)))
          CFI (cfiCond108) CFA_SP SP+-2
          CFI (cfiCond108) CFA_XSP16 add(XSP16, 130)
          CFI Block cfiCond109 Using cfiCommon0
          CFI (cfiCond109) Function zclGp_GpProxyTableReqCB
          CFI (cfiCond109) Conditional ??CrossCallReturnLabel_85
          CFI (cfiCond109) R6 load(1, XDATA, add(CFA_XSP16, literal(-15)))
          CFI (cfiCond109) VB load(1, XDATA, add(CFA_XSP16, literal(-14)))
          CFI (cfiCond109) V0 load(1, XDATA, add(CFA_XSP16, literal(-13)))
          CFI (cfiCond109) V1 load(1, XDATA, add(CFA_XSP16, literal(-12)))
          CFI (cfiCond109) V2 load(1, XDATA, add(CFA_XSP16, literal(-11)))
          CFI (cfiCond109) V3 load(1, XDATA, add(CFA_XSP16, literal(-10)))
          CFI (cfiCond109) V4 load(1, XDATA, add(CFA_XSP16, literal(-9)))
          CFI (cfiCond109) V5 load(1, XDATA, add(CFA_XSP16, literal(-8)))
          CFI (cfiCond109) V6 load(1, XDATA, add(CFA_XSP16, literal(-7)))
          CFI (cfiCond109) R7 load(1, XDATA, add(CFA_XSP16, literal(-6)))
          CFI (cfiCond109) ?RET_LOW load(1, XDATA, add(CFA_XSP16, literal(-5)))
          CFI (cfiCond109) ?RET_HIGH load(1, XDATA, add(CFA_XSP16, literal(-4)))
          CFI (cfiCond109) ?BRET_EXT load(1, XDATA, add(CFA_XSP16, literal(-3)))
          CFI (cfiCond109) DPL0 load(1, XDATA, add(CFA_XSP16, literal(-2)))
          CFI (cfiCond109) DPH0 load(1, XDATA, add(CFA_XSP16, literal(-1)))
          CFI (cfiCond109) CFA_SP SP+-2
          CFI (cfiCond109) CFA_XSP16 add(XSP16, 178)
          CFI Block cfiCond110 Using cfiCommon0
          CFI (cfiCond110) Function zclGp_GpProxyTableReqCB
          CFI (cfiCond110) Conditional ??CrossCallReturnLabel_86
          CFI (cfiCond110) R6 load(1, XDATA, add(CFA_XSP16, literal(-15)))
          CFI (cfiCond110) VB load(1, XDATA, add(CFA_XSP16, literal(-14)))
          CFI (cfiCond110) V0 load(1, XDATA, add(CFA_XSP16, literal(-13)))
          CFI (cfiCond110) V1 load(1, XDATA, add(CFA_XSP16, literal(-12)))
          CFI (cfiCond110) V2 load(1, XDATA, add(CFA_XSP16, literal(-11)))
          CFI (cfiCond110) V3 load(1, XDATA, add(CFA_XSP16, literal(-10)))
          CFI (cfiCond110) V4 load(1, XDATA, add(CFA_XSP16, literal(-9)))
          CFI (cfiCond110) V5 load(1, XDATA, add(CFA_XSP16, literal(-8)))
          CFI (cfiCond110) V6 load(1, XDATA, add(CFA_XSP16, literal(-7)))
          CFI (cfiCond110) R7 load(1, XDATA, add(CFA_XSP16, literal(-6)))
          CFI (cfiCond110) ?RET_LOW load(1, XDATA, add(CFA_XSP16, literal(-5)))
          CFI (cfiCond110) ?RET_HIGH load(1, XDATA, add(CFA_XSP16, literal(-4)))
          CFI (cfiCond110) ?BRET_EXT load(1, XDATA, add(CFA_XSP16, literal(-3)))
          CFI (cfiCond110) DPL0 load(1, XDATA, add(CFA_XSP16, literal(-2)))
          CFI (cfiCond110) DPH0 load(1, XDATA, add(CFA_XSP16, literal(-1)))
          CFI (cfiCond110) CFA_SP SP+-2
          CFI (cfiCond110) CFA_XSP16 add(XSP16, 178)
          CFI Block cfiPicker111 Using cfiCommon1
          CFI (cfiPicker111) NoFunction
          CFI (cfiPicker111) Picker
        MOVX      A,@DPTR
        MOV       R2,A
        INC       DPTR
        MOVX      A,@DPTR
        MOV       R3,A
        RET
          CFI EndBlock cfiCond101
          CFI EndBlock cfiCond102
          CFI EndBlock cfiCond103
          CFI EndBlock cfiCond104
          CFI EndBlock cfiCond105
          CFI EndBlock cfiCond106
          CFI EndBlock cfiCond107
          CFI EndBlock cfiCond108
          CFI EndBlock cfiCond109
          CFI EndBlock cfiCond110
          CFI EndBlock cfiPicker111
//  975 
//  976  /*********************************************************************
//  977  * @fn          gp_ZclPairingParse
//  978  *
//  979  * @brief       Parse the pairing data message payload
//  980  *
//  981  * @param       
//  982  *
//  983  * @return      
//  984  */

        RSEG BANKED_CODE:HUGECODE:NOROOT(0)
//  985 static void gp_ZclPairingParse( zclGpPairing_t* pCmd, gpPairingCmd_t* payload )
gp_ZclPairingParse:
          CFI Block cfiBlock112 Using cfiCommon0
          CFI Function gp_ZclPairingParse
        CODE
//  986 {
        FUNCALL gp_ZclPairingParse, gp_PopulateField
        LOCFRAME ISTACK, 0, STACK
        LOCFRAME PSTACK, 0, STACK
        LOCFRAME XSTACK, 85, STACK
        LOCFRAME IOVERLAY, 0, STATIC
        LOCFRAME DOVERLAY, 0, STATIC
        ARGFRAME ISTACK, 0, STACK
        ARGFRAME PSTACK, 0, STACK
        ARGFRAME XSTACK, 85, STACK
        ARGFRAME IOVERLAY, 0, STATIC
        ARGFRAME DOVERLAY, 0, STATIC
        FUNCALL gp_ZclPairingParse, osal_memset
        LOCFRAME ISTACK, 0, STACK
        LOCFRAME PSTACK, 0, STACK
        LOCFRAME XSTACK, 85, STACK
        LOCFRAME IOVERLAY, 0, STATIC
        LOCFRAME DOVERLAY, 0, STATIC
        ARGFRAME ISTACK, 0, STACK
        ARGFRAME PSTACK, 0, STACK
        ARGFRAME XSTACK, 85, STACK
        ARGFRAME IOVERLAY, 0, STATIC
        ARGFRAME DOVERLAY, 0, STATIC
        FUNCALL gp_ZclPairingParse, gp_PopulateField
        LOCFRAME ISTACK, 0, STACK
        LOCFRAME PSTACK, 0, STACK
        LOCFRAME XSTACK, 85, STACK
        LOCFRAME IOVERLAY, 0, STATIC
        LOCFRAME DOVERLAY, 0, STATIC
        ARGFRAME ISTACK, 0, STACK
        ARGFRAME PSTACK, 0, STACK
        ARGFRAME XSTACK, 85, STACK
        ARGFRAME IOVERLAY, 0, STATIC
        ARGFRAME DOVERLAY, 0, STATIC
        FUNCALL gp_ZclPairingParse, gp_PopulateField
        LOCFRAME ISTACK, 0, STACK
        LOCFRAME PSTACK, 0, STACK
        LOCFRAME XSTACK, 85, STACK
        LOCFRAME IOVERLAY, 0, STATIC
        LOCFRAME DOVERLAY, 0, STATIC
        ARGFRAME ISTACK, 0, STACK
        ARGFRAME PSTACK, 0, STACK
        ARGFRAME XSTACK, 85, STACK
        ARGFRAME IOVERLAY, 0, STATIC
        ARGFRAME DOVERLAY, 0, STATIC
        FUNCALL gp_ZclPairingParse, gp_PopulateField
        LOCFRAME ISTACK, 0, STACK
        LOCFRAME PSTACK, 0, STACK
        LOCFRAME XSTACK, 85, STACK
        LOCFRAME IOVERLAY, 0, STATIC
        LOCFRAME DOVERLAY, 0, STATIC
        ARGFRAME ISTACK, 0, STACK
        ARGFRAME PSTACK, 0, STACK
        ARGFRAME XSTACK, 85, STACK
        ARGFRAME IOVERLAY, 0, STATIC
        ARGFRAME DOVERLAY, 0, STATIC
        FUNCALL gp_ZclPairingParse, gp_PopulateField
        LOCFRAME ISTACK, 0, STACK
        LOCFRAME PSTACK, 0, STACK
        LOCFRAME XSTACK, 85, STACK
        LOCFRAME IOVERLAY, 0, STATIC
        LOCFRAME DOVERLAY, 0, STATIC
        ARGFRAME ISTACK, 0, STACK
        ARGFRAME PSTACK, 0, STACK
        ARGFRAME XSTACK, 85, STACK
        ARGFRAME IOVERLAY, 0, STATIC
        ARGFRAME DOVERLAY, 0, STATIC
        FUNCALL gp_ZclPairingParse, osal_memset
        LOCFRAME ISTACK, 0, STACK
        LOCFRAME PSTACK, 0, STACK
        LOCFRAME XSTACK, 85, STACK
        LOCFRAME IOVERLAY, 0, STATIC
        LOCFRAME DOVERLAY, 0, STATIC
        ARGFRAME ISTACK, 0, STACK
        ARGFRAME PSTACK, 0, STACK
        ARGFRAME XSTACK, 85, STACK
        ARGFRAME IOVERLAY, 0, STATIC
        ARGFRAME DOVERLAY, 0, STATIC
        FUNCALL gp_ZclPairingParse, gp_PopulateField
        LOCFRAME ISTACK, 0, STACK
        LOCFRAME PSTACK, 0, STACK
        LOCFRAME XSTACK, 85, STACK
        LOCFRAME IOVERLAY, 0, STATIC
        LOCFRAME DOVERLAY, 0, STATIC
        ARGFRAME ISTACK, 0, STACK
        ARGFRAME PSTACK, 0, STACK
        ARGFRAME XSTACK, 85, STACK
        ARGFRAME IOVERLAY, 0, STATIC
        ARGFRAME DOVERLAY, 0, STATIC
        FUNCALL gp_ZclPairingParse, gp_ResetProxyBasicTblEntry
        LOCFRAME ISTACK, 0, STACK
        LOCFRAME PSTACK, 0, STACK
        LOCFRAME XSTACK, 85, STACK
        LOCFRAME IOVERLAY, 0, STATIC
        LOCFRAME DOVERLAY, 0, STATIC
        ARGFRAME ISTACK, 0, STACK
        ARGFRAME PSTACK, 0, STACK
        ARGFRAME XSTACK, 85, STACK
        ARGFRAME IOVERLAY, 0, STATIC
        ARGFRAME DOVERLAY, 0, STATIC
        FUNCALL gp_ZclPairingParse, gp_getProxyTableByIndex
        LOCFRAME ISTACK, 0, STACK
        LOCFRAME PSTACK, 0, STACK
        LOCFRAME XSTACK, 85, STACK
        LOCFRAME IOVERLAY, 0, STATIC
        LOCFRAME DOVERLAY, 0, STATIC
        ARGFRAME ISTACK, 0, STACK
        ARGFRAME PSTACK, 0, STACK
        ARGFRAME XSTACK, 85, STACK
        ARGFRAME IOVERLAY, 0, STATIC
        ARGFRAME DOVERLAY, 0, STATIC
        FUNCALL gp_ZclPairingParse, osal_memcmp
        LOCFRAME ISTACK, 0, STACK
        LOCFRAME PSTACK, 0, STACK
        LOCFRAME XSTACK, 88, STACK
        LOCFRAME IOVERLAY, 0, STATIC
        LOCFRAME DOVERLAY, 0, STATIC
        ARGFRAME ISTACK, 0, STACK
        ARGFRAME PSTACK, 0, STACK
        ARGFRAME XSTACK, 88, STACK
        ARGFRAME IOVERLAY, 0, STATIC
        ARGFRAME DOVERLAY, 0, STATIC
        FUNCALL gp_ZclPairingParse, osal_memcmp
        LOCFRAME ISTACK, 0, STACK
        LOCFRAME PSTACK, 0, STACK
        LOCFRAME XSTACK, 88, STACK
        LOCFRAME IOVERLAY, 0, STATIC
        LOCFRAME DOVERLAY, 0, STATIC
        ARGFRAME ISTACK, 0, STACK
        ARGFRAME PSTACK, 0, STACK
        ARGFRAME XSTACK, 88, STACK
        ARGFRAME IOVERLAY, 0, STATIC
        ARGFRAME DOVERLAY, 0, STATIC
        FUNCALL gp_ZclPairingParse, gp_ResetProxyBasicTblEntry
        LOCFRAME ISTACK, 0, STACK
        LOCFRAME PSTACK, 0, STACK
        LOCFRAME XSTACK, 85, STACK
        LOCFRAME IOVERLAY, 0, STATIC
        LOCFRAME DOVERLAY, 0, STATIC
        ARGFRAME ISTACK, 0, STACK
        ARGFRAME PSTACK, 0, STACK
        ARGFRAME XSTACK, 85, STACK
        ARGFRAME IOVERLAY, 0, STATIC
        ARGFRAME DOVERLAY, 0, STATIC
        FUNCALL gp_ZclPairingParse, gp_PopulateField
        LOCFRAME ISTACK, 0, STACK
        LOCFRAME PSTACK, 0, STACK
        LOCFRAME XSTACK, 85, STACK
        LOCFRAME IOVERLAY, 0, STATIC
        LOCFRAME DOVERLAY, 0, STATIC
        ARGFRAME ISTACK, 0, STACK
        ARGFRAME PSTACK, 0, STACK
        ARGFRAME XSTACK, 85, STACK
        ARGFRAME IOVERLAY, 0, STATIC
        ARGFRAME DOVERLAY, 0, STATIC
        FUNCALL gp_ZclPairingParse, gp_PopulateField
        LOCFRAME ISTACK, 0, STACK
        LOCFRAME PSTACK, 0, STACK
        LOCFRAME XSTACK, 85, STACK
        LOCFRAME IOVERLAY, 0, STATIC
        LOCFRAME DOVERLAY, 0, STATIC
        ARGFRAME ISTACK, 0, STACK
        ARGFRAME PSTACK, 0, STACK
        ARGFRAME XSTACK, 85, STACK
        ARGFRAME IOVERLAY, 0, STATIC
        ARGFRAME DOVERLAY, 0, STATIC
        FUNCALL gp_ZclPairingParse, gp_PopulateField
        LOCFRAME ISTACK, 0, STACK
        LOCFRAME PSTACK, 0, STACK
        LOCFRAME XSTACK, 85, STACK
        LOCFRAME IOVERLAY, 0, STATIC
        LOCFRAME DOVERLAY, 0, STATIC
        ARGFRAME ISTACK, 0, STACK
        ARGFRAME PSTACK, 0, STACK
        ARGFRAME XSTACK, 85, STACK
        ARGFRAME IOVERLAY, 0, STATIC
        ARGFRAME DOVERLAY, 0, STATIC
        FUNCALL gp_ZclPairingParse, osal_memset
        LOCFRAME ISTACK, 0, STACK
        LOCFRAME PSTACK, 0, STACK
        LOCFRAME XSTACK, 85, STACK
        LOCFRAME IOVERLAY, 0, STATIC
        LOCFRAME DOVERLAY, 0, STATIC
        ARGFRAME ISTACK, 0, STACK
        ARGFRAME PSTACK, 0, STACK
        ARGFRAME XSTACK, 85, STACK
        ARGFRAME IOVERLAY, 0, STATIC
        ARGFRAME DOVERLAY, 0, STATIC
        FUNCALL gp_ZclPairingParse, gp_PopulateField
        LOCFRAME ISTACK, 0, STACK
        LOCFRAME PSTACK, 0, STACK
        LOCFRAME XSTACK, 85, STACK
        LOCFRAME IOVERLAY, 0, STATIC
        LOCFRAME DOVERLAY, 0, STATIC
        ARGFRAME ISTACK, 0, STACK
        ARGFRAME PSTACK, 0, STACK
        ARGFRAME XSTACK, 85, STACK
        ARGFRAME IOVERLAY, 0, STATIC
        ARGFRAME DOVERLAY, 0, STATIC
        FUNCALL gp_ZclPairingParse, gp_PopulateField
        LOCFRAME ISTACK, 0, STACK
        LOCFRAME PSTACK, 0, STACK
        LOCFRAME XSTACK, 85, STACK
        LOCFRAME IOVERLAY, 0, STATIC
        LOCFRAME DOVERLAY, 0, STATIC
        ARGFRAME ISTACK, 0, STACK
        ARGFRAME PSTACK, 0, STACK
        ARGFRAME XSTACK, 85, STACK
        ARGFRAME IOVERLAY, 0, STATIC
        ARGFRAME DOVERLAY, 0, STATIC
        REQUIRE ?V0
        REQUIRE ?V1
        REQUIRE ?V2
        REQUIRE ?V3
        REQUIRE ?V4
        REQUIRE ?V5
        REQUIRE ?V6
        REQUIRE ?V7
        REQUIRE ?V8
        REQUIRE ?V9
        REQUIRE ?V10
        REQUIRE ?V11
        MOV       A,#-0x14
        LCALL     ?BANKED_ENTER_XDATA
          CFI DPH0 load(1, XDATA, add(CFA_XSP16, literal(-1)))
          CFI DPL0 load(1, XDATA, add(CFA_XSP16, literal(-2)))
          CFI ?BRET_EXT load(1, XDATA, add(CFA_XSP16, literal(-3)))
          CFI ?RET_HIGH load(1, XDATA, add(CFA_XSP16, literal(-4)))
          CFI ?RET_LOW load(1, XDATA, add(CFA_XSP16, literal(-5)))
          CFI R7 load(1, XDATA, add(CFA_XSP16, literal(-6)))
          CFI V11 load(1, XDATA, add(CFA_XSP16, literal(-7)))
          CFI V10 load(1, XDATA, add(CFA_XSP16, literal(-8)))
          CFI V9 load(1, XDATA, add(CFA_XSP16, literal(-9)))
          CFI V8 load(1, XDATA, add(CFA_XSP16, literal(-10)))
          CFI V7 load(1, XDATA, add(CFA_XSP16, literal(-11)))
          CFI V6 load(1, XDATA, add(CFA_XSP16, literal(-12)))
          CFI V5 load(1, XDATA, add(CFA_XSP16, literal(-13)))
          CFI V4 load(1, XDATA, add(CFA_XSP16, literal(-14)))
          CFI V3 load(1, XDATA, add(CFA_XSP16, literal(-15)))
          CFI V2 load(1, XDATA, add(CFA_XSP16, literal(-16)))
          CFI V1 load(1, XDATA, add(CFA_XSP16, literal(-17)))
          CFI V0 load(1, XDATA, add(CFA_XSP16, literal(-18)))
          CFI VB load(1, XDATA, add(CFA_XSP16, literal(-19)))
          CFI R6 load(1, XDATA, add(CFA_XSP16, literal(-20)))
          CFI CFA_SP SP+0
          CFI CFA_XSP16 add(XSP16, 20)
        ; Saved register size: 20
        ; Auto size: 65
        MOV       A,#-0x41
        LCALL     ?ALLOC_XSTACK8
          CFI CFA_XSP16 add(XSP16, 85)
        MOV       A,R4
        MOV       R6,A
        MOV       A,R5
        MOV       R7,A
//  987 
//  988   payload->options |= ( ( ( uint32 ) pCmd->options[2] << 16 ) & 0x00FF0000 );
        MOV       DPL,R2
        MOV       DPH,R3
        INC       DPTR
        INC       DPTR
        INC       DPTR
        INC       DPTR
        MOVX      A,@DPTR
        MOV       ?V0,A
        CLR       A
        MOV       ?V1,A
        MOV       ?V2,A
        MOV       ?V3,A
        MOV       A,#0x10
        MOV       R0,#?V0
        LCALL     ?L_SHL
        MOV       DPL,R6
        MOV       DPH,R7
        MOV       R0,#?V0
        LCALL     ?L_IOR_TO_X
//  989   payload->options |= ( ( ( uint32 ) pCmd->options[1] <<  8 ) & 0x0000FF00 );
        MOV       DPL,R2
        MOV       DPH,R3
        INC       DPTR
        INC       DPTR
        INC       DPTR
        MOVX      A,@DPTR
        MOV       ?V0,A
        CLR       A
        MOV       ?V2,A
        MOV       A,#0x8
        MOV       R0,#?V0
        LCALL     ?L_SHL
        MOV       DPL,R6
        MOV       DPH,R7
        MOV       R0,#?V0
        LCALL     ?L_IOR_TO_X
//  990   payload->options |= ( ( ( uint32 ) pCmd->options[0] )       & 0x000000FF );
        MOV       DPL,R2
        MOV       DPH,R3
        INC       DPTR
        INC       DPTR
        MOVX      A,@DPTR
        MOV       ?V0,A
        CLR       A
        MOV       ?V1,A
        MOV       DPL,R6
        MOV       DPH,R7
        MOV       R0,#?V0
        LCALL     ?L_IOR_TO_X
        MOV       DPL,R6
        MOV       DPH,R7
        MOV       R0,#?V0
        LCALL     ?L_MOV_X
        MOV       A,?V0
        ANL       A,#0x7
        MOV       R0,A
        MOV       A,R6
        ADD       A,#0x10
        MOV       ?V4,A
        CLR       A
        ADDC      A,R7
        MOV       ?V5,A
        MOV       A,R6
        ADD       A,#0x8
        MOV       ?V2,A
        CLR       A
        ADDC      A,R7
        MOV       ?V3,A
        MOV       A,R6
        ADD       A,#0x4
        MOV       ?V10,A
        CLR       A
        ADDC      A,R7
        MOV       ?V11,A
        MOV       A,R2
        ADD       A,#0x5
        MOV       ?V0,A
        CLR       A
        ADDC      A,R3
        MOV       ?V1,A
        MOV       A,R0
        JNZ       ??gp_ZclPairingParse_0
//  991     
//  992   // Options bitfield
//  993   // If Application Id bitfield is 0b000
//  994   if( GP_IS_APPLICATION_ID_GPD( payload->options ) )
//  995   {        
//  996     // Populate GPD ID
//  997     gp_PopulateField( ( uint8* )&payload->gpdId, &pCmd->pData, sizeof( payload->gpdId ) );
        ; Setup parameters for call to function gp_PopulateField
        MOV       R1,#0x4
        MOV       R4,?V0
        MOV       R5,?V1
        MOV       R2,?V10
        MOV       R3,?V11
        LCALL     `??gp_PopulateField::?relay`; Banked call to: gp_PopulateField
//  998     
//  999     // Populate GPD IEEE Invalid
// 1000     osal_memset ( &payload->gpdIEEE, 0xFF, Z_EXTADDR_LEN );
        ; Setup parameters for call to function osal_memset
        MOV       R4,#0x8
        MOV       R5,#0x0
        MOV       R1,#-0x1
        MOV       R2,?V2
        MOV       R3,?V3
        LCALL     `??osal_memset::?relay`; Banked call to: osal_memset
// 1001     // Populate EP Invalid
// 1002     payload->ep = 0xFF;
        MOV       DPL,?V4
        MOV       DPH,?V5
        MOV       A,#-0x1
        MOVX      @DPTR,A
        SJMP      ??gp_ZclPairingParse_1
// 1003   }
// 1004   // If Application Id bitfield is 0b010
// 1005   else if( GP_IS_APPLICATION_ID_IEEE( payload->options ) )
??gp_ZclPairingParse_0:
        MOV       A,#0x2
        XRL       A,R0
        JNZ       ??gp_ZclPairingParse_1
// 1006   {
// 1007     // Populate GPD ID Invalid
// 1008     payload->gpdId = 0xFFFFFFFF;
        MOV       DPL,?V10
        MOV       DPH,?V11
        LCALL     ?Subroutine5 & 0xFFFF
// 1009     
// 1010     // Populate GPD IEEE
// 1011     gp_PopulateField( ( uint8* )&payload->gpdIEEE, &pCmd->pData, Z_EXTADDR_LEN );
??CrossCallReturnLabel_0:
        MOV       R4,?V0
        MOV       R5,?V1
        MOV       R2,?V2
        MOV       R3,?V3
        LCALL     `??gp_PopulateField::?relay`; Banked call to: gp_PopulateField
// 1012     // Populate EP
// 1013     gp_PopulateField( ( uint8* )&payload->ep, &pCmd->pData, sizeof( payload->ep ) );
        ; Setup parameters for call to function gp_PopulateField
        MOV       R1,#0x1
        MOV       R4,?V0
        MOV       R5,?V1
        MOV       R2,?V4
        MOV       R3,?V5
        LCALL     `??gp_PopulateField::?relay`; Banked call to: gp_PopulateField
// 1014   }
// 1015   
// 1016   // If Remove GPD bit is 0b0
// 1017   if( !GP_REMOVE_GPD( payload->options ) )
??gp_ZclPairingParse_1:
        MOV       A,R6
        ADD       A,#0x11
        MOV       ?V8,A
        CLR       A
        ADDC      A,R7
        MOV       ?V9,A
        MOV       DPL,R6
        MOV       DPH,R7
        MOV       R0,#?V4
        LCALL     ?L_MOV_X
        MOV       A,?V4
        ANL       A,#0x10
        JZ        $+5
        LJMP      ??gp_ZclPairingParse_2 & 0xFFFF
// 1018   {
// 1019     // Communication Mode 0b00 or 0b11
// 1020     if( ( GP_IS_COMMUNICATION_MODE_FULL_UNICAST( payload->options ) ) || ( GP_IS_COMMUNICATION_MODE_LIGHT_UNICAST( payload->options ) ) )
        MOV       A,?V4
        SWAP      A
        RRC       A
        ANL       A,#0x7
        ANL       A,#0x3
        MOV       R0,A
        MOV       A,R6
        ADD       A,#0x1b
        MOV       ?V2,A
        CLR       A
        ADDC      A,R7
        MOV       ?V3,A
        MOV       A,R6
        ADD       A,#0x19
        MOV       ?V4,A
        CLR       A
        ADDC      A,R7
        MOV       ?V5,A
        MOV       A,R0
        JZ        ??gp_ZclPairingParse_3
        MOV       A,#0x3
        XRL       A,R0
        JNZ       ??gp_ZclPairingParse_4
// 1021     {
// 1022       // Populate Sink Addesses
// 1023       gp_PopulateField( ( uint8* )&payload->sinkIEEE, &pCmd->pData, Z_EXTADDR_LEN );
??gp_ZclPairingParse_3:
        ; Setup parameters for call to function gp_PopulateField
        MOV       R1,#0x8
        MOV       R4,?V0
        MOV       R5,?V1
        MOV       R2,?V8
        MOV       R3,?V9
        LCALL     `??gp_PopulateField::?relay`; Banked call to: gp_PopulateField
// 1024       gp_PopulateField( ( uint8* )&payload->sinkNwkAddr, &pCmd->pData, sizeof( payload->sinkNwkAddr ) );
        ; Setup parameters for call to function gp_PopulateField
        MOV       R1,#0x2
        MOV       R4,?V0
        MOV       R5,?V1
        MOV       R2,?V4
        MOV       R3,?V5
        LCALL     `??gp_PopulateField::?relay`; Banked call to: gp_PopulateField
// 1025       
// 1026       // Populate Grp Address Ivalid
// 1027       payload->sinkGroupID = 0xFFFF;
        MOV       DPL,?V2
        MOV       DPH,?V3
        MOV       A,#-0x1
        MOVX      @DPTR,A
        INC       DPTR
        SJMP      ??gp_ZclPairingParse_5
// 1028     }
// 1029     // Communication Mode 0b01 or 0b10
// 1030     else if ( ( GP_IS_COMMUNICATION_MODE_GRPCAST_DGROUP_ID( payload->options ) ) || ( GP_IS_COMMUNICATION_MODE_GRPCAST_GROUP_ID( payload->options ) ) )
??gp_ZclPairingParse_4:
        MOV       A,#0x1
        XRL       A,R0
        JZ        ??gp_ZclPairingParse_6
        MOV       A,#0x2
        XRL       A,R0
        JNZ       ??gp_ZclPairingParse_7
// 1031     {
// 1032       // Populate Sink Addesses Invalid
// 1033       osal_memset ( &payload->sinkIEEE, 0xFF, Z_EXTADDR_LEN );
??gp_ZclPairingParse_6:
        ; Setup parameters for call to function osal_memset
        MOV       R4,#0x8
        MOV       R5,#0x0
        MOV       R1,#-0x1
        MOV       R2,?V8
        MOV       R3,?V9
        LCALL     `??osal_memset::?relay`; Banked call to: osal_memset
// 1034       payload->sinkNwkAddr = 0xFFFF;
        MOV       DPL,?V4
        MOV       DPH,?V5
        MOV       A,#-0x1
        MOVX      @DPTR,A
        INC       DPTR
        MOVX      @DPTR,A
// 1035       
// 1036       // Populate Grp Address
// 1037       if( GP_IS_APPLICATION_ID_IEEE( payload->options ) )
        MOV       DPL,R6
        MOV       DPH,R7
        MOV       R0,#?V4
        LCALL     ?L_MOV_X
        MOV       A,?V4
        ANL       A,#0x7
        XRL       A,#0x2
        JNZ       ??gp_ZclPairingParse_8
// 1038       {
// 1039         payload->sinkGroupID |= ((payload->gpdIEEE[6]) << 8) & 0xFF00;
        MOV       A,R6
        ADD       A,#0xe
        LCALL     ??Subroutine45_0 & 0xFFFF
??CrossCallReturnLabel_105:
        MOV       R1,A
        MOV       DPL,?V2
        MOV       DPH,?V3
        INC       DPTR
        MOVX      A,@DPTR
        ORL       A,R1
        MOVX      @DPTR,A
// 1040         payload->sinkGroupID |= (payload->gpdIEEE[7]) & 0x00FF;
        MOV       A,R6
        ADD       A,#0xf
        MOV       DPL,A
        CLR       A
        ADDC      A,R7
        MOV       DPH,A
        LCALL     ?Subroutine21 & 0xFFFF
??CrossCallReturnLabel_20:
        MOVX      A,@DPTR
        ORL       A,R0
        MOVX      @DPTR,A
// 1041         pCmd->pData +=2;
        LCALL     ?Subroutine13 & 0xFFFF
// 1042       }
??CrossCallReturnLabel_9:
        MOV       A,R0
        MOVX      @DPTR,A
        INC       DPTR
        MOV       A,R1
??gp_ZclPairingParse_5:
        MOVX      @DPTR,A
        SJMP      ??gp_ZclPairingParse_7
// 1043       else
// 1044       {
// 1045         gp_PopulateField( ( uint8* )&payload->sinkGroupID, &pCmd->pData, sizeof( payload->sinkGroupID ) );
??gp_ZclPairingParse_8:
        ; Setup parameters for call to function gp_PopulateField
        MOV       R1,#0x2
        MOV       R4,?V0
        MOV       R5,?V1
        MOV       R2,?V2
        MOV       R3,?V3
        LCALL     `??gp_PopulateField::?relay`; Banked call to: gp_PopulateField
// 1046       }
// 1047     }
// 1048   }
// 1049   else
// 1050   {
// 1051     uint8 i;
// 1052     uint8 status;
// 1053     uint8 currEntry[PROXY_TBL_ENTRY_LEN];
// 1054       
// 1055     gp_ResetProxyBasicTblEntry(currEntry);
// 1056     // Remove
// 1057     for ( i = 0; i <= GPP_MAX_PROXY_TABLE_ENTRIES ; i++ )
// 1058     {
// 1059       status = gp_getProxyTableByIndex( ( ZCD_NV_PROXY_TABLE_START + i ), currEntry );
// 1060 
// 1061       if ( status == NV_OPER_FAILED )
// 1062       {
// 1063         // FAIL
// 1064         return;
// 1065       }
// 1066     
// 1067       // if the entry is empty
// 1068       if ( status == NV_INVALID_DATA )
// 1069       {
// 1070         // Look for the next entry
// 1071         continue;
// 1072       }
// 1073       
// 1074       if( GP_IS_APPLICATION_ID_GPD( payload->options ) )
// 1075       {
// 1076         if ( osal_memcmp( &currEntry[PROXY_TBL_ENTRY_GPD_ID + 4], &payload->gpdId, sizeof ( uint32 ) ) )
// 1077         {
// 1078           // Remove this GPD entry
// 1079           gp_ResetProxyBasicTblEntry( currEntry );
// 1080         }
// 1081       }
// 1082       else if( GP_IS_APPLICATION_ID_IEEE( payload->options ) )
// 1083       {   
// 1084         if ( osal_memcmp( &currEntry[PROXY_TBL_ENTRY_GPD_ID ], payload->sinkIEEE, Z_EXTADDR_LEN ) )
// 1085         {
// 1086           // Remove this GPD entry
// 1087           gp_ResetProxyBasicTblEntry( currEntry );
// 1088         }
// 1089       }
// 1090     }
// 1091     return;
// 1092   }
// 1093   
// 1094   // If Add Sink bit is 0b1
// 1095   if ( GP_ADD_SINK( payload->options ) )
??gp_ZclPairingParse_7:
        MOV       A,R6
        ADD       A,#0x34
        MOV       ?V10,A
        CLR       A
        ADDC      A,R7
        MOV       ?V11,A
        MOV       A,R6
        ADD       A,#0x32
        MOV       ?V8,A
        CLR       A
        ADDC      A,R7
        MOV       ?V9,A
        LCALL     ?Subroutine33 & 0xFFFF
??CrossCallReturnLabel_44:
        MOV       A,R6
        ADD       A,#0x1d
        LCALL     ?Subroutine27 & 0xFFFF
??CrossCallReturnLabel_32:
        LCALL     ?L_MOV_X
        MOV       A,?V4
        ANL       A,#0x8
        JZ        $+5
        LJMP      ??gp_ZclPairingParse_9 & 0xFFFF
// 1096   {
// 1097     // Populate Device ID
// 1098     gp_PopulateField( ( uint8* )&payload->deviceId, &pCmd->pData, sizeof( payload->deviceId ) );
// 1099     
// 1100     if ( GP_SEC_COUNTER( payload->options ) )
// 1101     {
// 1102       // Populate GPD security frame counter
// 1103       gp_PopulateField( ( uint8* )&payload->gpdSecCounter, &pCmd->pData, sizeof( payload->gpdSecCounter ) );
// 1104     }
// 1105     else
// 1106     {
// 1107       payload->gpdSecCounter = 0xFFFFFFFF;
// 1108     }
// 1109     
// 1110     if ( GP_SEC_KEY ( payload->options ) )
// 1111     {
// 1112       gp_PopulateField( ( uint8* )&payload->gpdKey, &pCmd->pData, SEC_KEY_LEN );
// 1113     }
// 1114     else
// 1115     {
// 1116       osal_memset ( &payload->gpdKey, 0xFF, SEC_KEY_LEN );
// 1117     }
// 1118     
// 1119     if ( GP_ALIAS ( payload->options ) )
// 1120     {
// 1121       gp_PopulateField( ( uint8* )&payload->assignedAlias, &pCmd->pData, sizeof( payload->assignedAlias ) );
// 1122     }
// 1123     else
// 1124     {
// 1125       payload->assignedAlias = 0xFFFF;
// 1126     }
// 1127     if ( GP_FORWARDING_RADIUS ( payload->options ) )
// 1128     {
// 1129       gp_PopulateField( ( uint8* )&payload->forwardingRadius, &pCmd->pData, sizeof( payload->forwardingRadius ) );
// 1130     }
// 1131     else
// 1132     {
// 1133       payload->forwardingRadius = 0xFF;
// 1134     }
// 1135   }
// 1136   else
// 1137   {
// 1138     // Ivalidate every field
// 1139     payload->deviceId = 0xFF;
        MOV       DPL,R2
        MOV       DPH,R3
        MOV       A,#-0x1
        MOVX      @DPTR,A
// 1140     payload->gpdSecCounter = 0xFFFFFFFF;
        MOV       DPL,?V2
        MOV       DPH,?V3
        LCALL     ??Subroutine36_0 & 0xFFFF
// 1141     payload->assignedAlias = 0xFFFF;
??CrossCallReturnLabel_50:
        MOV       DPL,?V8
        MOV       DPH,?V9
        MOVX      @DPTR,A
        INC       DPTR
        MOVX      @DPTR,A
// 1142     payload->forwardingRadius = 0xFF;
        MOV       DPL,?V10
        MOV       DPH,?V11
??gp_ZclPairingParse_10:
        MOVX      @DPTR,A
// 1143   }
// 1144 }
??gp_ZclPairingParse_11:
        MOV       A,#0x41
        LCALL     ?DEALLOC_XSTACK8
          CFI CFA_XSP16 add(XSP16, 20)
        MOV       R7,#0xc
        LJMP      ?BANKED_LEAVE_XDATA
          CFI CFA_XSP16 add(XSP16, 85)
??gp_ZclPairingParse_2:
        ; Setup parameters for call to function gp_ResetProxyBasicTblEntry
        MOV       R2,?XSP + 0
        MOV       R3,?XSP + 1
        LCALL     `??gp_ResetProxyBasicTblEntry::?relay`; Banked call to: gp_ResetProxyBasicTblEntry
        MOV       ?V0,#0x0
??gp_ZclPairingParse_12:
        ; Setup parameters for call to function gp_getProxyTableByIndex
        MOV       R4,?XSP + 0
        MOV       R5,?XSP + 1
        MOV       A,?V0
        LCALL     ??Subroutine39_0 & 0xFFFF
??CrossCallReturnLabel_61:
        LCALL     `??gp_getProxyTableByIndex::?relay`; Banked call to: gp_getProxyTableByIndex
        MOV       A,R1
        MOV       R0,A
        MOV       A,#0xa
        XRL       A,R0
        JZ        ??gp_ZclPairingParse_11
        MOV       A,#0xd
        XRL       A,R0
        JZ        ??gp_ZclPairingParse_13
        MOV       DPL,R6
        MOV       DPH,R7
        MOV       R0,#?V4
        LCALL     ?L_MOV_X
        MOV       A,?V4
        ANL       A,#0x7
        MOV       R0,A
        JNZ       ??gp_ZclPairingParse_14
        ; Setup parameters for call to function osal_memcmp
        MOV       ?V4,?V10
        MOV       ?V5,?V11
        MOV       ?V6,#0x0
        MOV       R0,#?V4
        LCALL     ?PUSH_XSTACK_I_THREE
          CFI CFA_XSP16 add(XSP16, 88)
        MOV       R4,#0x4
        MOV       R5,#0x0
        MOV       A,#0x9
        LCALL     ?XSTACK_DISP0_8
        MOV       R1,DPL
        MOV       R2,DPH
        MOV       R3,#0x0
        LCALL     `??osal_memcmp::?relay`; Banked call to: osal_memcmp
        MOV       A,#0x3
        LCALL     ?DEALLOC_XSTACK8
          CFI CFA_XSP16 add(XSP16, 85)
        MOV       A,R1
        JNZ       ??gp_ZclPairingParse_15
        SJMP      ??gp_ZclPairingParse_13
??gp_ZclPairingParse_14:
        MOV       A,#0x2
        XRL       A,R0
        JNZ       ??gp_ZclPairingParse_13
        ; Setup parameters for call to function osal_memcmp
        MOV       ?V4,?V8
        MOV       ?V5,?V9
        MOV       ?V6,#0x0
        MOV       R0,#?V4
        LCALL     ?PUSH_XSTACK_I_THREE
          CFI CFA_XSP16 add(XSP16, 88)
        MOV       R4,#0x8
        MOV       R5,#0x0
        MOV       A,#0x5
        LCALL     ?XSTACK_DISP0_8
        MOV       R1,DPL
        MOV       R2,DPH
        MOV       R3,#0x0
        LCALL     `??osal_memcmp::?relay`; Banked call to: osal_memcmp
        MOV       A,#0x3
        LCALL     ?DEALLOC_XSTACK8
          CFI CFA_XSP16 add(XSP16, 85)
        MOV       A,R1
        JZ        ??gp_ZclPairingParse_13
??gp_ZclPairingParse_15:
        ; Setup parameters for call to function gp_ResetProxyBasicTblEntry
        MOV       R2,?XSP + 0
        MOV       R3,?XSP + 1
        LCALL     `??gp_ResetProxyBasicTblEntry::?relay`; Banked call to: gp_ResetProxyBasicTblEntry
??gp_ZclPairingParse_13:
        INC       ?V0
        MOV       A,?V0
        CLR       C
        SUBB      A,#0x6
        JNC       $+5
        LJMP      ??gp_ZclPairingParse_12 & 0xFFFF
        LJMP      ??gp_ZclPairingParse_11 & 0xFFFF
??gp_ZclPairingParse_9:
        ; Setup parameters for call to function gp_PopulateField
        MOV       R1,#0x1
        MOV       R4,?V0
        MOV       R5,?V1
        LCALL     `??gp_PopulateField::?relay`; Banked call to: gp_PopulateField
        MOV       DPL,R6
        MOV       DPH,R7
        MOV       R0,#?V4
        LCALL     ?L_MOV_X
        MOV       A,?V5
        ANL       A,#0x40
        JZ        ??gp_ZclPairingParse_16
        ; Setup parameters for call to function gp_PopulateField
        MOV       R1,#0x4
        MOV       R4,?V0
        MOV       R5,?V1
        MOV       R2,?V2
        MOV       R3,?V3
        LCALL     `??gp_PopulateField::?relay`; Banked call to: gp_PopulateField
        SJMP      ??CrossCallReturnLabel_53
??gp_ZclPairingParse_16:
        MOV       DPL,?V2
        MOV       DPH,?V3
        LCALL     ?Subroutine6 & 0xFFFF
??CrossCallReturnLabel_53:
        MOV       A,R6
        ADD       A,#0x22
        LCALL     ?Subroutine27 & 0xFFFF
??CrossCallReturnLabel_33:
        LCALL     ?L_MOV_X
        MOV       A,?V5
        ANL       A,#0x80
        JZ        ??gp_ZclPairingParse_17
        ; Setup parameters for call to function gp_PopulateField
        MOV       R1,#0x10
        MOV       R4,?V0
        MOV       R5,?V1
        LCALL     `??gp_PopulateField::?relay`; Banked call to: gp_PopulateField
        SJMP      ??gp_ZclPairingParse_18
??gp_ZclPairingParse_17:
        ; Setup parameters for call to function osal_memset
        MOV       R4,#0x10
        MOV       R5,#0x0
        MOV       R1,#-0x1
        LCALL     `??osal_memset::?relay`; Banked call to: osal_memset
??gp_ZclPairingParse_18:
        MOV       DPL,R6
        MOV       DPH,R7
        MOV       R0,#?V4
        LCALL     ?L_MOV_X
        MOV       DPTR,#__Constant_10000
        MOV       R0,#?V4
        LCALL     ?L_AND_X
        LCALL     ?Subroutine32 & 0xFFFF
??CrossCallReturnLabel_88:
        JZ        ??gp_ZclPairingParse_19
        ; Setup parameters for call to function gp_PopulateField
        MOV       R1,#0x2
        MOV       R4,?V0
        MOV       R5,?V1
        MOV       R2,?V8
        MOV       R3,?V9
        LCALL     `??gp_PopulateField::?relay`; Banked call to: gp_PopulateField
        SJMP      ??gp_ZclPairingParse_20
??gp_ZclPairingParse_19:
        MOV       DPL,?V8
        MOV       DPH,?V9
        MOV       A,#-0x1
        MOVX      @DPTR,A
        INC       DPTR
        MOVX      @DPTR,A
??gp_ZclPairingParse_20:
        MOV       DPL,R6
        MOV       DPH,R7
        MOV       R0,#?V4
        LCALL     ?L_MOV_X
        MOV       DPTR,#__Constant_20000
        MOV       R0,#?V4
        LCALL     ?L_AND_X
        LCALL     ?Subroutine32 & 0xFFFF
??CrossCallReturnLabel_89:
        JZ        ??gp_ZclPairingParse_21
        ; Setup parameters for call to function gp_PopulateField
        MOV       R1,#0x1
        MOV       R4,?V0
        MOV       R5,?V1
        MOV       R2,?V10
        MOV       R3,?V11
        LCALL     `??gp_PopulateField::?relay`; Banked call to: gp_PopulateField
        LJMP      ??gp_ZclPairingParse_11 & 0xFFFF
??gp_ZclPairingParse_21:
        MOV       DPL,?V10
        MOV       DPH,?V11
        MOV       A,#-0x1
        LJMP      ??gp_ZclPairingParse_10 & 0xFFFF
          CFI EndBlock cfiBlock112

        RSEG BANKED_CODE:HUGECODE:NOROOT(0)
?Subroutine32:
          CFI Block cfiCond113 Using cfiCommon0
          CFI Function gp_ZclPairingParse
          CFI Conditional ??CrossCallReturnLabel_88
          CFI R6 load(1, XDATA, add(CFA_XSP16, literal(-20)))
          CFI VB load(1, XDATA, add(CFA_XSP16, literal(-19)))
          CFI V0 load(1, XDATA, add(CFA_XSP16, literal(-18)))
          CFI V1 load(1, XDATA, add(CFA_XSP16, literal(-17)))
          CFI V2 load(1, XDATA, add(CFA_XSP16, literal(-16)))
          CFI V3 load(1, XDATA, add(CFA_XSP16, literal(-15)))
          CFI V4 load(1, XDATA, add(CFA_XSP16, literal(-14)))
          CFI V5 load(1, XDATA, add(CFA_XSP16, literal(-13)))
          CFI V6 load(1, XDATA, add(CFA_XSP16, literal(-12)))
          CFI V7 load(1, XDATA, add(CFA_XSP16, literal(-11)))
          CFI V8 load(1, XDATA, add(CFA_XSP16, literal(-10)))
          CFI V9 load(1, XDATA, add(CFA_XSP16, literal(-9)))
          CFI V10 load(1, XDATA, add(CFA_XSP16, literal(-8)))
          CFI V11 load(1, XDATA, add(CFA_XSP16, literal(-7)))
          CFI R7 load(1, XDATA, add(CFA_XSP16, literal(-6)))
          CFI ?RET_LOW load(1, XDATA, add(CFA_XSP16, literal(-5)))
          CFI ?RET_HIGH load(1, XDATA, add(CFA_XSP16, literal(-4)))
          CFI ?BRET_EXT load(1, XDATA, add(CFA_XSP16, literal(-3)))
          CFI DPL0 load(1, XDATA, add(CFA_XSP16, literal(-2)))
          CFI DPH0 load(1, XDATA, add(CFA_XSP16, literal(-1)))
          CFI CFA_SP SP+-2
          CFI CFA_XSP16 add(XSP16, 85)
          CFI Block cfiCond114 Using cfiCommon0
          CFI (cfiCond114) Function gp_ZclPairingParse
          CFI (cfiCond114) Conditional ??CrossCallReturnLabel_89
          CFI (cfiCond114) R6 load(1, XDATA, add(CFA_XSP16, literal(-20)))
          CFI (cfiCond114) VB load(1, XDATA, add(CFA_XSP16, literal(-19)))
          CFI (cfiCond114) V0 load(1, XDATA, add(CFA_XSP16, literal(-18)))
          CFI (cfiCond114) V1 load(1, XDATA, add(CFA_XSP16, literal(-17)))
          CFI (cfiCond114) V2 load(1, XDATA, add(CFA_XSP16, literal(-16)))
          CFI (cfiCond114) V3 load(1, XDATA, add(CFA_XSP16, literal(-15)))
          CFI (cfiCond114) V4 load(1, XDATA, add(CFA_XSP16, literal(-14)))
          CFI (cfiCond114) V5 load(1, XDATA, add(CFA_XSP16, literal(-13)))
          CFI (cfiCond114) V6 load(1, XDATA, add(CFA_XSP16, literal(-12)))
          CFI (cfiCond114) V7 load(1, XDATA, add(CFA_XSP16, literal(-11)))
          CFI (cfiCond114) V8 load(1, XDATA, add(CFA_XSP16, literal(-10)))
          CFI (cfiCond114) V9 load(1, XDATA, add(CFA_XSP16, literal(-9)))
          CFI (cfiCond114) V10 load(1, XDATA, add(CFA_XSP16, literal(-8)))
          CFI (cfiCond114) V11 load(1, XDATA, add(CFA_XSP16, literal(-7)))
          CFI (cfiCond114) R7 load(1, XDATA, add(CFA_XSP16, literal(-6)))
          CFI (cfiCond114) ?RET_LOW load(1, XDATA, add(CFA_XSP16, literal(-5)))
          CFI (cfiCond114) ?RET_HIGH load(1, XDATA, add(CFA_XSP16, literal(-4)))
          CFI (cfiCond114) ?BRET_EXT load(1, XDATA, add(CFA_XSP16, literal(-3)))
          CFI (cfiCond114) DPL0 load(1, XDATA, add(CFA_XSP16, literal(-2)))
          CFI (cfiCond114) DPH0 load(1, XDATA, add(CFA_XSP16, literal(-1)))
          CFI (cfiCond114) CFA_SP SP+-2
          CFI (cfiCond114) CFA_XSP16 add(XSP16, 85)
          CFI Block cfiPicker115 Using cfiCommon1
          CFI (cfiPicker115) NoFunction
          CFI (cfiPicker115) Picker
        MOV       A,?V4
          CFI EndBlock cfiCond113
          CFI EndBlock cfiCond114
          CFI EndBlock cfiPicker115
        REQUIRE ??Subroutine42_0
        ; // Fall through to label ??Subroutine42_0

        RSEG BANKED_CODE:HUGECODE:NOROOT(0)
??Subroutine42_0:
          CFI Block cfiCond116 Using cfiCommon0
          CFI Function GP_DataInd
          CFI Conditional ??CrossCallReturnLabel_87
          CFI R6 load(1, XDATA, add(CFA_XSP16, literal(-16)))
          CFI VB load(1, XDATA, add(CFA_XSP16, literal(-15)))
          CFI V0 load(1, XDATA, add(CFA_XSP16, literal(-14)))
          CFI V1 load(1, XDATA, add(CFA_XSP16, literal(-13)))
          CFI V2 load(1, XDATA, add(CFA_XSP16, literal(-12)))
          CFI V3 load(1, XDATA, add(CFA_XSP16, literal(-11)))
          CFI V4 load(1, XDATA, add(CFA_XSP16, literal(-10)))
          CFI V5 load(1, XDATA, add(CFA_XSP16, literal(-9)))
          CFI V6 load(1, XDATA, add(CFA_XSP16, literal(-8)))
          CFI V7 load(1, XDATA, add(CFA_XSP16, literal(-7)))
          CFI R7 load(1, XDATA, add(CFA_XSP16, literal(-6)))
          CFI ?RET_LOW load(1, XDATA, add(CFA_XSP16, literal(-5)))
          CFI ?RET_HIGH load(1, XDATA, add(CFA_XSP16, literal(-4)))
          CFI ?BRET_EXT load(1, XDATA, add(CFA_XSP16, literal(-3)))
          CFI DPL0 load(1, XDATA, add(CFA_XSP16, literal(-2)))
          CFI DPH0 load(1, XDATA, add(CFA_XSP16, literal(-1)))
          CFI CFA_SP SP+-2
          CFI CFA_XSP16 add(XSP16, 148)
          CFI Block cfiCond117 Using cfiCommon0
          CFI (cfiCond117) Function gp_ZclPairingParse
          CFI (cfiCond117) Conditional ??CrossCallReturnLabel_88
          CFI (cfiCond117) R6 load(1, XDATA, add(CFA_XSP16, literal(-20)))
          CFI (cfiCond117) VB load(1, XDATA, add(CFA_XSP16, literal(-19)))
          CFI (cfiCond117) V0 load(1, XDATA, add(CFA_XSP16, literal(-18)))
          CFI (cfiCond117) V1 load(1, XDATA, add(CFA_XSP16, literal(-17)))
          CFI (cfiCond117) V2 load(1, XDATA, add(CFA_XSP16, literal(-16)))
          CFI (cfiCond117) V3 load(1, XDATA, add(CFA_XSP16, literal(-15)))
          CFI (cfiCond117) V4 load(1, XDATA, add(CFA_XSP16, literal(-14)))
          CFI (cfiCond117) V5 load(1, XDATA, add(CFA_XSP16, literal(-13)))
          CFI (cfiCond117) V6 load(1, XDATA, add(CFA_XSP16, literal(-12)))
          CFI (cfiCond117) V7 load(1, XDATA, add(CFA_XSP16, literal(-11)))
          CFI (cfiCond117) V8 load(1, XDATA, add(CFA_XSP16, literal(-10)))
          CFI (cfiCond117) V9 load(1, XDATA, add(CFA_XSP16, literal(-9)))
          CFI (cfiCond117) V10 load(1, XDATA, add(CFA_XSP16, literal(-8)))
          CFI (cfiCond117) V11 load(1, XDATA, add(CFA_XSP16, literal(-7)))
          CFI (cfiCond117) R7 load(1, XDATA, add(CFA_XSP16, literal(-6)))
          CFI (cfiCond117) ?RET_LOW load(1, XDATA, add(CFA_XSP16, literal(-5)))
          CFI (cfiCond117) ?RET_HIGH load(1, XDATA, add(CFA_XSP16, literal(-4)))
          CFI (cfiCond117) ?BRET_EXT load(1, XDATA, add(CFA_XSP16, literal(-3)))
          CFI (cfiCond117) DPL0 load(1, XDATA, add(CFA_XSP16, literal(-2)))
          CFI (cfiCond117) DPH0 load(1, XDATA, add(CFA_XSP16, literal(-1)))
          CFI (cfiCond117) CFA_SP SP+-2
          CFI (cfiCond117) CFA_XSP16 add(XSP16, 85)
          CFI Block cfiCond118 Using cfiCommon0
          CFI (cfiCond118) Function gp_ZclPairingParse
          CFI (cfiCond118) Conditional ??CrossCallReturnLabel_89
          CFI (cfiCond118) R6 load(1, XDATA, add(CFA_XSP16, literal(-20)))
          CFI (cfiCond118) VB load(1, XDATA, add(CFA_XSP16, literal(-19)))
          CFI (cfiCond118) V0 load(1, XDATA, add(CFA_XSP16, literal(-18)))
          CFI (cfiCond118) V1 load(1, XDATA, add(CFA_XSP16, literal(-17)))
          CFI (cfiCond118) V2 load(1, XDATA, add(CFA_XSP16, literal(-16)))
          CFI (cfiCond118) V3 load(1, XDATA, add(CFA_XSP16, literal(-15)))
          CFI (cfiCond118) V4 load(1, XDATA, add(CFA_XSP16, literal(-14)))
          CFI (cfiCond118) V5 load(1, XDATA, add(CFA_XSP16, literal(-13)))
          CFI (cfiCond118) V6 load(1, XDATA, add(CFA_XSP16, literal(-12)))
          CFI (cfiCond118) V7 load(1, XDATA, add(CFA_XSP16, literal(-11)))
          CFI (cfiCond118) V8 load(1, XDATA, add(CFA_XSP16, literal(-10)))
          CFI (cfiCond118) V9 load(1, XDATA, add(CFA_XSP16, literal(-9)))
          CFI (cfiCond118) V10 load(1, XDATA, add(CFA_XSP16, literal(-8)))
          CFI (cfiCond118) V11 load(1, XDATA, add(CFA_XSP16, literal(-7)))
          CFI (cfiCond118) R7 load(1, XDATA, add(CFA_XSP16, literal(-6)))
          CFI (cfiCond118) ?RET_LOW load(1, XDATA, add(CFA_XSP16, literal(-5)))
          CFI (cfiCond118) ?RET_HIGH load(1, XDATA, add(CFA_XSP16, literal(-4)))
          CFI (cfiCond118) ?BRET_EXT load(1, XDATA, add(CFA_XSP16, literal(-3)))
          CFI (cfiCond118) DPL0 load(1, XDATA, add(CFA_XSP16, literal(-2)))
          CFI (cfiCond118) DPH0 load(1, XDATA, add(CFA_XSP16, literal(-1)))
          CFI (cfiCond118) CFA_SP SP+-2
          CFI (cfiCond118) CFA_XSP16 add(XSP16, 85)
          CFI Block cfiPicker119 Using cfiCommon1
          CFI (cfiPicker119) NoFunction
          CFI (cfiPicker119) Picker
        ORL       A,?V5
        ORL       A,?V6
        ORL       A,?V7
        RET
          CFI EndBlock cfiCond116
          CFI EndBlock cfiCond117
          CFI EndBlock cfiCond118
          CFI EndBlock cfiPicker119

        RSEG BANKED_CODE:HUGECODE:NOROOT(0)
?Subroutine27:
          CFI Block cfiCond120 Using cfiCommon0
          CFI Function gp_ZclPairingParse
          CFI Conditional ??CrossCallReturnLabel_32
          CFI R6 load(1, XDATA, add(CFA_XSP16, literal(-20)))
          CFI VB load(1, XDATA, add(CFA_XSP16, literal(-19)))
          CFI V0 load(1, XDATA, add(CFA_XSP16, literal(-18)))
          CFI V1 load(1, XDATA, add(CFA_XSP16, literal(-17)))
          CFI V2 load(1, XDATA, add(CFA_XSP16, literal(-16)))
          CFI V3 load(1, XDATA, add(CFA_XSP16, literal(-15)))
          CFI V4 load(1, XDATA, add(CFA_XSP16, literal(-14)))
          CFI V5 load(1, XDATA, add(CFA_XSP16, literal(-13)))
          CFI V6 load(1, XDATA, add(CFA_XSP16, literal(-12)))
          CFI V7 load(1, XDATA, add(CFA_XSP16, literal(-11)))
          CFI V8 load(1, XDATA, add(CFA_XSP16, literal(-10)))
          CFI V9 load(1, XDATA, add(CFA_XSP16, literal(-9)))
          CFI V10 load(1, XDATA, add(CFA_XSP16, literal(-8)))
          CFI V11 load(1, XDATA, add(CFA_XSP16, literal(-7)))
          CFI R7 load(1, XDATA, add(CFA_XSP16, literal(-6)))
          CFI ?RET_LOW load(1, XDATA, add(CFA_XSP16, literal(-5)))
          CFI ?RET_HIGH load(1, XDATA, add(CFA_XSP16, literal(-4)))
          CFI ?BRET_EXT load(1, XDATA, add(CFA_XSP16, literal(-3)))
          CFI DPL0 load(1, XDATA, add(CFA_XSP16, literal(-2)))
          CFI DPH0 load(1, XDATA, add(CFA_XSP16, literal(-1)))
          CFI CFA_SP SP+-2
          CFI CFA_XSP16 add(XSP16, 85)
          CFI Block cfiCond121 Using cfiCommon0
          CFI (cfiCond121) Function gp_ZclPairingParse
          CFI (cfiCond121) Conditional ??CrossCallReturnLabel_33
          CFI (cfiCond121) R6 load(1, XDATA, add(CFA_XSP16, literal(-20)))
          CFI (cfiCond121) VB load(1, XDATA, add(CFA_XSP16, literal(-19)))
          CFI (cfiCond121) V0 load(1, XDATA, add(CFA_XSP16, literal(-18)))
          CFI (cfiCond121) V1 load(1, XDATA, add(CFA_XSP16, literal(-17)))
          CFI (cfiCond121) V2 load(1, XDATA, add(CFA_XSP16, literal(-16)))
          CFI (cfiCond121) V3 load(1, XDATA, add(CFA_XSP16, literal(-15)))
          CFI (cfiCond121) V4 load(1, XDATA, add(CFA_XSP16, literal(-14)))
          CFI (cfiCond121) V5 load(1, XDATA, add(CFA_XSP16, literal(-13)))
          CFI (cfiCond121) V6 load(1, XDATA, add(CFA_XSP16, literal(-12)))
          CFI (cfiCond121) V7 load(1, XDATA, add(CFA_XSP16, literal(-11)))
          CFI (cfiCond121) V8 load(1, XDATA, add(CFA_XSP16, literal(-10)))
          CFI (cfiCond121) V9 load(1, XDATA, add(CFA_XSP16, literal(-9)))
          CFI (cfiCond121) V10 load(1, XDATA, add(CFA_XSP16, literal(-8)))
          CFI (cfiCond121) V11 load(1, XDATA, add(CFA_XSP16, literal(-7)))
          CFI (cfiCond121) R7 load(1, XDATA, add(CFA_XSP16, literal(-6)))
          CFI (cfiCond121) ?RET_LOW load(1, XDATA, add(CFA_XSP16, literal(-5)))
          CFI (cfiCond121) ?RET_HIGH load(1, XDATA, add(CFA_XSP16, literal(-4)))
          CFI (cfiCond121) ?BRET_EXT load(1, XDATA, add(CFA_XSP16, literal(-3)))
          CFI (cfiCond121) DPL0 load(1, XDATA, add(CFA_XSP16, literal(-2)))
          CFI (cfiCond121) DPH0 load(1, XDATA, add(CFA_XSP16, literal(-1)))
          CFI (cfiCond121) CFA_SP SP+-2
          CFI (cfiCond121) CFA_XSP16 add(XSP16, 85)
          CFI Block cfiPicker122 Using cfiCommon1
          CFI (cfiPicker122) NoFunction
          CFI (cfiPicker122) Picker
        MOV       R2,A
        CLR       A
        ADDC      A,R7
        MOV       R3,A
        MOV       DPL,R6
        MOV       DPH,R7
        MOV       R0,#?V4
        RET
          CFI EndBlock cfiCond120
          CFI EndBlock cfiCond121
          CFI EndBlock cfiPicker122

        RSEG BANKED_CODE:HUGECODE:NOROOT(0)
?Subroutine13:
          CFI Block cfiCond123 Using cfiCommon0
          CFI Function zclGp_GpProxyCommissioningModeCB
          CFI Conditional ??CrossCallReturnLabel_8
          CFI R6 load(1, XDATA, add(CFA_XSP16, literal(-10)))
          CFI VB load(1, XDATA, add(CFA_XSP16, literal(-9)))
          CFI V0 load(1, XDATA, add(CFA_XSP16, literal(-8)))
          CFI V1 load(1, XDATA, add(CFA_XSP16, literal(-7)))
          CFI R7 load(1, XDATA, add(CFA_XSP16, literal(-6)))
          CFI ?RET_LOW load(1, XDATA, add(CFA_XSP16, literal(-5)))
          CFI ?RET_HIGH load(1, XDATA, add(CFA_XSP16, literal(-4)))
          CFI ?BRET_EXT load(1, XDATA, add(CFA_XSP16, literal(-3)))
          CFI DPL0 load(1, XDATA, add(CFA_XSP16, literal(-2)))
          CFI DPH0 load(1, XDATA, add(CFA_XSP16, literal(-1)))
          CFI CFA_SP SP+-2
          CFI CFA_XSP16 add(XSP16, 10)
          CFI Block cfiCond124 Using cfiCommon0
          CFI (cfiCond124) Function gp_ZclPairingParse
          CFI (cfiCond124) Conditional ??CrossCallReturnLabel_9
          CFI (cfiCond124) R6 load(1, XDATA, add(CFA_XSP16, literal(-20)))
          CFI (cfiCond124) VB load(1, XDATA, add(CFA_XSP16, literal(-19)))
          CFI (cfiCond124) V0 load(1, XDATA, add(CFA_XSP16, literal(-18)))
          CFI (cfiCond124) V1 load(1, XDATA, add(CFA_XSP16, literal(-17)))
          CFI (cfiCond124) V2 load(1, XDATA, add(CFA_XSP16, literal(-16)))
          CFI (cfiCond124) V3 load(1, XDATA, add(CFA_XSP16, literal(-15)))
          CFI (cfiCond124) V4 load(1, XDATA, add(CFA_XSP16, literal(-14)))
          CFI (cfiCond124) V5 load(1, XDATA, add(CFA_XSP16, literal(-13)))
          CFI (cfiCond124) V6 load(1, XDATA, add(CFA_XSP16, literal(-12)))
          CFI (cfiCond124) V7 load(1, XDATA, add(CFA_XSP16, literal(-11)))
          CFI (cfiCond124) V8 load(1, XDATA, add(CFA_XSP16, literal(-10)))
          CFI (cfiCond124) V9 load(1, XDATA, add(CFA_XSP16, literal(-9)))
          CFI (cfiCond124) V10 load(1, XDATA, add(CFA_XSP16, literal(-8)))
          CFI (cfiCond124) V11 load(1, XDATA, add(CFA_XSP16, literal(-7)))
          CFI (cfiCond124) R7 load(1, XDATA, add(CFA_XSP16, literal(-6)))
          CFI (cfiCond124) ?RET_LOW load(1, XDATA, add(CFA_XSP16, literal(-5)))
          CFI (cfiCond124) ?RET_HIGH load(1, XDATA, add(CFA_XSP16, literal(-4)))
          CFI (cfiCond124) ?BRET_EXT load(1, XDATA, add(CFA_XSP16, literal(-3)))
          CFI (cfiCond124) DPL0 load(1, XDATA, add(CFA_XSP16, literal(-2)))
          CFI (cfiCond124) DPH0 load(1, XDATA, add(CFA_XSP16, literal(-1)))
          CFI (cfiCond124) CFA_SP SP+-2
          CFI (cfiCond124) CFA_XSP16 add(XSP16, 85)
          CFI Block cfiPicker125 Using cfiCommon1
          CFI (cfiPicker125) NoFunction
          CFI (cfiPicker125) Picker
        MOV       DPL,?V0
        MOV       DPH,?V1
        MOVX      A,@DPTR
        ADD       A,#0x2
        MOV       R0,A
        INC       DPTR
        MOVX      A,@DPTR
        ADDC      A,#0x0
        MOV       R1,A
        MOV       DPL,?V0
        MOV       DPH,?V1
        RET
          CFI EndBlock cfiCond123
          CFI EndBlock cfiCond124
          CFI EndBlock cfiPicker125
// 1145 
// 1146  /*********************************************************************
// 1147  * @fn          gp_ZclProxyTableReqParse
// 1148  *
// 1149  * @brief       Parse the proxy table request data message payload
// 1150  *
// 1151  * @param       
// 1152  *
// 1153  * @return      
// 1154  */

        RSEG BANKED_CODE:HUGECODE:NOROOT(0)
// 1155 static void gp_ZclProxyTableReqParse( zclGpProxyTableRequest_t* pCmd, gpProxyTableReqCmd_t* payload )
gp_ZclProxyTableReqParse:
          CFI Block cfiBlock126 Using cfiCommon0
          CFI Function gp_ZclProxyTableReqParse
        CODE
// 1156 {
        FUNCALL gp_ZclProxyTableReqParse, gp_PopulateField
        LOCFRAME ISTACK, 0, STACK
        LOCFRAME PSTACK, 0, STACK
        LOCFRAME XSTACK, 14, STACK
        LOCFRAME IOVERLAY, 0, STATIC
        LOCFRAME DOVERLAY, 0, STATIC
        ARGFRAME ISTACK, 0, STACK
        ARGFRAME PSTACK, 0, STACK
        ARGFRAME XSTACK, 14, STACK
        ARGFRAME IOVERLAY, 0, STATIC
        ARGFRAME DOVERLAY, 0, STATIC
        FUNCALL gp_ZclProxyTableReqParse, osal_memset
        LOCFRAME ISTACK, 0, STACK
        LOCFRAME PSTACK, 0, STACK
        LOCFRAME XSTACK, 14, STACK
        LOCFRAME IOVERLAY, 0, STATIC
        LOCFRAME DOVERLAY, 0, STATIC
        ARGFRAME ISTACK, 0, STACK
        ARGFRAME PSTACK, 0, STACK
        ARGFRAME XSTACK, 14, STACK
        ARGFRAME IOVERLAY, 0, STATIC
        ARGFRAME DOVERLAY, 0, STATIC
        FUNCALL gp_ZclProxyTableReqParse, gp_PopulateField
        LOCFRAME ISTACK, 0, STACK
        LOCFRAME PSTACK, 0, STACK
        LOCFRAME XSTACK, 14, STACK
        LOCFRAME IOVERLAY, 0, STATIC
        LOCFRAME DOVERLAY, 0, STATIC
        ARGFRAME ISTACK, 0, STACK
        ARGFRAME PSTACK, 0, STACK
        ARGFRAME XSTACK, 14, STACK
        ARGFRAME IOVERLAY, 0, STATIC
        ARGFRAME DOVERLAY, 0, STATIC
        FUNCALL gp_ZclProxyTableReqParse, gp_PopulateField
        LOCFRAME ISTACK, 0, STACK
        LOCFRAME PSTACK, 0, STACK
        LOCFRAME XSTACK, 14, STACK
        LOCFRAME IOVERLAY, 0, STATIC
        LOCFRAME DOVERLAY, 0, STATIC
        ARGFRAME ISTACK, 0, STACK
        ARGFRAME PSTACK, 0, STACK
        ARGFRAME XSTACK, 14, STACK
        ARGFRAME IOVERLAY, 0, STATIC
        ARGFRAME DOVERLAY, 0, STATIC
        FUNCALL gp_ZclProxyTableReqParse, osal_memset
        LOCFRAME ISTACK, 0, STACK
        LOCFRAME PSTACK, 0, STACK
        LOCFRAME XSTACK, 14, STACK
        LOCFRAME IOVERLAY, 0, STATIC
        LOCFRAME DOVERLAY, 0, STATIC
        ARGFRAME ISTACK, 0, STACK
        ARGFRAME PSTACK, 0, STACK
        ARGFRAME XSTACK, 14, STACK
        ARGFRAME IOVERLAY, 0, STATIC
        ARGFRAME DOVERLAY, 0, STATIC
        FUNCALL gp_ZclProxyTableReqParse, gp_PopulateField
        LOCFRAME ISTACK, 0, STACK
        LOCFRAME PSTACK, 0, STACK
        LOCFRAME XSTACK, 14, STACK
        LOCFRAME IOVERLAY, 0, STATIC
        LOCFRAME DOVERLAY, 0, STATIC
        ARGFRAME ISTACK, 0, STACK
        ARGFRAME PSTACK, 0, STACK
        ARGFRAME XSTACK, 14, STACK
        ARGFRAME IOVERLAY, 0, STATIC
        ARGFRAME DOVERLAY, 0, STATIC
        REQUIRE ?V0
        REQUIRE ?V1
        REQUIRE ?V2
        REQUIRE ?V3
        REQUIRE ?V4
        REQUIRE ?V5
        MOV       A,#-0xe
        LCALL     ?BANKED_ENTER_XDATA
          CFI DPH0 load(1, XDATA, add(CFA_XSP16, literal(-1)))
          CFI DPL0 load(1, XDATA, add(CFA_XSP16, literal(-2)))
          CFI ?BRET_EXT load(1, XDATA, add(CFA_XSP16, literal(-3)))
          CFI ?RET_HIGH load(1, XDATA, add(CFA_XSP16, literal(-4)))
          CFI ?RET_LOW load(1, XDATA, add(CFA_XSP16, literal(-5)))
          CFI R7 load(1, XDATA, add(CFA_XSP16, literal(-6)))
          CFI V5 load(1, XDATA, add(CFA_XSP16, literal(-7)))
          CFI V4 load(1, XDATA, add(CFA_XSP16, literal(-8)))
          CFI V3 load(1, XDATA, add(CFA_XSP16, literal(-9)))
          CFI V2 load(1, XDATA, add(CFA_XSP16, literal(-10)))
          CFI V1 load(1, XDATA, add(CFA_XSP16, literal(-11)))
          CFI V0 load(1, XDATA, add(CFA_XSP16, literal(-12)))
          CFI VB load(1, XDATA, add(CFA_XSP16, literal(-13)))
          CFI R6 load(1, XDATA, add(CFA_XSP16, literal(-14)))
          CFI CFA_SP SP+0
          CFI CFA_XSP16 add(XSP16, 14)
        ; Saved register size: 14
        ; Auto size: 0
// 1157 
// 1158   payload->options =  pCmd->options;
        MOV       DPL,R2
        MOV       DPH,R3
        INC       DPTR
        INC       DPTR
        MOVX      A,@DPTR
        MOV       R1,A
        MOV       DPL,R4
        MOV       DPH,R5
        MOVX      @DPTR,A
// 1159     
// 1160   // If Request type bitfield is 0b00
// 1161   if( GP_IS_REQ_TYP_GPD( payload->options ) )
        RRC       A
        RRC       A
        RRC       A
        ANL       A,#0x1f
        ANL       A,#0x3
        MOV       R0,A
        MOV       A,R4
        ADD       A,#0xe
        MOV       ?V4,A
        CLR       A
        ADDC      A,R5
        MOV       ?V5,A
        MOV       A,R4
        ADD       A,#0xd
        MOV       ?V2,A
        CLR       A
        ADDC      A,R5
        MOV       ?V3,A
        MOV       A,R4
        ADD       A,#0x5
        MOV       ?V0,A
        CLR       A
        ADDC      A,R5
        MOV       ?V1,A
        INC       DPTR
        MOV       A,R2
        ADD       A,#0x3
        MOV       R6,A
        CLR       A
        ADDC      A,R3
        MOV       R7,A
        MOV       A,R0
        JNZ       ??gp_ZclProxyTableReqParse_0
// 1162   {  
// 1163     // If Application Id bitfield is 0b000
// 1164     if( GP_IS_APPLICATION_ID_GPD( payload->options ) )
        MOV       A,#0x7
        ANL       A,R1
        MOV       R0,A
        JNZ       ??gp_ZclProxyTableReqParse_1
// 1165     {        
// 1166       // Populate GPD ID
// 1167       gp_PopulateField( ( uint8* )&payload->gpdId, &pCmd->pData, sizeof( payload->gpdId ) );
        ; Setup parameters for call to function gp_PopulateField
        MOV       R1,#0x4
        MOV       A,R6
        MOV       R4,A
        MOV       A,R7
        MOV       R5,A
        MOV       R2,DPL
        MOV       R3,DPH
        LCALL     `??gp_PopulateField::?relay`; Banked call to: gp_PopulateField
// 1168     
// 1169       // Populate GPD IEEE Invalid
// 1170       osal_memset ( &payload->gpdIEEE, 0xFF, Z_EXTADDR_LEN );
        ; Setup parameters for call to function osal_memset
        MOV       R4,#0x8
        MOV       R5,#0x0
        MOV       R1,#-0x1
        MOV       R2,?V0
        MOV       R3,?V1
        LCALL     `??osal_memset::?relay`; Banked call to: osal_memset
// 1171       // Populate EP Invalid
// 1172       payload->ep = 0xFF;
        MOV       DPL,?V2
        MOV       DPH,?V3
        MOV       A,#-0x1
        MOVX      @DPTR,A
        SJMP      ??gp_ZclProxyTableReqParse_2
// 1173     }
// 1174     // If Application Id bitfield is 0b010
// 1175     else if( GP_IS_APPLICATION_ID_IEEE( payload->options ) )
??gp_ZclProxyTableReqParse_1:
        MOV       A,#0x2
        XRL       A,R0
        JNZ       ??gp_ZclProxyTableReqParse_2
// 1176     {
// 1177       // Populate GPD ID Invalid
// 1178       payload->gpdId = 0xFFFFFFFF;
        LCALL     ?Subroutine5 & 0xFFFF
// 1179     
// 1180       // Populate GPD IEEE
// 1181       gp_PopulateField( ( uint8* )&payload->gpdIEEE, &pCmd->pData, Z_EXTADDR_LEN );
??CrossCallReturnLabel_1:
        MOV       A,R6
        MOV       R4,A
        MOV       A,R7
        MOV       R5,A
        MOV       R2,?V0
        MOV       R3,?V1
        LCALL     `??gp_PopulateField::?relay`; Banked call to: gp_PopulateField
// 1182       // Populate EP
// 1183       gp_PopulateField( ( uint8* )&payload->ep, &pCmd->pData, sizeof( payload->ep ) );
        ; Setup parameters for call to function gp_PopulateField
        MOV       R1,#0x1
        MOV       A,R6
        MOV       R4,A
        MOV       A,R7
        MOV       R5,A
        MOV       R2,?V2
        MOV       R3,?V3
        LCALL     `??gp_PopulateField::?relay`; Banked call to: gp_PopulateField
// 1184     }
// 1185     // Populate Index Invalid
// 1186     payload->index = 0xFF;
??gp_ZclProxyTableReqParse_2:
        MOV       DPL,?V4
        MOV       DPH,?V5
        MOV       A,#-0x1
        MOVX      @DPTR,A
        SJMP      ??gp_ZclProxyTableReqParse_3
// 1187   }
// 1188   // If Request type bitfield is 0b01
// 1189   else if( GP_IS_REQ_TPY_INDEX( payload->options ) )
??gp_ZclProxyTableReqParse_0:
        MOV       A,#0x1
        XRL       A,R0
        JNZ       ??gp_ZclProxyTableReqParse_3
// 1190   {
// 1191     // Populate GPD ID Invalid
// 1192     payload->gpdId = 0xFFFFFFFF;
        LCALL     ?Subroutine6 & 0xFFFF
// 1193     
// 1194     // Populate GPD IEEE Invalid
// 1195     osal_memset ( &payload->gpdIEEE, 0xFF, Z_EXTADDR_LEN );
??CrossCallReturnLabel_54:
        ; Setup parameters for call to function osal_memset
        MOV       R4,#0x8
        MOV       R5,#0x0
        MOV       R1,A
        MOV       R2,?V0
        MOV       R3,?V1
        LCALL     `??osal_memset::?relay`; Banked call to: osal_memset
// 1196     
// 1197     // Populate EP Invalid
// 1198     payload->ep = 0xFF;
        MOV       DPL,?V2
        MOV       DPH,?V3
        MOV       A,#-0x1
        MOVX      @DPTR,A
// 1199     
// 1200     // Populate index
// 1201     gp_PopulateField( ( uint8* )&payload->index, &pCmd->pData, sizeof( payload->index ) );
        ; Setup parameters for call to function gp_PopulateField
        MOV       R1,#0x1
        MOV       A,R6
        MOV       R4,A
        MOV       A,R7
        MOV       R5,A
        MOV       R2,?V4
        MOV       R3,?V5
        LCALL     `??gp_PopulateField::?relay`; Banked call to: gp_PopulateField
// 1202   }
// 1203 
// 1204 }
??gp_ZclProxyTableReqParse_3:
          CFI EndBlock cfiBlock126
        REQUIRE ?Subroutine3
        ; // Fall through to label ?Subroutine3

        RSEG BANKED_CODE:HUGECODE:NOROOT(0)
?Subroutine3:
          CFI Block cfiBlock127 Using cfiCommon0
          CFI NoFunction
          CFI CFA_SP SP+0
          CFI CFA_XSP16 add(XSP16, 14)
          CFI VB load(1, XDATA, add(CFA_XSP16, literal(-13)))
          CFI DPL0 load(1, XDATA, add(CFA_XSP16, literal(-2)))
          CFI DPH0 load(1, XDATA, add(CFA_XSP16, literal(-1)))
          CFI R6 load(1, XDATA, add(CFA_XSP16, literal(-14)))
          CFI R7 load(1, XDATA, add(CFA_XSP16, literal(-6)))
          CFI V0 load(1, XDATA, add(CFA_XSP16, literal(-12)))
          CFI V1 load(1, XDATA, add(CFA_XSP16, literal(-11)))
          CFI V2 load(1, XDATA, add(CFA_XSP16, literal(-10)))
          CFI V3 load(1, XDATA, add(CFA_XSP16, literal(-9)))
          CFI V4 load(1, XDATA, add(CFA_XSP16, literal(-8)))
          CFI V5 load(1, XDATA, add(CFA_XSP16, literal(-7)))
          CFI ?BRET_EXT load(1, XDATA, add(CFA_XSP16, literal(-3)))
          CFI ?RET_HIGH load(1, XDATA, add(CFA_XSP16, literal(-4)))
          CFI ?RET_LOW load(1, XDATA, add(CFA_XSP16, literal(-5)))
        MOV       R7,#0x6
        LJMP      ?BANKED_LEAVE_XDATA
          CFI EndBlock cfiBlock127

        RSEG BANKED_CODE:HUGECODE:NOROOT(0)
?Subroutine5:
          CFI Block cfiCond128 Using cfiCommon0
          CFI Function gp_ZclPairingParse
          CFI Conditional ??CrossCallReturnLabel_0
          CFI R6 load(1, XDATA, add(CFA_XSP16, literal(-20)))
          CFI VB load(1, XDATA, add(CFA_XSP16, literal(-19)))
          CFI V0 load(1, XDATA, add(CFA_XSP16, literal(-18)))
          CFI V1 load(1, XDATA, add(CFA_XSP16, literal(-17)))
          CFI V2 load(1, XDATA, add(CFA_XSP16, literal(-16)))
          CFI V3 load(1, XDATA, add(CFA_XSP16, literal(-15)))
          CFI V4 load(1, XDATA, add(CFA_XSP16, literal(-14)))
          CFI V5 load(1, XDATA, add(CFA_XSP16, literal(-13)))
          CFI V6 load(1, XDATA, add(CFA_XSP16, literal(-12)))
          CFI V7 load(1, XDATA, add(CFA_XSP16, literal(-11)))
          CFI V8 load(1, XDATA, add(CFA_XSP16, literal(-10)))
          CFI V9 load(1, XDATA, add(CFA_XSP16, literal(-9)))
          CFI V10 load(1, XDATA, add(CFA_XSP16, literal(-8)))
          CFI V11 load(1, XDATA, add(CFA_XSP16, literal(-7)))
          CFI R7 load(1, XDATA, add(CFA_XSP16, literal(-6)))
          CFI ?RET_LOW load(1, XDATA, add(CFA_XSP16, literal(-5)))
          CFI ?RET_HIGH load(1, XDATA, add(CFA_XSP16, literal(-4)))
          CFI ?BRET_EXT load(1, XDATA, add(CFA_XSP16, literal(-3)))
          CFI DPL0 load(1, XDATA, add(CFA_XSP16, literal(-2)))
          CFI DPH0 load(1, XDATA, add(CFA_XSP16, literal(-1)))
          CFI CFA_SP SP+-2
          CFI CFA_XSP16 add(XSP16, 85)
          CFI Block cfiCond129 Using cfiCommon0
          CFI (cfiCond129) Function gp_ZclProxyTableReqParse
          CFI (cfiCond129) Conditional ??CrossCallReturnLabel_1
          CFI (cfiCond129) R6 load(1, XDATA, add(CFA_XSP16, literal(-14)))
          CFI (cfiCond129) VB load(1, XDATA, add(CFA_XSP16, literal(-13)))
          CFI (cfiCond129) V0 load(1, XDATA, add(CFA_XSP16, literal(-12)))
          CFI (cfiCond129) V1 load(1, XDATA, add(CFA_XSP16, literal(-11)))
          CFI (cfiCond129) V2 load(1, XDATA, add(CFA_XSP16, literal(-10)))
          CFI (cfiCond129) V3 load(1, XDATA, add(CFA_XSP16, literal(-9)))
          CFI (cfiCond129) V4 load(1, XDATA, add(CFA_XSP16, literal(-8)))
          CFI (cfiCond129) V5 load(1, XDATA, add(CFA_XSP16, literal(-7)))
          CFI (cfiCond129) R7 load(1, XDATA, add(CFA_XSP16, literal(-6)))
          CFI (cfiCond129) ?RET_LOW load(1, XDATA, add(CFA_XSP16, literal(-5)))
          CFI (cfiCond129) ?RET_HIGH load(1, XDATA, add(CFA_XSP16, literal(-4)))
          CFI (cfiCond129) ?BRET_EXT load(1, XDATA, add(CFA_XSP16, literal(-3)))
          CFI (cfiCond129) DPL0 load(1, XDATA, add(CFA_XSP16, literal(-2)))
          CFI (cfiCond129) DPH0 load(1, XDATA, add(CFA_XSP16, literal(-1)))
          CFI (cfiCond129) CFA_SP SP+-2
          CFI (cfiCond129) CFA_XSP16 add(XSP16, 14)
          CFI Block cfiPicker130 Using cfiCommon1
          CFI (cfiPicker130) NoFunction
          CFI (cfiPicker130) Picker
        MOV       A,#-0x1
        MOVX      @DPTR,A
        INC       DPTR
        MOVX      @DPTR,A
        INC       DPTR
        MOVX      @DPTR,A
        INC       DPTR
        MOVX      @DPTR,A
        ; Setup parameters for call to function gp_PopulateField
        ; Setup parameters for call to function gp_PopulateField
        MOV       R1,#0x8
        RET
          CFI EndBlock cfiCond128
          CFI EndBlock cfiCond129
          CFI EndBlock cfiPicker130
// 1205 
// 1206  /*********************************************************************
// 1207  * @fn          gp_PopulateField
// 1208  *
// 1209  * @brief       General function fill the proxy table vector item
// 1210  *
// 1211  * @param       
// 1212  *
// 1213  * @return      
// 1214  */

        RSEG BANKED_CODE:HUGECODE:NOROOT(0)
// 1215 void gp_PopulateField( uint8* pField, uint8** pData, uint8 size )
gp_PopulateField:
          CFI Block cfiBlock131 Using cfiCommon0
          CFI Function gp_PopulateField
        CODE
// 1216 {
        FUNCALL gp_PopulateField, osal_memcpy
        LOCFRAME ISTACK, 0, STACK
        LOCFRAME PSTACK, 0, STACK
        LOCFRAME XSTACK, 20, STACK
        LOCFRAME IOVERLAY, 0, STATIC
        LOCFRAME DOVERLAY, 0, STATIC
        ARGFRAME ISTACK, 0, STACK
        ARGFRAME PSTACK, 0, STACK
        ARGFRAME XSTACK, 20, STACK
        ARGFRAME IOVERLAY, 0, STATIC
        ARGFRAME DOVERLAY, 0, STATIC
        FUNCALL gp_PopulateField, osal_memcpy
        LOCFRAME ISTACK, 0, STACK
        LOCFRAME PSTACK, 0, STACK
        LOCFRAME XSTACK, 20, STACK
        LOCFRAME IOVERLAY, 0, STATIC
        LOCFRAME DOVERLAY, 0, STATIC
        ARGFRAME ISTACK, 0, STACK
        ARGFRAME PSTACK, 0, STACK
        ARGFRAME XSTACK, 20, STACK
        ARGFRAME IOVERLAY, 0, STATIC
        ARGFRAME DOVERLAY, 0, STATIC
        REQUIRE ?V0
        REQUIRE ?V1
        REQUIRE ?V2
        REQUIRE ?V3
        REQUIRE ?V4
        REQUIRE ?V5
        REQUIRE ?V6
        REQUIRE ?V7
        REQUIRE ?V8
        MOV       A,#-0x11
        LCALL     ?BANKED_ENTER_XDATA
          CFI DPH0 load(1, XDATA, add(CFA_XSP16, literal(-1)))
          CFI DPL0 load(1, XDATA, add(CFA_XSP16, literal(-2)))
          CFI ?BRET_EXT load(1, XDATA, add(CFA_XSP16, literal(-3)))
          CFI ?RET_HIGH load(1, XDATA, add(CFA_XSP16, literal(-4)))
          CFI ?RET_LOW load(1, XDATA, add(CFA_XSP16, literal(-5)))
          CFI R7 load(1, XDATA, add(CFA_XSP16, literal(-6)))
          CFI V8 load(1, XDATA, add(CFA_XSP16, literal(-7)))
          CFI V7 load(1, XDATA, add(CFA_XSP16, literal(-8)))
          CFI V6 load(1, XDATA, add(CFA_XSP16, literal(-9)))
          CFI V5 load(1, XDATA, add(CFA_XSP16, literal(-10)))
          CFI V4 load(1, XDATA, add(CFA_XSP16, literal(-11)))
          CFI V3 load(1, XDATA, add(CFA_XSP16, literal(-12)))
          CFI V2 load(1, XDATA, add(CFA_XSP16, literal(-13)))
          CFI V1 load(1, XDATA, add(CFA_XSP16, literal(-14)))
          CFI V0 load(1, XDATA, add(CFA_XSP16, literal(-15)))
          CFI VB load(1, XDATA, add(CFA_XSP16, literal(-16)))
          CFI R6 load(1, XDATA, add(CFA_XSP16, literal(-17)))
          CFI CFA_SP SP+0
          CFI CFA_XSP16 add(XSP16, 17)
        ; Saved register size: 17
        ; Auto size: 0
        MOV       A,R4
        MOV       R6,A
        MOV       A,R5
        MOV       R7,A
        MOV       ?V8,R1
// 1217   switch ( size )
        MOV       A,R1
        DEC       A
        JZ        ??gp_PopulateField_0
        DEC       A
        JZ        ??gp_PopulateField_1
        ADD       A,#-0x2
        JZ        ??gp_PopulateField_2
        ADD       A,#-0x4
        JNZ       $+5
        LJMP      ??gp_PopulateField_3 & 0xFFFF
        ADD       A,#-0x8
        JNZ       $+5
        LJMP      ??gp_PopulateField_4 & 0xFFFF
        LJMP      ??gp_PopulateField_5 & 0xFFFF
// 1218   {
// 1219     case ( sizeof( uint8 ) ):
// 1220       gp_u8CastPointer( pField, *pData );
??gp_PopulateField_0:
        MOV       DPL,R6
        MOV       DPH,R7
        LCALL     ?Subroutine14 & 0xFFFF
??CrossCallReturnLabel_115:
        MOVX      A,@DPTR
        MOV       R0,A
        MOV       DPL,R2
        MOV       DPH,R3
        MOVX      A,@DPTR
        ORL       A,R0
        SJMP      ??gp_PopulateField_6
// 1221       break;
// 1222     case ( sizeof( uint16 ) ):
// 1223       gp_u16CastPointer( pField, *pData );
??gp_PopulateField_1:
        MOV       DPL,R6
        MOV       DPH,R7
        LCALL     ?Subroutine19 & 0xFFFF
??CrossCallReturnLabel_18:
        MOVX      A,@DPTR
        MOV       R4,A
        MOV       DPH,R3
        MOV       DPL,R2
        MOVX      A,@DPTR
        ORL       A,R4
        MOV       R4,A
        INC       DPTR
        MOVX      A,@DPTR
        MOV       R5,A
        MOV       DPL,R2
        MOV       DPH,R3
        MOV       A,R4
        MOVX      @DPTR,A
        INC       DPTR
        MOV       A,R5
        MOVX      @DPTR,A
        MOV       DPL,R0
        MOV       DPH,R1
        INC       DPTR
        MOVX      A,@DPTR
        MOV       R1,A
        MOV       A,R4
        MOV       R0,A
        MOV       A,R5
        ORL       A,R1
        MOV       R1,A
        MOV       DPL,R2
        MOV       DPH,R3
        MOV       A,R0
        MOVX      @DPTR,A
        INC       DPTR
        MOV       A,R1
??gp_PopulateField_6:
        MOVX      @DPTR,A
// 1224       break;
        LJMP      ??gp_PopulateField_5 & 0xFFFF
// 1225     case ( sizeof( uint32 ) ):
// 1226       gp_u32CastPointer( pField, *pData );
??gp_PopulateField_2:
        MOV       DPL,R6
        MOV       DPH,R7
        MOVX      A,@DPTR
        MOV       R4,A
        INC       DPTR
        MOVX      A,@DPTR
        MOV       R5,A
        MOV       DPL,R4
        MOV       DPH,R5
        MOV       R0,#?V0
        LCALL     ?L_MOV_X
        MOV       DPTR,#__Constant_ff
        MOV       R0,#?V0
        LCALL     ?L_AND_X
        MOV       DPH,R3
        MOV       DPL,R2
        MOV       R0,#?V0
        LCALL     ?L_IOR_X
        MOV       DPL,R2
        MOV       DPH,R3
        MOV       R0,#?V0
        LCALL     ?L_MOV_TO_X
        MOV       DPL,R4
        MOV       DPH,R5
        INC       DPTR
        MOV       R0,#?V4
        LCALL     ?L_MOV_X
        MOV       A,#0x8
        MOV       R0,#?V4
        LCALL     ?L_SHL
        MOV       DPTR,#__Constant_ff00
        MOV       R0,#?V4
        LCALL     ?L_AND_X
        MOV       R0,#?V0
        MOV       R1,#?V4
        LCALL     ?L_IOR
        MOV       DPL,R2
        MOV       DPH,R3
        MOV       R0,#?V0
        LCALL     ?L_MOV_TO_X
        MOV       DPL,R4
        MOV       DPH,R5
        INC       DPTR
        INC       DPTR
        MOV       R0,#?V4
        LCALL     ?L_MOV_X
        MOV       A,#0x10
        MOV       R0,#?V4
        LCALL     ?L_SHL
        MOV       DPTR,#__Constant_ff0000
        MOV       R0,#?V4
        LCALL     ?L_AND_X
        MOV       R0,#?V0
        MOV       R1,#?V4
        LCALL     ?L_IOR
        MOV       DPL,R2
        MOV       DPH,R3
        MOV       R0,#?V0
        LCALL     ?L_MOV_TO_X
        MOV       DPL,R4
        MOV       DPH,R5
        INC       DPTR
        INC       DPTR
        INC       DPTR
        MOV       R0,#?V4
        LCALL     ?L_MOV_X
        MOV       A,#0x18
        MOV       R0,#?V4
        LCALL     ?L_SHL
        MOV       R0,#?V0
        MOV       R1,#?V4
        LCALL     ?L_IOR
        MOV       DPL,R2
        MOV       DPH,R3
        MOV       R0,#?V0
        LCALL     ?L_MOV_TO_X
// 1227       break;
        SJMP      ??gp_PopulateField_5
// 1228     case ( Z_EXTADDR_LEN ):
// 1229       osal_memcpy( pField, *pData, Z_EXTADDR_LEN );
??gp_PopulateField_3:
        ; Setup parameters for call to function osal_memcpy
        LCALL     ?Subroutine16 & 0xFFFF
??CrossCallReturnLabel_12:
        LCALL     ?PUSH_XSTACK_I_THREE
          CFI CFA_XSP16 add(XSP16, 20)
        MOV       R4,#0x8
        SJMP      ??gp_PopulateField_7
          CFI CFA_XSP16 add(XSP16, 17)
// 1230       break;
// 1231     case ( SEC_KEY_LEN ):
// 1232       osal_memcpy( pField, *pData, SEC_KEY_LEN );
??gp_PopulateField_4:
        ; Setup parameters for call to function osal_memcpy
        LCALL     ?Subroutine16 & 0xFFFF
??CrossCallReturnLabel_13:
        LCALL     ?PUSH_XSTACK_I_THREE
          CFI CFA_XSP16 add(XSP16, 20)
        MOV       R4,#0x10
??gp_PopulateField_7:
        MOV       R5,#0x0
        LCALL     `??osal_memcpy::?relay`; Banked call to: osal_memcpy
        MOV       A,#0x3
        LCALL     ?DEALLOC_XSTACK8
          CFI CFA_XSP16 add(XSP16, 17)
// 1233       break;
// 1234   }
// 1235   *pData += size;
??gp_PopulateField_5:
        MOV       R0,?V8
        MOV       DPL,R6
        MOV       DPH,R7
        MOVX      A,@DPTR
        ADD       A,R0
        MOV       R0,A
        INC       DPTR
        MOVX      A,@DPTR
        ADDC      A,#0x0
        MOV       R1,A
        MOV       DPL,R6
        MOV       DPH,R7
        LCALL     ??Subroutine44_0 & 0xFFFF
// 1236 }
??CrossCallReturnLabel_93:
        MOV       R7,#0x9
        LJMP      ?BANKED_LEAVE_XDATA
          CFI EndBlock cfiBlock131

        RSEG BANKED_CODE:HUGECODE:NOROOT(0)
?Subroutine16:
          CFI Block cfiCond132 Using cfiCommon0
          CFI Function gp_PopulateField
          CFI Conditional ??CrossCallReturnLabel_12
          CFI R6 load(1, XDATA, add(CFA_XSP16, literal(-17)))
          CFI VB load(1, XDATA, add(CFA_XSP16, literal(-16)))
          CFI V0 load(1, XDATA, add(CFA_XSP16, literal(-15)))
          CFI V1 load(1, XDATA, add(CFA_XSP16, literal(-14)))
          CFI V2 load(1, XDATA, add(CFA_XSP16, literal(-13)))
          CFI V3 load(1, XDATA, add(CFA_XSP16, literal(-12)))
          CFI V4 load(1, XDATA, add(CFA_XSP16, literal(-11)))
          CFI V5 load(1, XDATA, add(CFA_XSP16, literal(-10)))
          CFI V6 load(1, XDATA, add(CFA_XSP16, literal(-9)))
          CFI V7 load(1, XDATA, add(CFA_XSP16, literal(-8)))
          CFI V8 load(1, XDATA, add(CFA_XSP16, literal(-7)))
          CFI R7 load(1, XDATA, add(CFA_XSP16, literal(-6)))
          CFI ?RET_LOW load(1, XDATA, add(CFA_XSP16, literal(-5)))
          CFI ?RET_HIGH load(1, XDATA, add(CFA_XSP16, literal(-4)))
          CFI ?BRET_EXT load(1, XDATA, add(CFA_XSP16, literal(-3)))
          CFI DPL0 load(1, XDATA, add(CFA_XSP16, literal(-2)))
          CFI DPH0 load(1, XDATA, add(CFA_XSP16, literal(-1)))
          CFI CFA_SP SP+-2
          CFI CFA_XSP16 add(XSP16, 17)
          CFI Block cfiCond133 Using cfiCommon0
          CFI (cfiCond133) Function gp_PopulateField
          CFI (cfiCond133) Conditional ??CrossCallReturnLabel_13
          CFI (cfiCond133) R6 load(1, XDATA, add(CFA_XSP16, literal(-17)))
          CFI (cfiCond133) VB load(1, XDATA, add(CFA_XSP16, literal(-16)))
          CFI (cfiCond133) V0 load(1, XDATA, add(CFA_XSP16, literal(-15)))
          CFI (cfiCond133) V1 load(1, XDATA, add(CFA_XSP16, literal(-14)))
          CFI (cfiCond133) V2 load(1, XDATA, add(CFA_XSP16, literal(-13)))
          CFI (cfiCond133) V3 load(1, XDATA, add(CFA_XSP16, literal(-12)))
          CFI (cfiCond133) V4 load(1, XDATA, add(CFA_XSP16, literal(-11)))
          CFI (cfiCond133) V5 load(1, XDATA, add(CFA_XSP16, literal(-10)))
          CFI (cfiCond133) V6 load(1, XDATA, add(CFA_XSP16, literal(-9)))
          CFI (cfiCond133) V7 load(1, XDATA, add(CFA_XSP16, literal(-8)))
          CFI (cfiCond133) V8 load(1, XDATA, add(CFA_XSP16, literal(-7)))
          CFI (cfiCond133) R7 load(1, XDATA, add(CFA_XSP16, literal(-6)))
          CFI (cfiCond133) ?RET_LOW load(1, XDATA, add(CFA_XSP16, literal(-5)))
          CFI (cfiCond133) ?RET_HIGH load(1, XDATA, add(CFA_XSP16, literal(-4)))
          CFI (cfiCond133) ?BRET_EXT load(1, XDATA, add(CFA_XSP16, literal(-3)))
          CFI (cfiCond133) DPL0 load(1, XDATA, add(CFA_XSP16, literal(-2)))
          CFI (cfiCond133) DPH0 load(1, XDATA, add(CFA_XSP16, literal(-1)))
          CFI (cfiCond133) CFA_SP SP+-2
          CFI (cfiCond133) CFA_XSP16 add(XSP16, 17)
          CFI Block cfiPicker134 Using cfiCommon1
          CFI (cfiPicker134) NoFunction
          CFI (cfiPicker134) Picker
        MOV       DPL,R6
        MOV       DPH,R7
        MOVX      A,@DPTR
        MOV       ?V0,A
        INC       DPTR
        MOVX      A,@DPTR
        MOV       ?V1,A
        MOV       ?V2,#0x0
        MOV       R0,#?V0
        RET
          CFI EndBlock cfiCond132
          CFI EndBlock cfiCond133
          CFI EndBlock cfiPicker134

        RSEG BANKED_CODE:HUGECODE:NOROOT(0)
?Subroutine8:
          CFI Block cfiCond135 Using cfiCommon0
          CFI Function zclGp_ManteinanceIndParse
          CFI Conditional ??CrossCallReturnLabel_98
          CFI R6 load(1, XDATA, add(CFA_XSP16, literal(-15)))
          CFI VB load(1, XDATA, add(CFA_XSP16, literal(-14)))
          CFI V0 load(1, XDATA, add(CFA_XSP16, literal(-13)))
          CFI V1 load(1, XDATA, add(CFA_XSP16, literal(-12)))
          CFI V2 load(1, XDATA, add(CFA_XSP16, literal(-11)))
          CFI V3 load(1, XDATA, add(CFA_XSP16, literal(-10)))
          CFI V4 load(1, XDATA, add(CFA_XSP16, literal(-9)))
          CFI V5 load(1, XDATA, add(CFA_XSP16, literal(-8)))
          CFI V6 load(1, XDATA, add(CFA_XSP16, literal(-7)))
          CFI R7 load(1, XDATA, add(CFA_XSP16, literal(-6)))
          CFI ?RET_LOW load(1, XDATA, add(CFA_XSP16, literal(-5)))
          CFI ?RET_HIGH load(1, XDATA, add(CFA_XSP16, literal(-4)))
          CFI ?BRET_EXT load(1, XDATA, add(CFA_XSP16, literal(-3)))
          CFI DPL0 load(1, XDATA, add(CFA_XSP16, literal(-2)))
          CFI DPH0 load(1, XDATA, add(CFA_XSP16, literal(-1)))
          CFI CFA_SP SP+-2
          CFI CFA_XSP16 add(XSP16, 82)
          CFI Block cfiCond136 Using cfiCommon0
          CFI (cfiCond136) Function zclGp_ManteinanceIndParse
          CFI (cfiCond136) Conditional ??CrossCallReturnLabel_99
          CFI (cfiCond136) R6 load(1, XDATA, add(CFA_XSP16, literal(-15)))
          CFI (cfiCond136) VB load(1, XDATA, add(CFA_XSP16, literal(-14)))
          CFI (cfiCond136) V0 load(1, XDATA, add(CFA_XSP16, literal(-13)))
          CFI (cfiCond136) V1 load(1, XDATA, add(CFA_XSP16, literal(-12)))
          CFI (cfiCond136) V2 load(1, XDATA, add(CFA_XSP16, literal(-11)))
          CFI (cfiCond136) V3 load(1, XDATA, add(CFA_XSP16, literal(-10)))
          CFI (cfiCond136) V4 load(1, XDATA, add(CFA_XSP16, literal(-9)))
          CFI (cfiCond136) V5 load(1, XDATA, add(CFA_XSP16, literal(-8)))
          CFI (cfiCond136) V6 load(1, XDATA, add(CFA_XSP16, literal(-7)))
          CFI (cfiCond136) R7 load(1, XDATA, add(CFA_XSP16, literal(-6)))
          CFI (cfiCond136) ?RET_LOW load(1, XDATA, add(CFA_XSP16, literal(-5)))
          CFI (cfiCond136) ?RET_HIGH load(1, XDATA, add(CFA_XSP16, literal(-4)))
          CFI (cfiCond136) ?BRET_EXT load(1, XDATA, add(CFA_XSP16, literal(-3)))
          CFI (cfiCond136) DPL0 load(1, XDATA, add(CFA_XSP16, literal(-2)))
          CFI (cfiCond136) DPH0 load(1, XDATA, add(CFA_XSP16, literal(-1)))
          CFI (cfiCond136) CFA_SP SP+-2
          CFI (cfiCond136) CFA_XSP16 add(XSP16, 82)
          CFI Block cfiPicker137 Using cfiCommon1
          CFI (cfiPicker137) NoFunction
          CFI (cfiPicker137) Picker
        MOV       DPL,A
        CLR       A
        ADDC      A,?V1
          CFI EndBlock cfiCond135
          CFI EndBlock cfiCond136
          CFI EndBlock cfiPicker137
        REQUIRE ??Subroutine43_0
        ; // Fall through to label ??Subroutine43_0

        RSEG BANKED_CODE:HUGECODE:NOROOT(0)
??Subroutine43_0:
          CFI Block cfiCond138 Using cfiCommon0
          CFI Function zclGp_DataIndParse
          CFI Conditional ??CrossCallReturnLabel_96
          CFI R6 load(1, XDATA, add(CFA_XSP16, literal(-22)))
          CFI VB load(1, XDATA, add(CFA_XSP16, literal(-21)))
          CFI V0 load(1, XDATA, add(CFA_XSP16, literal(-20)))
          CFI V1 load(1, XDATA, add(CFA_XSP16, literal(-19)))
          CFI V2 load(1, XDATA, add(CFA_XSP16, literal(-18)))
          CFI V3 load(1, XDATA, add(CFA_XSP16, literal(-17)))
          CFI V4 load(1, XDATA, add(CFA_XSP16, literal(-16)))
          CFI V5 load(1, XDATA, add(CFA_XSP16, literal(-15)))
          CFI V6 load(1, XDATA, add(CFA_XSP16, literal(-14)))
          CFI V7 load(1, XDATA, add(CFA_XSP16, literal(-13)))
          CFI V8 load(1, XDATA, add(CFA_XSP16, literal(-12)))
          CFI V9 load(1, XDATA, add(CFA_XSP16, literal(-11)))
          CFI V10 load(1, XDATA, add(CFA_XSP16, literal(-10)))
          CFI V11 load(1, XDATA, add(CFA_XSP16, literal(-9)))
          CFI V12 load(1, XDATA, add(CFA_XSP16, literal(-8)))
          CFI V13 load(1, XDATA, add(CFA_XSP16, literal(-7)))
          CFI R7 load(1, XDATA, add(CFA_XSP16, literal(-6)))
          CFI ?RET_LOW load(1, XDATA, add(CFA_XSP16, literal(-5)))
          CFI ?RET_HIGH load(1, XDATA, add(CFA_XSP16, literal(-4)))
          CFI ?BRET_EXT load(1, XDATA, add(CFA_XSP16, literal(-3)))
          CFI DPL0 load(1, XDATA, add(CFA_XSP16, literal(-2)))
          CFI DPH0 load(1, XDATA, add(CFA_XSP16, literal(-1)))
          CFI CFA_SP SP+-2
          CFI CFA_XSP16 add(XSP16, 87)
          CFI Block cfiCond139 Using cfiCommon0
          CFI (cfiCond139) Function zclGp_DataIndParse
          CFI (cfiCond139) Conditional ??CrossCallReturnLabel_97
          CFI (cfiCond139) R6 load(1, XDATA, add(CFA_XSP16, literal(-22)))
          CFI (cfiCond139) VB load(1, XDATA, add(CFA_XSP16, literal(-21)))
          CFI (cfiCond139) V0 load(1, XDATA, add(CFA_XSP16, literal(-20)))
          CFI (cfiCond139) V1 load(1, XDATA, add(CFA_XSP16, literal(-19)))
          CFI (cfiCond139) V2 load(1, XDATA, add(CFA_XSP16, literal(-18)))
          CFI (cfiCond139) V3 load(1, XDATA, add(CFA_XSP16, literal(-17)))
          CFI (cfiCond139) V4 load(1, XDATA, add(CFA_XSP16, literal(-16)))
          CFI (cfiCond139) V5 load(1, XDATA, add(CFA_XSP16, literal(-15)))
          CFI (cfiCond139) V6 load(1, XDATA, add(CFA_XSP16, literal(-14)))
          CFI (cfiCond139) V7 load(1, XDATA, add(CFA_XSP16, literal(-13)))
          CFI (cfiCond139) V8 load(1, XDATA, add(CFA_XSP16, literal(-12)))
          CFI (cfiCond139) V9 load(1, XDATA, add(CFA_XSP16, literal(-11)))
          CFI (cfiCond139) V10 load(1, XDATA, add(CFA_XSP16, literal(-10)))
          CFI (cfiCond139) V11 load(1, XDATA, add(CFA_XSP16, literal(-9)))
          CFI (cfiCond139) V12 load(1, XDATA, add(CFA_XSP16, literal(-8)))
          CFI (cfiCond139) V13 load(1, XDATA, add(CFA_XSP16, literal(-7)))
          CFI (cfiCond139) R7 load(1, XDATA, add(CFA_XSP16, literal(-6)))
          CFI (cfiCond139) ?RET_LOW load(1, XDATA, add(CFA_XSP16, literal(-5)))
          CFI (cfiCond139) ?RET_HIGH load(1, XDATA, add(CFA_XSP16, literal(-4)))
          CFI (cfiCond139) ?BRET_EXT load(1, XDATA, add(CFA_XSP16, literal(-3)))
          CFI (cfiCond139) DPL0 load(1, XDATA, add(CFA_XSP16, literal(-2)))
          CFI (cfiCond139) DPH0 load(1, XDATA, add(CFA_XSP16, literal(-1)))
          CFI (cfiCond139) CFA_SP SP+-2
          CFI (cfiCond139) CFA_XSP16 add(XSP16, 87)
          CFI Block cfiCond140 Using cfiCommon0
          CFI (cfiCond140) Function zclGp_ManteinanceIndParse
          CFI (cfiCond140) Conditional ??CrossCallReturnLabel_98
          CFI (cfiCond140) R6 load(1, XDATA, add(CFA_XSP16, literal(-15)))
          CFI (cfiCond140) VB load(1, XDATA, add(CFA_XSP16, literal(-14)))
          CFI (cfiCond140) V0 load(1, XDATA, add(CFA_XSP16, literal(-13)))
          CFI (cfiCond140) V1 load(1, XDATA, add(CFA_XSP16, literal(-12)))
          CFI (cfiCond140) V2 load(1, XDATA, add(CFA_XSP16, literal(-11)))
          CFI (cfiCond140) V3 load(1, XDATA, add(CFA_XSP16, literal(-10)))
          CFI (cfiCond140) V4 load(1, XDATA, add(CFA_XSP16, literal(-9)))
          CFI (cfiCond140) V5 load(1, XDATA, add(CFA_XSP16, literal(-8)))
          CFI (cfiCond140) V6 load(1, XDATA, add(CFA_XSP16, literal(-7)))
          CFI (cfiCond140) R7 load(1, XDATA, add(CFA_XSP16, literal(-6)))
          CFI (cfiCond140) ?RET_LOW load(1, XDATA, add(CFA_XSP16, literal(-5)))
          CFI (cfiCond140) ?RET_HIGH load(1, XDATA, add(CFA_XSP16, literal(-4)))
          CFI (cfiCond140) ?BRET_EXT load(1, XDATA, add(CFA_XSP16, literal(-3)))
          CFI (cfiCond140) DPL0 load(1, XDATA, add(CFA_XSP16, literal(-2)))
          CFI (cfiCond140) DPH0 load(1, XDATA, add(CFA_XSP16, literal(-1)))
          CFI (cfiCond140) CFA_SP SP+-2
          CFI (cfiCond140) CFA_XSP16 add(XSP16, 82)
          CFI Block cfiCond141 Using cfiCommon0
          CFI (cfiCond141) Function zclGp_ManteinanceIndParse
          CFI (cfiCond141) Conditional ??CrossCallReturnLabel_99
          CFI (cfiCond141) R6 load(1, XDATA, add(CFA_XSP16, literal(-15)))
          CFI (cfiCond141) VB load(1, XDATA, add(CFA_XSP16, literal(-14)))
          CFI (cfiCond141) V0 load(1, XDATA, add(CFA_XSP16, literal(-13)))
          CFI (cfiCond141) V1 load(1, XDATA, add(CFA_XSP16, literal(-12)))
          CFI (cfiCond141) V2 load(1, XDATA, add(CFA_XSP16, literal(-11)))
          CFI (cfiCond141) V3 load(1, XDATA, add(CFA_XSP16, literal(-10)))
          CFI (cfiCond141) V4 load(1, XDATA, add(CFA_XSP16, literal(-9)))
          CFI (cfiCond141) V5 load(1, XDATA, add(CFA_XSP16, literal(-8)))
          CFI (cfiCond141) V6 load(1, XDATA, add(CFA_XSP16, literal(-7)))
          CFI (cfiCond141) R7 load(1, XDATA, add(CFA_XSP16, literal(-6)))
          CFI (cfiCond141) ?RET_LOW load(1, XDATA, add(CFA_XSP16, literal(-5)))
          CFI (cfiCond141) ?RET_HIGH load(1, XDATA, add(CFA_XSP16, literal(-4)))
          CFI (cfiCond141) ?BRET_EXT load(1, XDATA, add(CFA_XSP16, literal(-3)))
          CFI (cfiCond141) DPL0 load(1, XDATA, add(CFA_XSP16, literal(-2)))
          CFI (cfiCond141) DPH0 load(1, XDATA, add(CFA_XSP16, literal(-1)))
          CFI (cfiCond141) CFA_SP SP+-2
          CFI (cfiCond141) CFA_XSP16 add(XSP16, 82)
          CFI Block cfiPicker142 Using cfiCommon1
          CFI (cfiPicker142) NoFunction
          CFI (cfiPicker142) Picker
        MOV       DPH,A
          CFI EndBlock cfiCond138
          CFI EndBlock cfiCond139
          CFI EndBlock cfiCond140
          CFI EndBlock cfiCond141
          CFI EndBlock cfiPicker142
        REQUIRE ??Subroutine44_0
        ; // Fall through to label ??Subroutine44_0

        RSEG BANKED_CODE:HUGECODE:NOROOT(0)
??Subroutine44_0:
          CFI Block cfiCond143 Using cfiCommon0
          CFI Function zclGp_ManteinanceIndParse
          CFI Conditional ??CrossCallReturnLabel_90
          CFI R6 load(1, XDATA, add(CFA_XSP16, literal(-15)))
          CFI VB load(1, XDATA, add(CFA_XSP16, literal(-14)))
          CFI V0 load(1, XDATA, add(CFA_XSP16, literal(-13)))
          CFI V1 load(1, XDATA, add(CFA_XSP16, literal(-12)))
          CFI V2 load(1, XDATA, add(CFA_XSP16, literal(-11)))
          CFI V3 load(1, XDATA, add(CFA_XSP16, literal(-10)))
          CFI V4 load(1, XDATA, add(CFA_XSP16, literal(-9)))
          CFI V5 load(1, XDATA, add(CFA_XSP16, literal(-8)))
          CFI V6 load(1, XDATA, add(CFA_XSP16, literal(-7)))
          CFI R7 load(1, XDATA, add(CFA_XSP16, literal(-6)))
          CFI ?RET_LOW load(1, XDATA, add(CFA_XSP16, literal(-5)))
          CFI ?RET_HIGH load(1, XDATA, add(CFA_XSP16, literal(-4)))
          CFI ?BRET_EXT load(1, XDATA, add(CFA_XSP16, literal(-3)))
          CFI DPL0 load(1, XDATA, add(CFA_XSP16, literal(-2)))
          CFI DPH0 load(1, XDATA, add(CFA_XSP16, literal(-1)))
          CFI CFA_SP SP+-2
          CFI CFA_XSP16 add(XSP16, 82)
          CFI Block cfiCond144 Using cfiCommon0
          CFI (cfiCond144) Function zclGp_GpResponseCommandCB
          CFI (cfiCond144) Conditional ??CrossCallReturnLabel_91
          CFI (cfiCond144) R6 load(1, XDATA, add(CFA_XSP16, literal(-22)))
          CFI (cfiCond144) VB load(1, XDATA, add(CFA_XSP16, literal(-21)))
          CFI (cfiCond144) V0 load(1, XDATA, add(CFA_XSP16, literal(-20)))
          CFI (cfiCond144) V1 load(1, XDATA, add(CFA_XSP16, literal(-19)))
          CFI (cfiCond144) V2 load(1, XDATA, add(CFA_XSP16, literal(-18)))
          CFI (cfiCond144) V3 load(1, XDATA, add(CFA_XSP16, literal(-17)))
          CFI (cfiCond144) V4 load(1, XDATA, add(CFA_XSP16, literal(-16)))
          CFI (cfiCond144) V5 load(1, XDATA, add(CFA_XSP16, literal(-15)))
          CFI (cfiCond144) V6 load(1, XDATA, add(CFA_XSP16, literal(-14)))
          CFI (cfiCond144) V7 load(1, XDATA, add(CFA_XSP16, literal(-13)))
          CFI (cfiCond144) V8 load(1, XDATA, add(CFA_XSP16, literal(-12)))
          CFI (cfiCond144) V9 load(1, XDATA, add(CFA_XSP16, literal(-11)))
          CFI (cfiCond144) V10 load(1, XDATA, add(CFA_XSP16, literal(-10)))
          CFI (cfiCond144) V11 load(1, XDATA, add(CFA_XSP16, literal(-9)))
          CFI (cfiCond144) V12 load(1, XDATA, add(CFA_XSP16, literal(-8)))
          CFI (cfiCond144) V13 load(1, XDATA, add(CFA_XSP16, literal(-7)))
          CFI (cfiCond144) R7 load(1, XDATA, add(CFA_XSP16, literal(-6)))
          CFI (cfiCond144) ?RET_LOW load(1, XDATA, add(CFA_XSP16, literal(-5)))
          CFI (cfiCond144) ?RET_HIGH load(1, XDATA, add(CFA_XSP16, literal(-4)))
          CFI (cfiCond144) ?BRET_EXT load(1, XDATA, add(CFA_XSP16, literal(-3)))
          CFI (cfiCond144) DPL0 load(1, XDATA, add(CFA_XSP16, literal(-2)))
          CFI (cfiCond144) DPH0 load(1, XDATA, add(CFA_XSP16, literal(-1)))
          CFI (cfiCond144) CFA_SP SP+-2
          CFI (cfiCond144) CFA_XSP16 add(XSP16, 98)
          CFI Block cfiCond145 Using cfiCommon0
          CFI (cfiCond145) Function zclGp_GpProxyCommissioningModeCB
          CFI (cfiCond145) Conditional ??CrossCallReturnLabel_92
          CFI (cfiCond145) R6 load(1, XDATA, add(CFA_XSP16, literal(-10)))
          CFI (cfiCond145) VB load(1, XDATA, add(CFA_XSP16, literal(-9)))
          CFI (cfiCond145) V0 load(1, XDATA, add(CFA_XSP16, literal(-8)))
          CFI (cfiCond145) V1 load(1, XDATA, add(CFA_XSP16, literal(-7)))
          CFI (cfiCond145) R7 load(1, XDATA, add(CFA_XSP16, literal(-6)))
          CFI (cfiCond145) ?RET_LOW load(1, XDATA, add(CFA_XSP16, literal(-5)))
          CFI (cfiCond145) ?RET_HIGH load(1, XDATA, add(CFA_XSP16, literal(-4)))
          CFI (cfiCond145) ?BRET_EXT load(1, XDATA, add(CFA_XSP16, literal(-3)))
          CFI (cfiCond145) DPL0 load(1, XDATA, add(CFA_XSP16, literal(-2)))
          CFI (cfiCond145) DPH0 load(1, XDATA, add(CFA_XSP16, literal(-1)))
          CFI (cfiCond145) CFA_SP SP+-2
          CFI (cfiCond145) CFA_XSP16 add(XSP16, 10)
          CFI Block cfiCond146 Using cfiCommon0
          CFI (cfiCond146) Function gp_PopulateField
          CFI (cfiCond146) Conditional ??CrossCallReturnLabel_93
          CFI (cfiCond146) R6 load(1, XDATA, add(CFA_XSP16, literal(-17)))
          CFI (cfiCond146) VB load(1, XDATA, add(CFA_XSP16, literal(-16)))
          CFI (cfiCond146) V0 load(1, XDATA, add(CFA_XSP16, literal(-15)))
          CFI (cfiCond146) V1 load(1, XDATA, add(CFA_XSP16, literal(-14)))
          CFI (cfiCond146) V2 load(1, XDATA, add(CFA_XSP16, literal(-13)))
          CFI (cfiCond146) V3 load(1, XDATA, add(CFA_XSP16, literal(-12)))
          CFI (cfiCond146) V4 load(1, XDATA, add(CFA_XSP16, literal(-11)))
          CFI (cfiCond146) V5 load(1, XDATA, add(CFA_XSP16, literal(-10)))
          CFI (cfiCond146) V6 load(1, XDATA, add(CFA_XSP16, literal(-9)))
          CFI (cfiCond146) V7 load(1, XDATA, add(CFA_XSP16, literal(-8)))
          CFI (cfiCond146) V8 load(1, XDATA, add(CFA_XSP16, literal(-7)))
          CFI (cfiCond146) R7 load(1, XDATA, add(CFA_XSP16, literal(-6)))
          CFI (cfiCond146) ?RET_LOW load(1, XDATA, add(CFA_XSP16, literal(-5)))
          CFI (cfiCond146) ?RET_HIGH load(1, XDATA, add(CFA_XSP16, literal(-4)))
          CFI (cfiCond146) ?BRET_EXT load(1, XDATA, add(CFA_XSP16, literal(-3)))
          CFI (cfiCond146) DPL0 load(1, XDATA, add(CFA_XSP16, literal(-2)))
          CFI (cfiCond146) DPH0 load(1, XDATA, add(CFA_XSP16, literal(-1)))
          CFI (cfiCond146) CFA_SP SP+-2
          CFI (cfiCond146) CFA_XSP16 add(XSP16, 17)
          CFI Block cfiCond147 Using cfiCommon0
          CFI (cfiCond147) Function gp_getProxyTableByGpId
          CFI (cfiCond147) Conditional ??CrossCallReturnLabel_94
          CFI (cfiCond147) R6 load(1, XDATA, add(CFA_XSP16, literal(-19)))
          CFI (cfiCond147) VB load(1, XDATA, add(CFA_XSP16, literal(-18)))
          CFI (cfiCond147) V0 load(1, XDATA, add(CFA_XSP16, literal(-17)))
          CFI (cfiCond147) V1 load(1, XDATA, add(CFA_XSP16, literal(-16)))
          CFI (cfiCond147) V2 load(1, XDATA, add(CFA_XSP16, literal(-15)))
          CFI (cfiCond147) V3 load(1, XDATA, add(CFA_XSP16, literal(-14)))
          CFI (cfiCond147) V4 load(1, XDATA, add(CFA_XSP16, literal(-13)))
          CFI (cfiCond147) V5 load(1, XDATA, add(CFA_XSP16, literal(-12)))
          CFI (cfiCond147) V6 load(1, XDATA, add(CFA_XSP16, literal(-11)))
          CFI (cfiCond147) V7 load(1, XDATA, add(CFA_XSP16, literal(-10)))
          CFI (cfiCond147) V8 load(1, XDATA, add(CFA_XSP16, literal(-9)))
          CFI (cfiCond147) V9 load(1, XDATA, add(CFA_XSP16, literal(-8)))
          CFI (cfiCond147) V10 load(1, XDATA, add(CFA_XSP16, literal(-7)))
          CFI (cfiCond147) R7 load(1, XDATA, add(CFA_XSP16, literal(-6)))
          CFI (cfiCond147) ?RET_LOW load(1, XDATA, add(CFA_XSP16, literal(-5)))
          CFI (cfiCond147) ?RET_HIGH load(1, XDATA, add(CFA_XSP16, literal(-4)))
          CFI (cfiCond147) ?BRET_EXT load(1, XDATA, add(CFA_XSP16, literal(-3)))
          CFI (cfiCond147) DPL0 load(1, XDATA, add(CFA_XSP16, literal(-2)))
          CFI (cfiCond147) DPH0 load(1, XDATA, add(CFA_XSP16, literal(-1)))
          CFI (cfiCond147) CFA_SP SP+-2
          CFI (cfiCond147) CFA_XSP16 add(XSP16, 19)
          CFI Block cfiCond148 Using cfiCommon0
          CFI (cfiCond148) Function GP_SecReq
          CFI (cfiCond148) Conditional ??CrossCallReturnLabel_95
          CFI (cfiCond148) R6 load(1, XDATA, add(CFA_XSP16, literal(-24)))
          CFI (cfiCond148) VB load(1, XDATA, add(CFA_XSP16, literal(-23)))
          CFI (cfiCond148) V0 load(1, XDATA, add(CFA_XSP16, literal(-22)))
          CFI (cfiCond148) V1 load(1, XDATA, add(CFA_XSP16, literal(-21)))
          CFI (cfiCond148) V2 load(1, XDATA, add(CFA_XSP16, literal(-20)))
          CFI (cfiCond148) V3 load(1, XDATA, add(CFA_XSP16, literal(-19)))
          CFI (cfiCond148) V4 load(1, XDATA, add(CFA_XSP16, literal(-18)))
          CFI (cfiCond148) V5 load(1, XDATA, add(CFA_XSP16, literal(-17)))
          CFI (cfiCond148) V6 load(1, XDATA, add(CFA_XSP16, literal(-16)))
          CFI (cfiCond148) V7 load(1, XDATA, add(CFA_XSP16, literal(-15)))
          CFI (cfiCond148) V8 load(1, XDATA, add(CFA_XSP16, literal(-14)))
          CFI (cfiCond148) V9 load(1, XDATA, add(CFA_XSP16, literal(-13)))
          CFI (cfiCond148) V10 load(1, XDATA, add(CFA_XSP16, literal(-12)))
          CFI (cfiCond148) V11 load(1, XDATA, add(CFA_XSP16, literal(-11)))
          CFI (cfiCond148) V12 load(1, XDATA, add(CFA_XSP16, literal(-10)))
          CFI (cfiCond148) V13 load(1, XDATA, add(CFA_XSP16, literal(-9)))
          CFI (cfiCond148) V14 load(1, XDATA, add(CFA_XSP16, literal(-8)))
          CFI (cfiCond148) V15 load(1, XDATA, add(CFA_XSP16, literal(-7)))
          CFI (cfiCond148) R7 load(1, XDATA, add(CFA_XSP16, literal(-6)))
          CFI (cfiCond148) ?RET_LOW load(1, XDATA, add(CFA_XSP16, literal(-5)))
          CFI (cfiCond148) ?RET_HIGH load(1, XDATA, add(CFA_XSP16, literal(-4)))
          CFI (cfiCond148) ?BRET_EXT load(1, XDATA, add(CFA_XSP16, literal(-3)))
          CFI (cfiCond148) DPL0 load(1, XDATA, add(CFA_XSP16, literal(-2)))
          CFI (cfiCond148) DPH0 load(1, XDATA, add(CFA_XSP16, literal(-1)))
          CFI (cfiCond148) CFA_SP SP+-2
          CFI (cfiCond148) CFA_XSP16 add(XSP16, 127)
          CFI Block cfiCond149 Using cfiCommon0
          CFI (cfiCond149) Function zclGp_DataIndParse
          CFI (cfiCond149) Conditional ??CrossCallReturnLabel_96
          CFI (cfiCond149) R6 load(1, XDATA, add(CFA_XSP16, literal(-22)))
          CFI (cfiCond149) VB load(1, XDATA, add(CFA_XSP16, literal(-21)))
          CFI (cfiCond149) V0 load(1, XDATA, add(CFA_XSP16, literal(-20)))
          CFI (cfiCond149) V1 load(1, XDATA, add(CFA_XSP16, literal(-19)))
          CFI (cfiCond149) V2 load(1, XDATA, add(CFA_XSP16, literal(-18)))
          CFI (cfiCond149) V3 load(1, XDATA, add(CFA_XSP16, literal(-17)))
          CFI (cfiCond149) V4 load(1, XDATA, add(CFA_XSP16, literal(-16)))
          CFI (cfiCond149) V5 load(1, XDATA, add(CFA_XSP16, literal(-15)))
          CFI (cfiCond149) V6 load(1, XDATA, add(CFA_XSP16, literal(-14)))
          CFI (cfiCond149) V7 load(1, XDATA, add(CFA_XSP16, literal(-13)))
          CFI (cfiCond149) V8 load(1, XDATA, add(CFA_XSP16, literal(-12)))
          CFI (cfiCond149) V9 load(1, XDATA, add(CFA_XSP16, literal(-11)))
          CFI (cfiCond149) V10 load(1, XDATA, add(CFA_XSP16, literal(-10)))
          CFI (cfiCond149) V11 load(1, XDATA, add(CFA_XSP16, literal(-9)))
          CFI (cfiCond149) V12 load(1, XDATA, add(CFA_XSP16, literal(-8)))
          CFI (cfiCond149) V13 load(1, XDATA, add(CFA_XSP16, literal(-7)))
          CFI (cfiCond149) R7 load(1, XDATA, add(CFA_XSP16, literal(-6)))
          CFI (cfiCond149) ?RET_LOW load(1, XDATA, add(CFA_XSP16, literal(-5)))
          CFI (cfiCond149) ?RET_HIGH load(1, XDATA, add(CFA_XSP16, literal(-4)))
          CFI (cfiCond149) ?BRET_EXT load(1, XDATA, add(CFA_XSP16, literal(-3)))
          CFI (cfiCond149) DPL0 load(1, XDATA, add(CFA_XSP16, literal(-2)))
          CFI (cfiCond149) DPH0 load(1, XDATA, add(CFA_XSP16, literal(-1)))
          CFI (cfiCond149) CFA_SP SP+-2
          CFI (cfiCond149) CFA_XSP16 add(XSP16, 87)
          CFI Block cfiCond150 Using cfiCommon0
          CFI (cfiCond150) Function zclGp_DataIndParse
          CFI (cfiCond150) Conditional ??CrossCallReturnLabel_97
          CFI (cfiCond150) R6 load(1, XDATA, add(CFA_XSP16, literal(-22)))
          CFI (cfiCond150) VB load(1, XDATA, add(CFA_XSP16, literal(-21)))
          CFI (cfiCond150) V0 load(1, XDATA, add(CFA_XSP16, literal(-20)))
          CFI (cfiCond150) V1 load(1, XDATA, add(CFA_XSP16, literal(-19)))
          CFI (cfiCond150) V2 load(1, XDATA, add(CFA_XSP16, literal(-18)))
          CFI (cfiCond150) V3 load(1, XDATA, add(CFA_XSP16, literal(-17)))
          CFI (cfiCond150) V4 load(1, XDATA, add(CFA_XSP16, literal(-16)))
          CFI (cfiCond150) V5 load(1, XDATA, add(CFA_XSP16, literal(-15)))
          CFI (cfiCond150) V6 load(1, XDATA, add(CFA_XSP16, literal(-14)))
          CFI (cfiCond150) V7 load(1, XDATA, add(CFA_XSP16, literal(-13)))
          CFI (cfiCond150) V8 load(1, XDATA, add(CFA_XSP16, literal(-12)))
          CFI (cfiCond150) V9 load(1, XDATA, add(CFA_XSP16, literal(-11)))
          CFI (cfiCond150) V10 load(1, XDATA, add(CFA_XSP16, literal(-10)))
          CFI (cfiCond150) V11 load(1, XDATA, add(CFA_XSP16, literal(-9)))
          CFI (cfiCond150) V12 load(1, XDATA, add(CFA_XSP16, literal(-8)))
          CFI (cfiCond150) V13 load(1, XDATA, add(CFA_XSP16, literal(-7)))
          CFI (cfiCond150) R7 load(1, XDATA, add(CFA_XSP16, literal(-6)))
          CFI (cfiCond150) ?RET_LOW load(1, XDATA, add(CFA_XSP16, literal(-5)))
          CFI (cfiCond150) ?RET_HIGH load(1, XDATA, add(CFA_XSP16, literal(-4)))
          CFI (cfiCond150) ?BRET_EXT load(1, XDATA, add(CFA_XSP16, literal(-3)))
          CFI (cfiCond150) DPL0 load(1, XDATA, add(CFA_XSP16, literal(-2)))
          CFI (cfiCond150) DPH0 load(1, XDATA, add(CFA_XSP16, literal(-1)))
          CFI (cfiCond150) CFA_SP SP+-2
          CFI (cfiCond150) CFA_XSP16 add(XSP16, 87)
          CFI Block cfiCond151 Using cfiCommon0
          CFI (cfiCond151) Function zclGp_ManteinanceIndParse
          CFI (cfiCond151) Conditional ??CrossCallReturnLabel_98
          CFI (cfiCond151) R6 load(1, XDATA, add(CFA_XSP16, literal(-15)))
          CFI (cfiCond151) VB load(1, XDATA, add(CFA_XSP16, literal(-14)))
          CFI (cfiCond151) V0 load(1, XDATA, add(CFA_XSP16, literal(-13)))
          CFI (cfiCond151) V1 load(1, XDATA, add(CFA_XSP16, literal(-12)))
          CFI (cfiCond151) V2 load(1, XDATA, add(CFA_XSP16, literal(-11)))
          CFI (cfiCond151) V3 load(1, XDATA, add(CFA_XSP16, literal(-10)))
          CFI (cfiCond151) V4 load(1, XDATA, add(CFA_XSP16, literal(-9)))
          CFI (cfiCond151) V5 load(1, XDATA, add(CFA_XSP16, literal(-8)))
          CFI (cfiCond151) V6 load(1, XDATA, add(CFA_XSP16, literal(-7)))
          CFI (cfiCond151) R7 load(1, XDATA, add(CFA_XSP16, literal(-6)))
          CFI (cfiCond151) ?RET_LOW load(1, XDATA, add(CFA_XSP16, literal(-5)))
          CFI (cfiCond151) ?RET_HIGH load(1, XDATA, add(CFA_XSP16, literal(-4)))
          CFI (cfiCond151) ?BRET_EXT load(1, XDATA, add(CFA_XSP16, literal(-3)))
          CFI (cfiCond151) DPL0 load(1, XDATA, add(CFA_XSP16, literal(-2)))
          CFI (cfiCond151) DPH0 load(1, XDATA, add(CFA_XSP16, literal(-1)))
          CFI (cfiCond151) CFA_SP SP+-2
          CFI (cfiCond151) CFA_XSP16 add(XSP16, 82)
          CFI Block cfiCond152 Using cfiCommon0
          CFI (cfiCond152) Function zclGp_ManteinanceIndParse
          CFI (cfiCond152) Conditional ??CrossCallReturnLabel_99
          CFI (cfiCond152) R6 load(1, XDATA, add(CFA_XSP16, literal(-15)))
          CFI (cfiCond152) VB load(1, XDATA, add(CFA_XSP16, literal(-14)))
          CFI (cfiCond152) V0 load(1, XDATA, add(CFA_XSP16, literal(-13)))
          CFI (cfiCond152) V1 load(1, XDATA, add(CFA_XSP16, literal(-12)))
          CFI (cfiCond152) V2 load(1, XDATA, add(CFA_XSP16, literal(-11)))
          CFI (cfiCond152) V3 load(1, XDATA, add(CFA_XSP16, literal(-10)))
          CFI (cfiCond152) V4 load(1, XDATA, add(CFA_XSP16, literal(-9)))
          CFI (cfiCond152) V5 load(1, XDATA, add(CFA_XSP16, literal(-8)))
          CFI (cfiCond152) V6 load(1, XDATA, add(CFA_XSP16, literal(-7)))
          CFI (cfiCond152) R7 load(1, XDATA, add(CFA_XSP16, literal(-6)))
          CFI (cfiCond152) ?RET_LOW load(1, XDATA, add(CFA_XSP16, literal(-5)))
          CFI (cfiCond152) ?RET_HIGH load(1, XDATA, add(CFA_XSP16, literal(-4)))
          CFI (cfiCond152) ?BRET_EXT load(1, XDATA, add(CFA_XSP16, literal(-3)))
          CFI (cfiCond152) DPL0 load(1, XDATA, add(CFA_XSP16, literal(-2)))
          CFI (cfiCond152) DPH0 load(1, XDATA, add(CFA_XSP16, literal(-1)))
          CFI (cfiCond152) CFA_SP SP+-2
          CFI (cfiCond152) CFA_XSP16 add(XSP16, 82)
          CFI Block cfiPicker153 Using cfiCommon1
          CFI (cfiPicker153) NoFunction
          CFI (cfiPicker153) Picker
        MOV       A,R0
        MOVX      @DPTR,A
        INC       DPTR
        MOV       A,R1
        MOVX      @DPTR,A
        RET
          CFI EndBlock cfiCond143
          CFI EndBlock cfiCond144
          CFI EndBlock cfiCond145
          CFI EndBlock cfiCond146
          CFI EndBlock cfiCond147
          CFI EndBlock cfiCond148
          CFI EndBlock cfiCond149
          CFI EndBlock cfiCond150
          CFI EndBlock cfiCond151
          CFI EndBlock cfiCond152
          CFI EndBlock cfiPicker153
// 1237 
// 1238  /*********************************************************************
// 1239  * @fn          gp_ProxyTblInit
// 1240  *
// 1241  * @brief       General function to init the NV items for proxy table
// 1242  *
// 1243  * @param       
// 1244  *
// 1245  * @return      
// 1246  */
// 1247 

        RSEG BANKED_CODE:HUGECODE:NOROOT(0)
// 1248 uint8 gp_ProxyTblInit( uint8 resetTable )
gp_ProxyTblInit:
          CFI Block cfiBlock154 Using cfiCommon0
          CFI Function gp_ProxyTblInit
        CODE
// 1249 {
        FUNCALL gp_ProxyTblInit, gp_ResetProxyBasicTblEntry
        LOCFRAME ISTACK, 0, STACK
        LOCFRAME PSTACK, 0, STACK
        LOCFRAME XSTACK, 77, STACK
        LOCFRAME IOVERLAY, 0, STATIC
        LOCFRAME DOVERLAY, 0, STATIC
        ARGFRAME ISTACK, 0, STACK
        ARGFRAME PSTACK, 0, STACK
        ARGFRAME XSTACK, 77, STACK
        ARGFRAME IOVERLAY, 0, STATIC
        ARGFRAME DOVERLAY, 0, STATIC
        FUNCALL gp_ProxyTblInit, osal_nv_item_init
        LOCFRAME ISTACK, 0, STACK
        LOCFRAME PSTACK, 0, STACK
        LOCFRAME XSTACK, 79, STACK
        LOCFRAME IOVERLAY, 0, STATIC
        LOCFRAME DOVERLAY, 0, STATIC
        ARGFRAME ISTACK, 0, STACK
        ARGFRAME PSTACK, 0, STACK
        ARGFRAME XSTACK, 79, STACK
        ARGFRAME IOVERLAY, 0, STATIC
        ARGFRAME DOVERLAY, 0, STATIC
        FUNCALL gp_ProxyTblInit, osal_nv_write
        LOCFRAME ISTACK, 0, STACK
        LOCFRAME PSTACK, 0, STACK
        LOCFRAME XSTACK, 81, STACK
        LOCFRAME IOVERLAY, 0, STATIC
        LOCFRAME DOVERLAY, 0, STATIC
        ARGFRAME ISTACK, 0, STACK
        ARGFRAME PSTACK, 0, STACK
        ARGFRAME XSTACK, 81, STACK
        ARGFRAME IOVERLAY, 0, STATIC
        ARGFRAME DOVERLAY, 0, STATIC
        REQUIRE ?V0
        REQUIRE ?V1
        REQUIRE ?V2
        REQUIRE ?V3
        MOV       A,#-0xc
        LCALL     ?BANKED_ENTER_XDATA
          CFI DPH0 load(1, XDATA, add(CFA_XSP16, literal(-1)))
          CFI DPL0 load(1, XDATA, add(CFA_XSP16, literal(-2)))
          CFI ?BRET_EXT load(1, XDATA, add(CFA_XSP16, literal(-3)))
          CFI ?RET_HIGH load(1, XDATA, add(CFA_XSP16, literal(-4)))
          CFI ?RET_LOW load(1, XDATA, add(CFA_XSP16, literal(-5)))
          CFI R7 load(1, XDATA, add(CFA_XSP16, literal(-6)))
          CFI V3 load(1, XDATA, add(CFA_XSP16, literal(-7)))
          CFI V2 load(1, XDATA, add(CFA_XSP16, literal(-8)))
          CFI V1 load(1, XDATA, add(CFA_XSP16, literal(-9)))
          CFI V0 load(1, XDATA, add(CFA_XSP16, literal(-10)))
          CFI VB load(1, XDATA, add(CFA_XSP16, literal(-11)))
          CFI R6 load(1, XDATA, add(CFA_XSP16, literal(-12)))
          CFI CFA_SP SP+0
          CFI CFA_XSP16 add(XSP16, 12)
        ; Saved register size: 12
        ; Auto size: 65
        MOV       A,#-0x41
        LCALL     ?ALLOC_XSTACK8
          CFI CFA_XSP16 add(XSP16, 77)
        MOV       ?V1,R1
// 1250   uint8 i;
// 1251   uint8 status;
// 1252   uint8 emptyEntry[PROXY_TBL_ENTRY_LEN];
// 1253   
// 1254   gp_ResetProxyBasicTblEntry( emptyEntry );
        ; Setup parameters for call to function gp_ResetProxyBasicTblEntry
        MOV       R2,?XSP + 0
        MOV       R3,?XSP + 1
        LCALL     `??gp_ResetProxyBasicTblEntry::?relay`; Banked call to: gp_ResetProxyBasicTblEntry
// 1255   
// 1256   for ( i = 0; i <= GPP_MAX_PROXY_TABLE_ENTRIES ; i++ )
        MOV       ?V0,#0x0
// 1257   {
// 1258     status = osal_nv_item_init( ( ZCD_NV_PROXY_TABLE_START + i ),
// 1259                                        PROXY_TBL_ENTRY_LEN, &emptyEntry );
??gp_ProxyTblInit_0:
        MOV       A,?V0
        ADD       A,#0x10
        MOV       R6,A
        CLR       A
        ADDC      A,#0x3
        MOV       R7,A
        ; Setup parameters for call to function osal_nv_item_init
        MOV       R0,?XSP + 0
        MOV       R1,?XSP + 1
        MOV       ?V2,R0
        MOV       ?V3,R1
        MOV       R0,#?V2
        LCALL     ?PUSH_XSTACK_I_TWO
          CFI CFA_XSP16 add(XSP16, 79)
        MOV       R4,#0x41
        MOV       R5,#0x0
        MOV       A,R6
        MOV       R2,A
        MOV       A,R7
        MOV       R3,A
        LCALL     `??osal_nv_item_init::?relay`; Banked call to: osal_nv_item_init
        MOV       A,#0x2
        LCALL     ?DEALLOC_XSTACK8
          CFI CFA_XSP16 add(XSP16, 77)
        MOV       A,R1
        MOV       R1,A
// 1260     
// 1261     if ( ( status != SUCCESS ) && ( status != NV_ITEM_UNINIT ) )
        JZ        ??gp_ProxyTblInit_1
        MOV       A,#0x9
        XRL       A,R1
        JNZ       ??gp_ProxyTblInit_2
        SJMP      ??gp_ProxyTblInit_3
??gp_ProxyTblInit_1:
        MOV       A,#0x1
        XRL       A,?V1
        JNZ       ??gp_ProxyTblInit_3
// 1262     {
// 1263       return status;
// 1264     }
// 1265     if ( ( status == SUCCESS ) && ( resetTable == TRUE ) )
// 1266     {
// 1267       status = osal_nv_write( ( ZCD_NV_PROXY_TABLE_START + i ), 0,
// 1268                                     PROXY_TBL_ENTRY_LEN, &emptyEntry );
        ; Setup parameters for call to function osal_nv_write
        MOV       R0,#?V2
        LCALL     ?PUSH_XSTACK_I_TWO
          CFI CFA_XSP16 add(XSP16, 79)
        MOV       ?V2,#0x41
        MOV       ?V3,#0x0
        MOV       R0,#?V2
        LCALL     ?PUSH_XSTACK_I_TWO
          CFI CFA_XSP16 add(XSP16, 81)
        MOV       R4,#0x0
        MOV       R5,#0x0
        MOV       A,R6
        MOV       R2,A
        MOV       A,R7
        MOV       R3,A
        LCALL     `??osal_nv_write::?relay`; Banked call to: osal_nv_write
        MOV       A,#0x4
        LCALL     ?DEALLOC_XSTACK8
          CFI CFA_XSP16 add(XSP16, 77)
        MOV       A,R1
        MOV       R1,A
// 1269     }
// 1270   }
??gp_ProxyTblInit_3:
        INC       ?V0
        MOV       A,?V0
        CLR       C
        SUBB      A,#0x6
        JC        ??gp_ProxyTblInit_0
// 1271   return status;
??gp_ProxyTblInit_2:
        MOV       A,#0x41
          CFI EndBlock cfiBlock154
        REQUIRE ?Subroutine4
        ; // Fall through to label ?Subroutine4
// 1272 }

        RSEG BANKED_CODE:HUGECODE:NOROOT(0)
?Subroutine4:
          CFI Block cfiBlock155 Using cfiCommon0
          CFI NoFunction
          CFI CFA_SP SP+0
          CFI CFA_XSP16 add(XSP16, 77)
          CFI VB load(1, XDATA, add(CFA_XSP16, literal(-11)))
          CFI DPL0 load(1, XDATA, add(CFA_XSP16, literal(-2)))
          CFI DPH0 load(1, XDATA, add(CFA_XSP16, literal(-1)))
          CFI R6 load(1, XDATA, add(CFA_XSP16, literal(-12)))
          CFI R7 load(1, XDATA, add(CFA_XSP16, literal(-6)))
          CFI V0 load(1, XDATA, add(CFA_XSP16, literal(-10)))
          CFI V1 load(1, XDATA, add(CFA_XSP16, literal(-9)))
          CFI V2 load(1, XDATA, add(CFA_XSP16, literal(-8)))
          CFI V3 load(1, XDATA, add(CFA_XSP16, literal(-7)))
          CFI ?BRET_EXT load(1, XDATA, add(CFA_XSP16, literal(-3)))
          CFI ?RET_HIGH load(1, XDATA, add(CFA_XSP16, literal(-4)))
          CFI ?RET_LOW load(1, XDATA, add(CFA_XSP16, literal(-5)))
          CFI Invalid
        LCALL     ?DEALLOC_XSTACK8
          CFI CFA_XSP16 add(XSP16, 12)
          CFI Valid
        MOV       R7,#0x4
        LJMP      ?BANKED_LEAVE_XDATA
          CFI EndBlock cfiBlock155
// 1273 
// 1274 
// 1275  /*********************************************************************
// 1276  * @fn          gp_getProxyTableByGpId
// 1277  *
// 1278  * @brief       General function to get proxy table entry by gpd_ID (GP Src ID or Extended Adddress)
// 1279  *
// 1280  * @param       gpd_ID  - address to look for in the table
// 1281  *              pEntry  - buffer in which the entry of the table will be copied
// 1282  *
// 1283  * @return      
// 1284  */
// 1285 

        RSEG BANKED_CODE:HUGECODE:NOROOT(0)
// 1286 uint8 gp_getProxyTableByGpId(gpd_ID_t *gpd_ID, uint8 *pEntry,uint16 *NvProxyTableIndex)
gp_getProxyTableByGpId:
          CFI Block cfiBlock156 Using cfiCommon0
          CFI Function gp_getProxyTableByGpId
        CODE
// 1287 {
        FUNCALL gp_getProxyTableByGpId, gp_getProxyTableByIndex
        LOCFRAME ISTACK, 0, STACK
        LOCFRAME PSTACK, 0, STACK
        LOCFRAME XSTACK, 19, STACK
        LOCFRAME IOVERLAY, 0, STATIC
        LOCFRAME DOVERLAY, 0, STATIC
        ARGFRAME ISTACK, 0, STACK
        ARGFRAME PSTACK, 0, STACK
        ARGFRAME XSTACK, 19, STACK
        ARGFRAME IOVERLAY, 0, STATIC
        ARGFRAME DOVERLAY, 0, STATIC
        FUNCALL gp_getProxyTableByGpId, osal_memcmp
        LOCFRAME ISTACK, 0, STACK
        LOCFRAME PSTACK, 0, STACK
        LOCFRAME XSTACK, 22, STACK
        LOCFRAME IOVERLAY, 0, STATIC
        LOCFRAME DOVERLAY, 0, STATIC
        ARGFRAME ISTACK, 0, STACK
        ARGFRAME PSTACK, 0, STACK
        ARGFRAME XSTACK, 22, STACK
        ARGFRAME IOVERLAY, 0, STATIC
        ARGFRAME DOVERLAY, 0, STATIC
        FUNCALL gp_getProxyTableByGpId, osal_memcmp
        LOCFRAME ISTACK, 0, STACK
        LOCFRAME PSTACK, 0, STACK
        LOCFRAME XSTACK, 22, STACK
        LOCFRAME IOVERLAY, 0, STATIC
        LOCFRAME DOVERLAY, 0, STATIC
        ARGFRAME ISTACK, 0, STACK
        ARGFRAME PSTACK, 0, STACK
        ARGFRAME XSTACK, 22, STACK
        ARGFRAME IOVERLAY, 0, STATIC
        ARGFRAME DOVERLAY, 0, STATIC
        REQUIRE ?V0
        REQUIRE ?V1
        REQUIRE ?V2
        REQUIRE ?V4
        REQUIRE ?V5
        REQUIRE ?V6
        REQUIRE ?V7
        REQUIRE ?V8
        REQUIRE ?V9
        REQUIRE ?V10
        MOV       A,#-0x13
        LCALL     ?BANKED_ENTER_XDATA
          CFI DPH0 load(1, XDATA, add(CFA_XSP16, literal(-1)))
          CFI DPL0 load(1, XDATA, add(CFA_XSP16, literal(-2)))
          CFI ?BRET_EXT load(1, XDATA, add(CFA_XSP16, literal(-3)))
          CFI ?RET_HIGH load(1, XDATA, add(CFA_XSP16, literal(-4)))
          CFI ?RET_LOW load(1, XDATA, add(CFA_XSP16, literal(-5)))
          CFI R7 load(1, XDATA, add(CFA_XSP16, literal(-6)))
          CFI V10 load(1, XDATA, add(CFA_XSP16, literal(-7)))
          CFI V9 load(1, XDATA, add(CFA_XSP16, literal(-8)))
          CFI V8 load(1, XDATA, add(CFA_XSP16, literal(-9)))
          CFI V7 load(1, XDATA, add(CFA_XSP16, literal(-10)))
          CFI V6 load(1, XDATA, add(CFA_XSP16, literal(-11)))
          CFI V5 load(1, XDATA, add(CFA_XSP16, literal(-12)))
          CFI V4 load(1, XDATA, add(CFA_XSP16, literal(-13)))
          CFI V3 load(1, XDATA, add(CFA_XSP16, literal(-14)))
          CFI V2 load(1, XDATA, add(CFA_XSP16, literal(-15)))
          CFI V1 load(1, XDATA, add(CFA_XSP16, literal(-16)))
          CFI V0 load(1, XDATA, add(CFA_XSP16, literal(-17)))
          CFI VB load(1, XDATA, add(CFA_XSP16, literal(-18)))
          CFI R6 load(1, XDATA, add(CFA_XSP16, literal(-19)))
          CFI CFA_SP SP+0
          CFI CFA_XSP16 add(XSP16, 19)
        ; Saved register size: 19
        ; Auto size: 0
        MOV       ?V6,R2
        MOV       ?V7,R3
        MOV       ?V4,R4
        MOV       ?V5,R5
// 1288   uint8 i;
// 1289   uint8 status;
// 1290 
// 1291   if((pEntry == NULL) ||  (gpd_ID == NULL))
        MOV       A,R4
        ORL       A,?V5
        JNZ       $+5
        LJMP      ??gp_getProxyTableByGpId_0 & 0xFFFF
        MOV       A,R2
        ORL       A,?V7
        JNZ       $+5
        LJMP      ??gp_getProxyTableByGpId_0 & 0xFFFF
// 1292   {
// 1293     return ZInvalidParameter;
// 1294   }     
// 1295   
// 1296 
// 1297   for ( i = 0; i <= GPP_MAX_PROXY_TABLE_ENTRIES ; i++ )
        MOV       R6,#0x0
        MOV       DPL,R2
        MOV       DPH,R3
        INC       DPTR
        MOV       R1,DPL
        MOV       R2,DPH
        MOV       ?V0,R1
        MOV       ?V1,R2
        MOV       ?V2,R6
// 1298   {
// 1299     status = gp_getProxyTableByIndex( ( ZCD_NV_PROXY_TABLE_START + i ), pEntry );
??gp_getProxyTableByGpId_1:
        ; Setup parameters for call to function gp_getProxyTableByIndex
        MOV       R4,?V4
        MOV       R5,?V5
        LCALL     ?Subroutine29 & 0xFFFF
??CrossCallReturnLabel_65:
        LCALL     `??gp_getProxyTableByIndex::?relay`; Banked call to: gp_getProxyTableByIndex
        MOV       A,R1
        MOV       R0,A
// 1300 
// 1301     if ( status == NV_OPER_FAILED )
        MOV       A,#0xa
        XRL       A,R0
        JNZ       ??gp_getProxyTableByGpId_2
// 1302     {
// 1303       // FAIL
// 1304       return ZFailure;
        MOV       R1,#0x1
        LJMP      ??gp_getProxyTableByGpId_3 & 0xFFFF
// 1305     }
// 1306     
// 1307     // if the entry is empty
// 1308     if ( status == NV_INVALID_DATA )
??gp_getProxyTableByGpId_2:
        MOV       A,#0xd
        XRL       A,R0
        JZ        ??gp_getProxyTableByGpId_4
// 1309     {
// 1310       continue;
// 1311     }
// 1312 
// 1313     //Check that App ID is the same
// 1314 
// 1315     if ( PROXY_TBL_COMP_APPLICTION_ID( gpd_ID->AppID, pEntry[PROXY_TBL_ENTRY_OPT] ) )
        MOV       DPL,?V6
        MOV       DPH,?V7
        MOVX      A,@DPTR
        MOV       R0,A
        MOV       A,#0x7
        ANL       A,R0
        MOV       R1,A
        MOV       DPL,?V4
        MOV       DPH,?V5
        MOVX      A,@DPTR
        ANL       A,#0x7
        XRL       A,R1
        JNZ       ??gp_getProxyTableByGpId_4
// 1316     {
// 1317       if ( gpd_ID->AppID == GP_OPT_APP_ID_GPD )
        MOV       A,R0
        JNZ       ??gp_getProxyTableByGpId_5
// 1318       {
// 1319         if ( osal_memcmp( &gpd_ID->GPDId.SrcID, &pEntry[PROXY_TBL_ENTRY_GPD_ID + 4], sizeof ( uint32 ) ) )
        ; Setup parameters for call to function osal_memcmp
        MOV       A,?V4
        ADD       A,#0x6
        MOV       ?V8,A
        CLR       A
        ADDC      A,?V5
        MOV       ?V9,A
        MOV       ?V10,#0x0
        MOV       R0,#?V8
        LCALL     ?PUSH_XSTACK_I_THREE
          CFI CFA_XSP16 add(XSP16, 22)
        MOV       R4,#0x4
        MOV       R5,#0x0
        MOV       R1,?V0
        MOV       R2,?V1
        MOV       R3,?V2
        LCALL     `??osal_memcmp::?relay`; Banked call to: osal_memcmp
        MOV       A,#0x3
        LCALL     ?DEALLOC_XSTACK8
          CFI CFA_XSP16 add(XSP16, 19)
        MOV       A,R1
        JNZ       ??gp_getProxyTableByGpId_6
        SJMP      ??gp_getProxyTableByGpId_4
// 1320         {
// 1321           // Entry found
// 1322           break;
// 1323         }
// 1324       }
// 1325 
// 1326       else if ( gpd_ID->AppID == GP_OPT_APP_ID_IEEE )
??gp_getProxyTableByGpId_5:
        MOV       A,#0x2
        XRL       A,R0
        JNZ       ??gp_getProxyTableByGpId_4
// 1327       {
// 1328         if ( osal_memcmp( &gpd_ID->GPDId.GPDExtAddr, &pEntry[PROXY_TBL_ENTRY_GPD_ID], Z_EXTADDR_LEN ) )
        ; Setup parameters for call to function osal_memcmp
        INC       DPTR
        INC       DPTR
        MOV       R1,DPL
        MOV       R2,DPH
        MOV       ?V8,R1
        MOV       ?V9,R2
        MOV       ?V10,#0x0
        MOV       R0,#?V8
        LCALL     ?PUSH_XSTACK_I_THREE
          CFI CFA_XSP16 add(XSP16, 22)
        MOV       R4,#0x8
        MOV       R5,#0x0
        MOV       R1,?V0
        MOV       R2,?V1
        MOV       R3,?V2
        LCALL     `??osal_memcmp::?relay`; Banked call to: osal_memcmp
        MOV       A,#0x3
        LCALL     ?DEALLOC_XSTACK8
          CFI CFA_XSP16 add(XSP16, 19)
        MOV       A,R1
        JNZ       ??gp_getProxyTableByGpId_6
// 1329         {
// 1330           // Entry found
// 1331           break;
// 1332         }
// 1333       }
// 1334     }
// 1335     else
// 1336     {
// 1337       continue;
// 1338     }
// 1339   }
??gp_getProxyTableByGpId_4:
        INC       R6
        MOV       A,R6
        CLR       C
        SUBB      A,#0x6
        JNC       $+5
        LJMP      ??gp_getProxyTableByGpId_1 & 0xFFFF
// 1340 
// 1341   if(i <= GPP_MAX_PROXY_TABLE_ENTRIES)
??gp_getProxyTableByGpId_6:
        MOV       A,R6
        CLR       C
        SUBB      A,#0x6
        JNC       ??gp_getProxyTableByGpId_0
        MOV       A,#0x13
        LCALL     ?XSTACK_DISP0_8
        LCALL     ?Subroutine19 & 0xFFFF
// 1342   {
// 1343     if(NvProxyTableIndex != NULL)
??CrossCallReturnLabel_19:
        MOV       A,DPL
        ORL       A,DPH
        JZ        ??CrossCallReturnLabel_94
// 1344     {
// 1345       *NvProxyTableIndex = ZCD_NV_PROXY_TABLE_START + i;
        MOV       A,R6
        ADD       A,#0x10
        MOV       R0,A
        CLR       A
        ADDC      A,#0x3
        MOV       R1,A
        LCALL     ??Subroutine44_0 & 0xFFFF
// 1346     }
// 1347     return ZSuccess;
??CrossCallReturnLabel_94:
        MOV       R1,#0x0
        SJMP      ??gp_getProxyTableByGpId_3
// 1348   }
// 1349     
// 1350   return ZInvalidParameter;
??gp_getProxyTableByGpId_0:
        MOV       R1,#0x2
??gp_getProxyTableByGpId_3:
        MOV       R7,#0xb
        LJMP      ?BANKED_LEAVE_XDATA
// 1351 }
          CFI EndBlock cfiBlock156

        RSEG BANKED_CODE:HUGECODE:NOROOT(0)
?Subroutine19:
          CFI Block cfiCond157 Using cfiCommon0
          CFI Function gp_PopulateField
          CFI Conditional ??CrossCallReturnLabel_18
          CFI R6 load(1, XDATA, add(CFA_XSP16, literal(-17)))
          CFI VB load(1, XDATA, add(CFA_XSP16, literal(-16)))
          CFI V0 load(1, XDATA, add(CFA_XSP16, literal(-15)))
          CFI V1 load(1, XDATA, add(CFA_XSP16, literal(-14)))
          CFI V2 load(1, XDATA, add(CFA_XSP16, literal(-13)))
          CFI V3 load(1, XDATA, add(CFA_XSP16, literal(-12)))
          CFI V4 load(1, XDATA, add(CFA_XSP16, literal(-11)))
          CFI V5 load(1, XDATA, add(CFA_XSP16, literal(-10)))
          CFI V6 load(1, XDATA, add(CFA_XSP16, literal(-9)))
          CFI V7 load(1, XDATA, add(CFA_XSP16, literal(-8)))
          CFI V8 load(1, XDATA, add(CFA_XSP16, literal(-7)))
          CFI R7 load(1, XDATA, add(CFA_XSP16, literal(-6)))
          CFI ?RET_LOW load(1, XDATA, add(CFA_XSP16, literal(-5)))
          CFI ?RET_HIGH load(1, XDATA, add(CFA_XSP16, literal(-4)))
          CFI ?BRET_EXT load(1, XDATA, add(CFA_XSP16, literal(-3)))
          CFI DPL0 load(1, XDATA, add(CFA_XSP16, literal(-2)))
          CFI DPH0 load(1, XDATA, add(CFA_XSP16, literal(-1)))
          CFI CFA_SP SP+-2
          CFI CFA_XSP16 add(XSP16, 17)
          CFI Block cfiCond158 Using cfiCommon0
          CFI (cfiCond158) Function gp_getProxyTableByGpId
          CFI (cfiCond158) Conditional ??CrossCallReturnLabel_19
          CFI (cfiCond158) R6 load(1, XDATA, add(CFA_XSP16, literal(-19)))
          CFI (cfiCond158) VB load(1, XDATA, add(CFA_XSP16, literal(-18)))
          CFI (cfiCond158) V0 load(1, XDATA, add(CFA_XSP16, literal(-17)))
          CFI (cfiCond158) V1 load(1, XDATA, add(CFA_XSP16, literal(-16)))
          CFI (cfiCond158) V2 load(1, XDATA, add(CFA_XSP16, literal(-15)))
          CFI (cfiCond158) V3 load(1, XDATA, add(CFA_XSP16, literal(-14)))
          CFI (cfiCond158) V4 load(1, XDATA, add(CFA_XSP16, literal(-13)))
          CFI (cfiCond158) V5 load(1, XDATA, add(CFA_XSP16, literal(-12)))
          CFI (cfiCond158) V6 load(1, XDATA, add(CFA_XSP16, literal(-11)))
          CFI (cfiCond158) V7 load(1, XDATA, add(CFA_XSP16, literal(-10)))
          CFI (cfiCond158) V8 load(1, XDATA, add(CFA_XSP16, literal(-9)))
          CFI (cfiCond158) V9 load(1, XDATA, add(CFA_XSP16, literal(-8)))
          CFI (cfiCond158) V10 load(1, XDATA, add(CFA_XSP16, literal(-7)))
          CFI (cfiCond158) R7 load(1, XDATA, add(CFA_XSP16, literal(-6)))
          CFI (cfiCond158) ?RET_LOW load(1, XDATA, add(CFA_XSP16, literal(-5)))
          CFI (cfiCond158) ?RET_HIGH load(1, XDATA, add(CFA_XSP16, literal(-4)))
          CFI (cfiCond158) ?BRET_EXT load(1, XDATA, add(CFA_XSP16, literal(-3)))
          CFI (cfiCond158) DPL0 load(1, XDATA, add(CFA_XSP16, literal(-2)))
          CFI (cfiCond158) DPH0 load(1, XDATA, add(CFA_XSP16, literal(-1)))
          CFI (cfiCond158) CFA_SP SP+-2
          CFI (cfiCond158) CFA_XSP16 add(XSP16, 19)
          CFI Block cfiPicker159 Using cfiCommon1
          CFI (cfiPicker159) NoFunction
          CFI (cfiPicker159) Picker
        MOVX      A,@DPTR
        MOV       R0,A
        INC       DPTR
        MOVX      A,@DPTR
        MOV       R1,A
        MOV       DPL,R0
        MOV       DPH,R1
        RET
          CFI EndBlock cfiCond157
          CFI EndBlock cfiCond158
          CFI EndBlock cfiPicker159
// 1352 
// 1353  /*********************************************************************
// 1354  * @fn          gp_SecurityOperationProxy
// 1355  *
// 1356  * @brief       Performs Security Operations according to Proxy
// 1357  *
// 1358  * @param       ind - pointer to gp data indication
// 1359  * @param       pFrameCounter 
// 1360  * @param       pKeyType 
// 1361  * @param       pkey Key to be used to decript the packet (if applies)
// 1362  *
// 1363  * @return      GP_SEC_RSP status
// 1364  */

        RSEG BANKED_CODE:HUGECODE:NOROOT(0)
// 1365 uint8 gp_SecurityOperationProxy( gp_DataInd_t* pInd, uint8* pKeyType, uint8* pKey)
gp_SecurityOperationProxy:
          CFI Block cfiBlock160 Using cfiCommon0
          CFI Function gp_SecurityOperationProxy
        CODE
// 1366 {
        FUNCALL gp_SecurityOperationProxy, gp_ResetProxyBasicTblEntry
        LOCFRAME ISTACK, 0, STACK
        LOCFRAME PSTACK, 0, STACK
        LOCFRAME XSTACK, 98, STACK
        LOCFRAME IOVERLAY, 0, STATIC
        LOCFRAME DOVERLAY, 0, STATIC
        ARGFRAME ISTACK, 0, STACK
        ARGFRAME PSTACK, 0, STACK
        ARGFRAME XSTACK, 98, STACK
        ARGFRAME IOVERLAY, 0, STATIC
        ARGFRAME DOVERLAY, 0, STATIC
        FUNCALL gp_SecurityOperationProxy, osal_memset
        LOCFRAME ISTACK, 0, STACK
        LOCFRAME PSTACK, 0, STACK
        LOCFRAME XSTACK, 98, STACK
        LOCFRAME IOVERLAY, 0, STATIC
        LOCFRAME DOVERLAY, 0, STATIC
        ARGFRAME ISTACK, 0, STACK
        ARGFRAME PSTACK, 0, STACK
        ARGFRAME XSTACK, 98, STACK
        ARGFRAME IOVERLAY, 0, STATIC
        ARGFRAME DOVERLAY, 0, STATIC
        FUNCALL gp_SecurityOperationProxy, osal_memcpy
        LOCFRAME ISTACK, 0, STACK
        LOCFRAME PSTACK, 0, STACK
        LOCFRAME XSTACK, 101, STACK
        LOCFRAME IOVERLAY, 0, STATIC
        LOCFRAME DOVERLAY, 0, STATIC
        ARGFRAME ISTACK, 0, STACK
        ARGFRAME PSTACK, 0, STACK
        ARGFRAME XSTACK, 101, STACK
        ARGFRAME IOVERLAY, 0, STATIC
        ARGFRAME DOVERLAY, 0, STATIC
        FUNCALL gp_SecurityOperationProxy, gp_getProxyTableByGpId
        LOCFRAME ISTACK, 0, STACK
        LOCFRAME PSTACK, 0, STACK
        LOCFRAME XSTACK, 100, STACK
        LOCFRAME IOVERLAY, 0, STATIC
        LOCFRAME DOVERLAY, 0, STATIC
        ARGFRAME ISTACK, 0, STACK
        ARGFRAME PSTACK, 0, STACK
        ARGFRAME XSTACK, 100, STACK
        ARGFRAME IOVERLAY, 0, STATIC
        ARGFRAME DOVERLAY, 0, STATIC
        FUNCALL gp_SecurityOperationProxy, osal_memcmp
        LOCFRAME ISTACK, 0, STACK
        LOCFRAME PSTACK, 0, STACK
        LOCFRAME XSTACK, 101, STACK
        LOCFRAME IOVERLAY, 0, STATIC
        LOCFRAME DOVERLAY, 0, STATIC
        ARGFRAME ISTACK, 0, STACK
        ARGFRAME PSTACK, 0, STACK
        ARGFRAME XSTACK, 101, STACK
        ARGFRAME IOVERLAY, 0, STATIC
        ARGFRAME DOVERLAY, 0, STATIC
        FUNCALL gp_SecurityOperationProxy, osal_memcpy
        LOCFRAME ISTACK, 0, STACK
        LOCFRAME PSTACK, 0, STACK
        LOCFRAME XSTACK, 101, STACK
        LOCFRAME IOVERLAY, 0, STATIC
        LOCFRAME DOVERLAY, 0, STATIC
        ARGFRAME ISTACK, 0, STACK
        ARGFRAME PSTACK, 0, STACK
        ARGFRAME XSTACK, 101, STACK
        ARGFRAME IOVERLAY, 0, STATIC
        ARGFRAME DOVERLAY, 0, STATIC
        FUNCALL gp_SecurityOperationProxy, osal_build_uint32
        LOCFRAME ISTACK, 0, STACK
        LOCFRAME PSTACK, 0, STACK
        LOCFRAME XSTACK, 98, STACK
        LOCFRAME IOVERLAY, 0, STATIC
        LOCFRAME DOVERLAY, 0, STATIC
        ARGFRAME ISTACK, 0, STACK
        ARGFRAME PSTACK, 0, STACK
        ARGFRAME XSTACK, 98, STACK
        ARGFRAME IOVERLAY, 0, STATIC
        ARGFRAME DOVERLAY, 0, STATIC
        FUNCALL gp_SecurityOperationProxy, osal_memcpy
        LOCFRAME ISTACK, 0, STACK
        LOCFRAME PSTACK, 0, STACK
        LOCFRAME XSTACK, 101, STACK
        LOCFRAME IOVERLAY, 0, STATIC
        LOCFRAME DOVERLAY, 0, STATIC
        ARGFRAME ISTACK, 0, STACK
        ARGFRAME PSTACK, 0, STACK
        ARGFRAME XSTACK, 101, STACK
        ARGFRAME IOVERLAY, 0, STATIC
        ARGFRAME DOVERLAY, 0, STATIC
        REQUIRE ?V0
        REQUIRE ?V1
        REQUIRE ?V2
        REQUIRE ?V3
        REQUIRE ?V4
        REQUIRE ?V5
        REQUIRE ?V6
        REQUIRE ?V7
        REQUIRE ?V8
        REQUIRE ?V9
        REQUIRE ?V10
        REQUIRE ?V11
        REQUIRE ?V12
        REQUIRE ?V13
        MOV       A,#-0x16
        LCALL     ?BANKED_ENTER_XDATA
          CFI DPH0 load(1, XDATA, add(CFA_XSP16, literal(-1)))
          CFI DPL0 load(1, XDATA, add(CFA_XSP16, literal(-2)))
          CFI ?BRET_EXT load(1, XDATA, add(CFA_XSP16, literal(-3)))
          CFI ?RET_HIGH load(1, XDATA, add(CFA_XSP16, literal(-4)))
          CFI ?RET_LOW load(1, XDATA, add(CFA_XSP16, literal(-5)))
          CFI R7 load(1, XDATA, add(CFA_XSP16, literal(-6)))
          CFI V13 load(1, XDATA, add(CFA_XSP16, literal(-7)))
          CFI V12 load(1, XDATA, add(CFA_XSP16, literal(-8)))
          CFI V11 load(1, XDATA, add(CFA_XSP16, literal(-9)))
          CFI V10 load(1, XDATA, add(CFA_XSP16, literal(-10)))
          CFI V9 load(1, XDATA, add(CFA_XSP16, literal(-11)))
          CFI V8 load(1, XDATA, add(CFA_XSP16, literal(-12)))
          CFI V7 load(1, XDATA, add(CFA_XSP16, literal(-13)))
          CFI V6 load(1, XDATA, add(CFA_XSP16, literal(-14)))
          CFI V5 load(1, XDATA, add(CFA_XSP16, literal(-15)))
          CFI V4 load(1, XDATA, add(CFA_XSP16, literal(-16)))
          CFI V3 load(1, XDATA, add(CFA_XSP16, literal(-17)))
          CFI V2 load(1, XDATA, add(CFA_XSP16, literal(-18)))
          CFI V1 load(1, XDATA, add(CFA_XSP16, literal(-19)))
          CFI V0 load(1, XDATA, add(CFA_XSP16, literal(-20)))
          CFI VB load(1, XDATA, add(CFA_XSP16, literal(-21)))
          CFI R6 load(1, XDATA, add(CFA_XSP16, literal(-22)))
          CFI CFA_SP SP+0
          CFI CFA_XSP16 add(XSP16, 22)
        ; Saved register size: 22
        ; Auto size: 76
        MOV       A,#-0x4c
        LCALL     ?ALLOC_XSTACK8
          CFI CFA_XSP16 add(XSP16, 98)
        MOV       A,R2
        MOV       R6,A
        MOV       A,R3
        MOV       R7,A
        MOV       ?V12,R4
        MOV       ?V13,R5
// 1367   uint8    currEntry[PROXY_TBL_ENTRY_LEN];
// 1368   uint8    status;
// 1369   uint32   SecFrameCounter = 0;
// 1370   uint8    securityCheckFail = FALSE;
// 1371   uint8    endpointCheckFail = FALSE;
// 1372   uint16   NvProxyTableIndex = 0;
        MOV       DPL,?XSP + 0
        MOV       DPH,?XSP + 1
        CLR       A
        MOVX      @DPTR,A
        INC       DPTR
        MOVX      @DPTR,A
// 1373   gpd_ID_t gpd_ID;
// 1374   
// 1375   gp_ResetProxyBasicTblEntry(currEntry);
        ; Setup parameters for call to function gp_ResetProxyBasicTblEntry
        MOV       A,#0xb
        LCALL     ?XSTACK_DISP101_8
        LCALL     `??gp_ResetProxyBasicTblEntry::?relay`; Banked call to: gp_ResetProxyBasicTblEntry
// 1376   
// 1377   if((pKeyType == NULL) || (pKey == NULL) || (pInd == NULL))
        MOV       A,?V12
        ORL       A,?V13
        JZ        ??gp_SecurityOperationProxy_0
        MOV       A,#0x62
        LCALL     ?XSTACK_DISP0_8
        MOVX      A,@DPTR
        MOV       ?V0,A
        INC       DPTR
        MOVX      A,@DPTR
        MOV       ?V1,A
        MOV       A,?V0
        ORL       A,?V1
        JZ        ??gp_SecurityOperationProxy_0
        MOV       A,R6
        ORL       A,R7
        JNZ       ??gp_SecurityOperationProxy_1
// 1378   {
// 1379     return GP_SEC_RSP_ERROR;
??gp_SecurityOperationProxy_0:
        MOV       R1,#0x4
        LJMP      ??gp_SecurityOperationProxy_2 & 0xFFFF
// 1380   }
// 1381   *pKeyType = 0;
??gp_SecurityOperationProxy_1:
        MOV       DPL,?V12
        MOV       DPH,?V13
        CLR       A
        MOVX      @DPTR,A
// 1382   osal_memset(pKey,0,SEC_KEY_LEN);
        ; Setup parameters for call to function osal_memset
        MOV       R4,#0x10
        MOV       R5,A
        MOV       R1,A
        MOV       R2,?V0
        MOV       R3,?V1
        LCALL     `??osal_memset::?relay`; Banked call to: osal_memset
// 1383   
// 1384   gpd_ID.AppID = pInd->appID;
        LCALL     ?Subroutine24 & 0xFFFF
??CrossCallReturnLabel_110:
        PUSH      A
          CFI CFA_SP SP+-1
        MOV       A,#0x2
        LCALL     ?XSTACK_DISP0_8
        POP       A
          CFI CFA_SP SP+0
        MOVX      @DPTR,A
// 1385   
// 1386   if(gpd_ID.AppID == GP_APP_ID_DEFAULT)
        JNZ       ??gp_SecurityOperationProxy_3
// 1387   {
// 1388     gpd_ID.GPDId.SrcID = pInd->SrcId;
        LCALL     ?Subroutine25 & 0xFFFF
// 1389   }
??CrossCallReturnLabel_28:
        LCALL     ?XLOAD_R0123
        MOV       A,#0x3
        LCALL     ?XSTACK_DISP0_8
        LCALL     ?XSTORE_R0123
        SJMP      ??gp_SecurityOperationProxy_4
// 1390   else
// 1391   {
// 1392     osal_memcpy(gpd_ID.GPDId.GPDExtAddr,pInd->srcAddr.addr.extAddr,Z_EXTADDR_LEN);
??gp_SecurityOperationProxy_3:
        ; Setup parameters for call to function osal_memcpy
        LCALL     ?Subroutine26 & 0xFFFF
// 1393   }
??CrossCallReturnLabel_31:
        LCALL     ?PUSH_XSTACK_I_THREE
          CFI CFA_XSP16 add(XSP16, 101)
        MOV       R4,#0x8
        MOV       R5,#0x0
        MOV       A,#0x6
        LCALL     ?XSTACK_DISP0_8
        MOV       R2,DPL
        MOV       R3,DPH
        LCALL     `??osal_memcpy::?relay`; Banked call to: osal_memcpy
        MOV       A,#0x3
        LCALL     ?DEALLOC_XSTACK8
          CFI CFA_XSP16 add(XSP16, 98)
// 1394   
// 1395   status = gp_getProxyTableByGpId(&gpd_ID,currEntry,&NvProxyTableIndex);
??gp_SecurityOperationProxy_4:
        ; Setup parameters for call to function gp_getProxyTableByGpId
        MOV       R0,?XSP + 0
        MOV       R1,?XSP + 1
        MOV       ?V2,R0
        MOV       ?V3,R1
        MOV       R0,#?V2
        LCALL     ?PUSH_XSTACK_I_TWO
          CFI CFA_XSP16 add(XSP16, 100)
        MOV       A,#0xd
        LCALL     ?XSTACK_DISP102_8
        MOV       A,#0x4
        LCALL     ?XSTACK_DISP101_8
        LCALL     `??gp_getProxyTableByGpId::?relay`; Banked call to: gp_getProxyTableByGpId
        MOV       A,#0x2
        LCALL     ?DEALLOC_XSTACK8
          CFI CFA_XSP16 add(XSP16, 98)
        MOV       A,R1
        MOV       R0,A
// 1396   
// 1397   //Not found
// 1398   if(status == ZInvalidParameter)
        LCALL     ?Subroutine33 & 0xFFFF
??CrossCallReturnLabel_45:
        MOV       A,#0x2
        XRL       A,R0
        JNZ       ??gp_SecurityOperationProxy_5
// 1399   {
// 1400     //Section A.3.5.2.1 if in commissioning mode and GPDF from proxy that do not 
// 1401     //have entry, then drop frame
// 1402     if(zgGP_InCommissioningMode == FALSE)
        MOV       DPTR,#zgGP_InCommissioningMode
        MOVX      A,@DPTR
        JNZ       $+5
        LJMP      ??gp_SecurityOperationProxy_6 & 0xFFFF
// 1403     {
// 1404       return GP_SEC_RSP_DROP_FRAME;
// 1405     }
// 1406     if(pInd->GPDFKeyType == 0)
        MOV       DPL,?V2
        MOV       DPH,?V3
        MOVX      A,@DPTR
        JZ        $+5
        LJMP      ??gp_SecurityOperationProxy_7 & 0xFFFF
// 1407     {
// 1408       //If there is no shared key, then pass unprocess
// 1409       if(osal_memcmp(pKey,zgpSharedKey,SEC_KEY_LEN))
        MOV       ?V4,#zgpSharedKey & 0xff
        MOV       ?V5,#(zgpSharedKey >> 8) & 0xff
        MOV       ?V6,#-0x80
        ; Setup parameters for call to function osal_memcmp
        MOV       R0,#?V4
        LCALL     ?PUSH_XSTACK_I_THREE
          CFI CFA_XSP16 add(XSP16, 101)
        MOV       R4,#0x10
        MOV       R5,#0x0
        MOV       DPL,?V0
        MOV       DPH,?V1
        MOV       R1,DPL
        MOV       R2,DPH
        MOV       R3,#0x0
        LCALL     `??osal_memcmp::?relay`; Banked call to: osal_memcmp
        MOV       A,#0x3
        LCALL     ?DEALLOC_XSTACK8
          CFI CFA_XSP16 add(XSP16, 98)
        MOV       A,R1
        JNZ       ??gp_SecurityOperationProxy_7
// 1410       {
// 1411         return GP_SEC_RSP_PASS_UNPROCESSED;
// 1412       }
// 1413       osal_memcpy(pKey,zgpSharedKey,SEC_KEY_LEN);
        ; Setup parameters for call to function osal_memcpy
        MOV       R0,#?V4
        LCALL     ?PUSH_XSTACK_I_THREE
          CFI CFA_XSP16 add(XSP16, 101)
        MOV       R4,#0x10
        MOV       R5,#0x0
        MOV       R2,?V0
        MOV       R3,?V1
        LCALL     `??osal_memcpy::?relay`; Banked call to: osal_memcpy
        MOV       A,#0x3
        LCALL     ?DEALLOC_XSTACK8
          CFI CFA_XSP16 add(XSP16, 98)
        LJMP      ??gp_SecurityOperationProxy_6 & 0xFFFF
// 1414     }
// 1415     else
// 1416     {
// 1417       return GP_SEC_RSP_PASS_UNPROCESSED;
// 1418     }
// 1419   }
// 1420   
// 1421   //error
// 1422   else if(status == ZFailure)
??gp_SecurityOperationProxy_5:
        MOV       A,#0x1
        XRL       A,R0
        JNZ       $+5
        LJMP      ??gp_SecurityOperationProxy_6 & 0xFFFF
// 1423   {
// 1424     //Not found, or error, drop the frame
// 1425     return GP_SEC_RSP_DROP_FRAME;
// 1426   }
// 1427   
// 1428   //Found
// 1429   else
// 1430   {
// 1431     
// 1432 //Active/Inactive entries in the proxy table are not supported    
// 1433 #if 1
// 1434       //If security level is zero then don't check and pass unproessed
// 1435       if( (pInd->GPDFSecLvl == PROXY_TBL_GET_SEC_OPT_SECURITY_LVL(currEntry[PROXY_TBL_ENTRY_SEC_OPT]) ) &&
// 1436           ( GP_SECURITY_LVL_NO_SEC == PROXY_TBL_GET_SEC_OPT_SECURITY_LVL(currEntry[PROXY_TBL_ENTRY_SEC_OPT]) ))
        MOV       A,#0x18
        LCALL     ?XSTACK_DISP0_8
        MOVX      A,@DPTR
        ANL       A,#0x3
        MOV       R0,A
        MOV       A,R6
        ADD       A,#0x26
        MOV       ?V10,A
        CLR       A
        ADDC      A,R7
        MOV       ?V11,A
        MOV       A,R6
        ADD       A,#0x1d
        MOV       ?V8,A
        CLR       A
        ADDC      A,R7
        MOV       ?V9,A
        MOV       DPL,?V8
        MOV       DPH,A
        MOVX      A,@DPTR
        XRL       A,R0
        JNZ       ??gp_SecurityOperationProxy_8
        MOV       A,R0
        JNZ       ??gp_SecurityOperationProxy_8
// 1437       {
// 1438         pInd->GPDSecFrameCounter = (uint32)pInd->SeqNumber;
        MOV       A,R6
        ADD       A,#0x10
        LCALL     ??Subroutine45_0 & 0xFFFF
// 1439         return GP_SEC_RSP_PASS_UNPROCESSED;
// 1440       }
??CrossCallReturnLabel_106:
        MOV       DPL,?V10
        MOV       DPH,?V11
        MOVX      @DPTR,A
        INC       DPTR
        CLR       A
        MOVX      @DPTR,A
        INC       DPTR
        MOVX      @DPTR,A
        INC       DPTR
        MOVX      @DPTR,A
// 1441       //Check security Section A.3.7.3.3
// 1442       //Check framecounter freshness
// 1443       SecFrameCounter = osal_build_uint32(&currEntry[PROXY_TBL_ENTRY_SEC_FRAME],sizeof(uint32));
// 1444       if(SecFrameCounter >= pInd->GPDSecFrameCounter)
// 1445       {
// 1446         securityCheckFail = TRUE;
// 1447       }
// 1448       //Compare the security level
// 1449       else if(pInd->GPDFSecLvl != PROXY_TBL_GET_SEC_OPT_SECURITY_LVL(currEntry[PROXY_TBL_ENTRY_SEC_OPT]))
// 1450       {
// 1451         securityCheckFail = TRUE;
// 1452       }
// 1453       //Mapping of security key type (section A.1.4.1.3 Table 12)
// 1454       else if((PROXY_TBL_GET_SEC_OPT_SECURITY_KEY_TYP(currEntry[PROXY_TBL_ENTRY_SEC_OPT]) <= 0x03)
// 1455               && (pInd->GPDFKeyType == 1))
// 1456       {
// 1457         securityCheckFail = TRUE;
// 1458       }
// 1459       else if(  ((PROXY_TBL_GET_SEC_OPT_SECURITY_KEY_TYP(currEntry[PROXY_TBL_ENTRY_SEC_OPT]) == 0x07) ||
// 1460                  (PROXY_TBL_GET_SEC_OPT_SECURITY_KEY_TYP(currEntry[PROXY_TBL_ENTRY_SEC_OPT]) == 0x04)) 
// 1461                && (pInd->GPDFKeyType == 0) )
// 1462       {
// 1463         securityCheckFail = TRUE;
// 1464         
// 1465       }
// 1466       else if( (PROXY_TBL_GET_SEC_OPT_SECURITY_KEY_TYP(currEntry[PROXY_TBL_ENTRY_SEC_OPT]) == 0x05) ||
// 1467                (PROXY_TBL_GET_SEC_OPT_SECURITY_KEY_TYP(currEntry[PROXY_TBL_ENTRY_SEC_OPT]) == 0x06) )
// 1468       {
// 1469         //keytype reserved
// 1470         securityCheckFail = TRUE;
// 1471       }
// 1472       
// 1473       if(securityCheckFail == TRUE)
// 1474       {
// 1475         if(zgGP_InCommissioningMode == FALSE)
// 1476         {
// 1477           return GP_SEC_RSP_DROP_FRAME;
// 1478         }
// 1479         else
// 1480         {
// 1481           return GP_SEC_RSP_PASS_UNPROCESSED;
??gp_SecurityOperationProxy_7:
        MOV       R1,#0x2
        LJMP      ??gp_SecurityOperationProxy_2 & 0xFFFF
// 1482         }
??gp_SecurityOperationProxy_8:
        ; Setup parameters for call to function osal_build_uint32
        MOV       R1,#0x4
        MOV       A,#0x19
        LCALL     ?XSTACK_DISP0_8
        MOV       R2,DPL
        MOV       R3,DPH
        LCALL     `??osal_build_uint32::?relay`; Banked call to: osal_build_uint32
        MOV       ?V4,R2
        MOV       ?V5,R3
        MOV       ?V6,R4
        MOV       ?V7,R5
        MOV       DPL,?V10
        MOV       DPH,?V11
        MOV       R0,#?V4
        LCALL     ?UL_GE_X
        JNC       $+5
        LJMP      ??gp_SecurityOperationProxy_9 & 0xFFFF
        MOV       A,#0x18
        LCALL     ?XSTACK_DISP0_8
        MOVX      A,@DPTR
        MOV       R0,A
        MOV       DPL,?V8
        MOV       DPH,?V9
        MOVX      A,@DPTR
        MOV       R1,A
        MOV       A,#0x3
        ANL       A,R0
        XRL       A,R1
        JNZ       ??gp_SecurityOperationProxy_9
        MOV       A,R0
        RRC       A
        RRC       A
        ANL       A,#0x3f
        ANL       A,#0x7
        MOV       R0,A
        CLR       C
        SUBB      A,#0x4
        JNC       ??gp_SecurityOperationProxy_10
        MOV       DPL,?V2
        MOV       DPH,?V3
        MOVX      A,@DPTR
        XRL       A,#0x1
        JZ        ??gp_SecurityOperationProxy_9
// 1483       }
// 1484       else
// 1485       {
// 1486         //Securty check success
// 1487         osal_memcpy(pKey,&currEntry[PROXY_TBL_ENTRY_GPD_KEY],SEC_KEY_LEN);
??gp_SecurityOperationProxy_11:
        ; Setup parameters for call to function osal_memcpy
        MOV       A,#0x1d
        LCALL     ?XSTACK_DISP0_8
        MOV       R1,DPL
        MOV       R2,DPH
        MOV       ?V4,R1
        MOV       ?V5,R2
        MOV       ?V6,#0x0
        MOV       R0,#?V4
        LCALL     ?PUSH_XSTACK_I_THREE
          CFI CFA_XSP16 add(XSP16, 101)
        MOV       R4,#0x10
        MOV       R5,#0x0
        MOV       R2,?V0
        MOV       R3,?V1
        LCALL     `??osal_memcpy::?relay`; Banked call to: osal_memcpy
        MOV       A,#0x3
        LCALL     ?DEALLOC_XSTACK8
          CFI CFA_XSP16 add(XSP16, 98)
// 1488         *pKeyType = PROXY_TBL_GET_SEC_OPT_SECURITY_KEY_TYP(currEntry[PROXY_TBL_ENTRY_SEC_OPT]);
        MOV       A,#0x18
        LCALL     ?XSTACK_DISP0_8
        MOVX      A,@DPTR
        RRC       A
        RRC       A
        ANL       A,#0x3f
        ANL       A,#0x7
        MOV       DPL,?V12
        MOV       DPH,?V13
        MOVX      @DPTR,A
// 1489       
// 1490         //compare the endpoint
// 1491         if(endpointCheckFail)
// 1492         {
// 1493           return GP_SEC_RSP_TX_THEN_DROP;
// 1494         }
// 1495         else
// 1496         {
// 1497           return GP_SEC_RSP_MATCH;
        MOV       R1,#0x1
// 1498         }
// 1499       }
??gp_SecurityOperationProxy_2:
        LJMP      ?Subroutine2 & 0xFFFF
??gp_SecurityOperationProxy_10:
        MOV       A,#0x7
        XRL       A,R0
        JZ        ??gp_SecurityOperationProxy_12
        MOV       A,#0x4
        XRL       A,R0
        JNZ       ??gp_SecurityOperationProxy_13
??gp_SecurityOperationProxy_12:
        MOV       DPL,?V2
        MOV       DPH,?V3
        MOVX      A,@DPTR
        JZ        ??gp_SecurityOperationProxy_9
??gp_SecurityOperationProxy_13:
        MOV       A,#0x5
        XRL       A,R0
        JZ        ??gp_SecurityOperationProxy_9
        MOV       A,#0x6
        XRL       A,R0
        JNZ       ??gp_SecurityOperationProxy_11
??gp_SecurityOperationProxy_9:
        MOV       DPTR,#zgGP_InCommissioningMode
        MOVX      A,@DPTR
        JZ        $+5
        LJMP      ??gp_SecurityOperationProxy_7 & 0xFFFF
??gp_SecurityOperationProxy_6:
        MOV       R1,#0x0
        SJMP      ??gp_SecurityOperationProxy_2
// 1500       
// 1501 //Active/Inactive entries in the proxy table are not supported
// 1502 #else
// 1503     //Is active
// 1504     if(PROXY_TBL_GET_ENTRY_ACTIVE(currEntry[PROXY_TBL_ENTRY_OPT]))
// 1505     {
// 1506       //Check security Section A.3.7.3.3
// 1507       //Check framecounter freshness
// 1508       SecFrameCounter = osal_build_uint32(&currEntry[PROXY_TBL_ENTRY_SEC_FRAME],sizeof(uint32));
// 1509       if(SecFrameCounter >= pInd->GPDSecFrameCounter)
// 1510       {
// 1511         securityCheckFail = TRUE;
// 1512       }
// 1513       //Compare the security level
// 1514       else if(pInd->GPDFSecLvl != PROXY_TBL_GET_SEC_OPT_SECURITY_LVL(currEntry[PROXY_TBL_ENTRY_SEC_OPT]))
// 1515       {
// 1516         securityCheckFail = TRUE;
// 1517       }
// 1518       //Mapping of security key type (section A.1.4.1.3 Table 12)
// 1519       else if((PROXY_TBL_GET_SEC_OPT_SECURITY_KEY_TYP(currEntry[PROXY_TBL_ENTRY_SEC_OPT]) <= 0x03)
// 1520               && (pInd->GPDFKeyType == 1))
// 1521       {
// 1522         securityCheckFail = TRUE;
// 1523       }
// 1524       else if(  ((PROXY_TBL_GET_SEC_OPT_SECURITY_KEY_TYP(currEntry[PROXY_TBL_ENTRY_SEC_OPT]) == 0x07) ||
// 1525                  (PROXY_TBL_GET_SEC_OPT_SECURITY_KEY_TYP(currEntry[PROXY_TBL_ENTRY_SEC_OPT]) == 0x04)) 
// 1526                && (pInd->GPDFKeyType == 0) )
// 1527       {
// 1528         securityCheckFail = TRUE;
// 1529         
// 1530       }
// 1531       else if( (PROXY_TBL_GET_SEC_OPT_SECURITY_KEY_TYP(currEntry[PROXY_TBL_ENTRY_SEC_OPT]) == 0x05) ||
// 1532                (PROXY_TBL_GET_SEC_OPT_SECURITY_KEY_TYP(currEntry[PROXY_TBL_ENTRY_SEC_OPT]) == 0x06) )
// 1533       {
// 1534         //keytype reserved
// 1535         securityCheckFail = TRUE;
// 1536       }
// 1537       
// 1538       if(securityCheckFail == TRUE)
// 1539       {
// 1540         if(zgGP_InCommissioningMode == FALSE)
// 1541         {
// 1542           return GP_SEC_RSP_DROP_FRAME;
// 1543         }
// 1544         else
// 1545         {
// 1546           return GP_SEC_RSP_PASS_UNPROCESSED;
// 1547         }
// 1548       }
// 1549       else
// 1550       {
// 1551         //Securty check success
// 1552         osal_memcpy(pKey,&currEntry[PROXY_TBL_ENTRY_GPD_KEY],SEC_KEY_LEN);
// 1553         *pKeyType = GP_GET_SEC_KEY_TYPE(currEntry[PROXY_TBL_ENTRY_SEC_OPT]);
// 1554       
// 1555         //compare the endpoint
// 1556         if(endpointCheckFail)
// 1557         {
// 1558           return GP_SEC_RSP_TX_THEN_DROP;
// 1559         }
// 1560         else
// 1561         {
// 1562           return GP_SEC_RSP_MATCH;
// 1563         }
// 1564       }
// 1565     }
// 1566 
// 1567     //Inactive
// 1568     else
// 1569     {
// 1570       //Found, inactive and in operational mode
// 1571       if(zgGP_InCommissioningMode == FALSE)
// 1572       {
// 1573         //Check framecounter freshness
// 1574         SecFrameCounter = osal_build_uint32(&currEntry[PROXY_TBL_ENTRY_SEC_FRAME],sizeof(uint32));
// 1575         if(SecFrameCounter < pInd->GPDSecFrameCounter)
// 1576         {
// 1577           //Update framecounter
// 1578            osal_memcpy(&currEntry[PROXY_TBL_ENTRY_SEC_FRAME],(uint8*)&pInd->GPDSecFrameCounter,sizeof(uint32));
// 1579 
// 1580            status = osal_nv_write( NvProxyTableIndex, 0,
// 1581                                PROXY_TBL_ENTRY_LEN, currEntry );
// 1582            
// 1583            if ( status != SUCCESS )
// 1584            {
// 1585              // FAIL
// 1586              return GP_SEC_RSP_ERROR;
// 1587            }
// 1588         }
// 1589         return GP_SEC_RSP_DROP_FRAME;
// 1590       }
// 1591       //Found,inactive, and in commissioning mode
// 1592       else
// 1593       {
// 1594         //If key type = 0, its the same as not found
// 1595         if(pInd->GPDFKeyType == 0)
// 1596         {
// 1597           Found = FALSE;
// 1598         }
// 1599         else
// 1600         {
// 1601           return GP_SEC_RSP_PASS_UNPROCESSED;
// 1602         }
// 1603       }
// 1604     }
// 1605 #endif
// 1606     
// 1607   }
// 1608 
// 1609 
// 1610   //Should not reach this point
// 1611   return GP_SEC_RSP_DROP_FRAME;
// 1612 }
          CFI EndBlock cfiBlock160

        RSEG BANKED_CODE:HUGECODE:NOROOT(0)
?Subroutine33:
          CFI Block cfiCond161 Using cfiCommon0
          CFI Function gp_ZclPairingParse
          CFI Conditional ??CrossCallReturnLabel_44
          CFI R6 load(1, XDATA, add(CFA_XSP16, literal(-20)))
          CFI VB load(1, XDATA, add(CFA_XSP16, literal(-19)))
          CFI V0 load(1, XDATA, add(CFA_XSP16, literal(-18)))
          CFI V1 load(1, XDATA, add(CFA_XSP16, literal(-17)))
          CFI V2 load(1, XDATA, add(CFA_XSP16, literal(-16)))
          CFI V3 load(1, XDATA, add(CFA_XSP16, literal(-15)))
          CFI V4 load(1, XDATA, add(CFA_XSP16, literal(-14)))
          CFI V5 load(1, XDATA, add(CFA_XSP16, literal(-13)))
          CFI V6 load(1, XDATA, add(CFA_XSP16, literal(-12)))
          CFI V7 load(1, XDATA, add(CFA_XSP16, literal(-11)))
          CFI V8 load(1, XDATA, add(CFA_XSP16, literal(-10)))
          CFI V9 load(1, XDATA, add(CFA_XSP16, literal(-9)))
          CFI V10 load(1, XDATA, add(CFA_XSP16, literal(-8)))
          CFI V11 load(1, XDATA, add(CFA_XSP16, literal(-7)))
          CFI R7 load(1, XDATA, add(CFA_XSP16, literal(-6)))
          CFI ?RET_LOW load(1, XDATA, add(CFA_XSP16, literal(-5)))
          CFI ?RET_HIGH load(1, XDATA, add(CFA_XSP16, literal(-4)))
          CFI ?BRET_EXT load(1, XDATA, add(CFA_XSP16, literal(-3)))
          CFI DPL0 load(1, XDATA, add(CFA_XSP16, literal(-2)))
          CFI DPH0 load(1, XDATA, add(CFA_XSP16, literal(-1)))
          CFI CFA_SP SP+-2
          CFI CFA_XSP16 add(XSP16, 85)
          CFI Block cfiCond162 Using cfiCommon0
          CFI (cfiCond162) Function gp_SecurityOperationProxy
          CFI (cfiCond162) Conditional ??CrossCallReturnLabel_45
          CFI (cfiCond162) R6 load(1, XDATA, add(CFA_XSP16, literal(-22)))
          CFI (cfiCond162) VB load(1, XDATA, add(CFA_XSP16, literal(-21)))
          CFI (cfiCond162) V0 load(1, XDATA, add(CFA_XSP16, literal(-20)))
          CFI (cfiCond162) V1 load(1, XDATA, add(CFA_XSP16, literal(-19)))
          CFI (cfiCond162) V2 load(1, XDATA, add(CFA_XSP16, literal(-18)))
          CFI (cfiCond162) V3 load(1, XDATA, add(CFA_XSP16, literal(-17)))
          CFI (cfiCond162) V4 load(1, XDATA, add(CFA_XSP16, literal(-16)))
          CFI (cfiCond162) V5 load(1, XDATA, add(CFA_XSP16, literal(-15)))
          CFI (cfiCond162) V6 load(1, XDATA, add(CFA_XSP16, literal(-14)))
          CFI (cfiCond162) V7 load(1, XDATA, add(CFA_XSP16, literal(-13)))
          CFI (cfiCond162) V8 load(1, XDATA, add(CFA_XSP16, literal(-12)))
          CFI (cfiCond162) V9 load(1, XDATA, add(CFA_XSP16, literal(-11)))
          CFI (cfiCond162) V10 load(1, XDATA, add(CFA_XSP16, literal(-10)))
          CFI (cfiCond162) V11 load(1, XDATA, add(CFA_XSP16, literal(-9)))
          CFI (cfiCond162) V12 load(1, XDATA, add(CFA_XSP16, literal(-8)))
          CFI (cfiCond162) V13 load(1, XDATA, add(CFA_XSP16, literal(-7)))
          CFI (cfiCond162) R7 load(1, XDATA, add(CFA_XSP16, literal(-6)))
          CFI (cfiCond162) ?RET_LOW load(1, XDATA, add(CFA_XSP16, literal(-5)))
          CFI (cfiCond162) ?RET_HIGH load(1, XDATA, add(CFA_XSP16, literal(-4)))
          CFI (cfiCond162) ?BRET_EXT load(1, XDATA, add(CFA_XSP16, literal(-3)))
          CFI (cfiCond162) DPL0 load(1, XDATA, add(CFA_XSP16, literal(-2)))
          CFI (cfiCond162) DPH0 load(1, XDATA, add(CFA_XSP16, literal(-1)))
          CFI (cfiCond162) CFA_SP SP+-2
          CFI (cfiCond162) CFA_XSP16 add(XSP16, 98)
          CFI Block cfiPicker163 Using cfiCommon1
          CFI (cfiPicker163) NoFunction
          CFI (cfiPicker163) Picker
        MOV       A,R6
        ADD       A,#0x1e
        MOV       ?V2,A
        CLR       A
        ADDC      A,R7
        MOV       ?V3,A
        RET
          CFI EndBlock cfiCond161
          CFI EndBlock cfiCond162
          CFI EndBlock cfiPicker163

        RSEG BANKED_CODE:HUGECODE:NOROOT(0)
?Subroutine26:
          CFI Block cfiCond164 Using cfiCommon0
          CFI Function zclGp_ManteinanceIndParse
          CFI Conditional ??CrossCallReturnLabel_30
          CFI R6 load(1, XDATA, add(CFA_XSP16, literal(-15)))
          CFI VB load(1, XDATA, add(CFA_XSP16, literal(-14)))
          CFI V0 load(1, XDATA, add(CFA_XSP16, literal(-13)))
          CFI V1 load(1, XDATA, add(CFA_XSP16, literal(-12)))
          CFI V2 load(1, XDATA, add(CFA_XSP16, literal(-11)))
          CFI V3 load(1, XDATA, add(CFA_XSP16, literal(-10)))
          CFI V4 load(1, XDATA, add(CFA_XSP16, literal(-9)))
          CFI V5 load(1, XDATA, add(CFA_XSP16, literal(-8)))
          CFI V6 load(1, XDATA, add(CFA_XSP16, literal(-7)))
          CFI R7 load(1, XDATA, add(CFA_XSP16, literal(-6)))
          CFI ?RET_LOW load(1, XDATA, add(CFA_XSP16, literal(-5)))
          CFI ?RET_HIGH load(1, XDATA, add(CFA_XSP16, literal(-4)))
          CFI ?BRET_EXT load(1, XDATA, add(CFA_XSP16, literal(-3)))
          CFI DPL0 load(1, XDATA, add(CFA_XSP16, literal(-2)))
          CFI DPH0 load(1, XDATA, add(CFA_XSP16, literal(-1)))
          CFI CFA_SP SP+-2
          CFI CFA_XSP16 add(XSP16, 82)
          CFI Block cfiCond165 Using cfiCommon0
          CFI (cfiCond165) Function gp_SecurityOperationProxy
          CFI (cfiCond165) Conditional ??CrossCallReturnLabel_31
          CFI (cfiCond165) R6 load(1, XDATA, add(CFA_XSP16, literal(-22)))
          CFI (cfiCond165) VB load(1, XDATA, add(CFA_XSP16, literal(-21)))
          CFI (cfiCond165) V0 load(1, XDATA, add(CFA_XSP16, literal(-20)))
          CFI (cfiCond165) V1 load(1, XDATA, add(CFA_XSP16, literal(-19)))
          CFI (cfiCond165) V2 load(1, XDATA, add(CFA_XSP16, literal(-18)))
          CFI (cfiCond165) V3 load(1, XDATA, add(CFA_XSP16, literal(-17)))
          CFI (cfiCond165) V4 load(1, XDATA, add(CFA_XSP16, literal(-16)))
          CFI (cfiCond165) V5 load(1, XDATA, add(CFA_XSP16, literal(-15)))
          CFI (cfiCond165) V6 load(1, XDATA, add(CFA_XSP16, literal(-14)))
          CFI (cfiCond165) V7 load(1, XDATA, add(CFA_XSP16, literal(-13)))
          CFI (cfiCond165) V8 load(1, XDATA, add(CFA_XSP16, literal(-12)))
          CFI (cfiCond165) V9 load(1, XDATA, add(CFA_XSP16, literal(-11)))
          CFI (cfiCond165) V10 load(1, XDATA, add(CFA_XSP16, literal(-10)))
          CFI (cfiCond165) V11 load(1, XDATA, add(CFA_XSP16, literal(-9)))
          CFI (cfiCond165) V12 load(1, XDATA, add(CFA_XSP16, literal(-8)))
          CFI (cfiCond165) V13 load(1, XDATA, add(CFA_XSP16, literal(-7)))
          CFI (cfiCond165) R7 load(1, XDATA, add(CFA_XSP16, literal(-6)))
          CFI (cfiCond165) ?RET_LOW load(1, XDATA, add(CFA_XSP16, literal(-5)))
          CFI (cfiCond165) ?RET_HIGH load(1, XDATA, add(CFA_XSP16, literal(-4)))
          CFI (cfiCond165) ?BRET_EXT load(1, XDATA, add(CFA_XSP16, literal(-3)))
          CFI (cfiCond165) DPL0 load(1, XDATA, add(CFA_XSP16, literal(-2)))
          CFI (cfiCond165) DPH0 load(1, XDATA, add(CFA_XSP16, literal(-1)))
          CFI (cfiCond165) CFA_SP SP+-2
          CFI (cfiCond165) CFA_XSP16 add(XSP16, 98)
          CFI Block cfiPicker166 Using cfiCommon1
          CFI (cfiPicker166) NoFunction
          CFI (cfiPicker166) Picker
        MOV       A,R6
        ADD       A,#0x11
        MOV       ?V4,A
        CLR       A
        ADDC      A,R7
        MOV       ?V5,A
        MOV       ?V6,#0x0
        MOV       R0,#?V4
        RET
          CFI EndBlock cfiCond164
          CFI EndBlock cfiCond165
          CFI EndBlock cfiPicker166

        RSEG BANKED_CODE:HUGECODE:NOROOT(0)
?Subroutine25:
          CFI Block cfiCond167 Using cfiCommon0
          CFI Function zclGp_ManteinanceIndParse
          CFI Conditional ??CrossCallReturnLabel_27
          CFI R6 load(1, XDATA, add(CFA_XSP16, literal(-15)))
          CFI VB load(1, XDATA, add(CFA_XSP16, literal(-14)))
          CFI V0 load(1, XDATA, add(CFA_XSP16, literal(-13)))
          CFI V1 load(1, XDATA, add(CFA_XSP16, literal(-12)))
          CFI V2 load(1, XDATA, add(CFA_XSP16, literal(-11)))
          CFI V3 load(1, XDATA, add(CFA_XSP16, literal(-10)))
          CFI V4 load(1, XDATA, add(CFA_XSP16, literal(-9)))
          CFI V5 load(1, XDATA, add(CFA_XSP16, literal(-8)))
          CFI V6 load(1, XDATA, add(CFA_XSP16, literal(-7)))
          CFI R7 load(1, XDATA, add(CFA_XSP16, literal(-6)))
          CFI ?RET_LOW load(1, XDATA, add(CFA_XSP16, literal(-5)))
          CFI ?RET_HIGH load(1, XDATA, add(CFA_XSP16, literal(-4)))
          CFI ?BRET_EXT load(1, XDATA, add(CFA_XSP16, literal(-3)))
          CFI DPL0 load(1, XDATA, add(CFA_XSP16, literal(-2)))
          CFI DPH0 load(1, XDATA, add(CFA_XSP16, literal(-1)))
          CFI CFA_SP SP+-2
          CFI CFA_XSP16 add(XSP16, 82)
          CFI Block cfiCond168 Using cfiCommon0
          CFI (cfiCond168) Function gp_SecurityOperationProxy
          CFI (cfiCond168) Conditional ??CrossCallReturnLabel_28
          CFI (cfiCond168) R6 load(1, XDATA, add(CFA_XSP16, literal(-22)))
          CFI (cfiCond168) VB load(1, XDATA, add(CFA_XSP16, literal(-21)))
          CFI (cfiCond168) V0 load(1, XDATA, add(CFA_XSP16, literal(-20)))
          CFI (cfiCond168) V1 load(1, XDATA, add(CFA_XSP16, literal(-19)))
          CFI (cfiCond168) V2 load(1, XDATA, add(CFA_XSP16, literal(-18)))
          CFI (cfiCond168) V3 load(1, XDATA, add(CFA_XSP16, literal(-17)))
          CFI (cfiCond168) V4 load(1, XDATA, add(CFA_XSP16, literal(-16)))
          CFI (cfiCond168) V5 load(1, XDATA, add(CFA_XSP16, literal(-15)))
          CFI (cfiCond168) V6 load(1, XDATA, add(CFA_XSP16, literal(-14)))
          CFI (cfiCond168) V7 load(1, XDATA, add(CFA_XSP16, literal(-13)))
          CFI (cfiCond168) V8 load(1, XDATA, add(CFA_XSP16, literal(-12)))
          CFI (cfiCond168) V9 load(1, XDATA, add(CFA_XSP16, literal(-11)))
          CFI (cfiCond168) V10 load(1, XDATA, add(CFA_XSP16, literal(-10)))
          CFI (cfiCond168) V11 load(1, XDATA, add(CFA_XSP16, literal(-9)))
          CFI (cfiCond168) V12 load(1, XDATA, add(CFA_XSP16, literal(-8)))
          CFI (cfiCond168) V13 load(1, XDATA, add(CFA_XSP16, literal(-7)))
          CFI (cfiCond168) R7 load(1, XDATA, add(CFA_XSP16, literal(-6)))
          CFI (cfiCond168) ?RET_LOW load(1, XDATA, add(CFA_XSP16, literal(-5)))
          CFI (cfiCond168) ?RET_HIGH load(1, XDATA, add(CFA_XSP16, literal(-4)))
          CFI (cfiCond168) ?BRET_EXT load(1, XDATA, add(CFA_XSP16, literal(-3)))
          CFI (cfiCond168) DPL0 load(1, XDATA, add(CFA_XSP16, literal(-2)))
          CFI (cfiCond168) DPH0 load(1, XDATA, add(CFA_XSP16, literal(-1)))
          CFI (cfiCond168) CFA_SP SP+-2
          CFI (cfiCond168) CFA_XSP16 add(XSP16, 98)
          CFI Block cfiCond169 Using cfiCommon0
          CFI (cfiCond169) Function GP_DataInd
          CFI (cfiCond169) Conditional ??CrossCallReturnLabel_29
          CFI (cfiCond169) R6 load(1, XDATA, add(CFA_XSP16, literal(-16)))
          CFI (cfiCond169) VB load(1, XDATA, add(CFA_XSP16, literal(-15)))
          CFI (cfiCond169) V0 load(1, XDATA, add(CFA_XSP16, literal(-14)))
          CFI (cfiCond169) V1 load(1, XDATA, add(CFA_XSP16, literal(-13)))
          CFI (cfiCond169) V2 load(1, XDATA, add(CFA_XSP16, literal(-12)))
          CFI (cfiCond169) V3 load(1, XDATA, add(CFA_XSP16, literal(-11)))
          CFI (cfiCond169) V4 load(1, XDATA, add(CFA_XSP16, literal(-10)))
          CFI (cfiCond169) V5 load(1, XDATA, add(CFA_XSP16, literal(-9)))
          CFI (cfiCond169) V6 load(1, XDATA, add(CFA_XSP16, literal(-8)))
          CFI (cfiCond169) V7 load(1, XDATA, add(CFA_XSP16, literal(-7)))
          CFI (cfiCond169) R7 load(1, XDATA, add(CFA_XSP16, literal(-6)))
          CFI (cfiCond169) ?RET_LOW load(1, XDATA, add(CFA_XSP16, literal(-5)))
          CFI (cfiCond169) ?RET_HIGH load(1, XDATA, add(CFA_XSP16, literal(-4)))
          CFI (cfiCond169) ?BRET_EXT load(1, XDATA, add(CFA_XSP16, literal(-3)))
          CFI (cfiCond169) DPL0 load(1, XDATA, add(CFA_XSP16, literal(-2)))
          CFI (cfiCond169) DPH0 load(1, XDATA, add(CFA_XSP16, literal(-1)))
          CFI (cfiCond169) CFA_SP SP+-2
          CFI (cfiCond169) CFA_XSP16 add(XSP16, 148)
          CFI Block cfiPicker170 Using cfiCommon1
          CFI (cfiPicker170) NoFunction
          CFI (cfiPicker170) Picker
        MOV       A,R6
        ADD       A,#0x21
        MOV       DPL,A
        CLR       A
        ADDC      A,R7
        MOV       DPH,A
        RET
          CFI EndBlock cfiCond167
          CFI EndBlock cfiCond168
          CFI EndBlock cfiCond169
          CFI EndBlock cfiPicker170

        RSEG BANKED_CODE:HUGECODE:NOROOT(0)
?Subroutine24:
          CFI Block cfiCond171 Using cfiCommon0
          CFI Function zclGp_ManteinanceIndParse
          CFI Conditional ??CrossCallReturnLabel_109
          CFI R6 load(1, XDATA, add(CFA_XSP16, literal(-15)))
          CFI VB load(1, XDATA, add(CFA_XSP16, literal(-14)))
          CFI V0 load(1, XDATA, add(CFA_XSP16, literal(-13)))
          CFI V1 load(1, XDATA, add(CFA_XSP16, literal(-12)))
          CFI V2 load(1, XDATA, add(CFA_XSP16, literal(-11)))
          CFI V3 load(1, XDATA, add(CFA_XSP16, literal(-10)))
          CFI V4 load(1, XDATA, add(CFA_XSP16, literal(-9)))
          CFI V5 load(1, XDATA, add(CFA_XSP16, literal(-8)))
          CFI V6 load(1, XDATA, add(CFA_XSP16, literal(-7)))
          CFI R7 load(1, XDATA, add(CFA_XSP16, literal(-6)))
          CFI ?RET_LOW load(1, XDATA, add(CFA_XSP16, literal(-5)))
          CFI ?RET_HIGH load(1, XDATA, add(CFA_XSP16, literal(-4)))
          CFI ?BRET_EXT load(1, XDATA, add(CFA_XSP16, literal(-3)))
          CFI DPL0 load(1, XDATA, add(CFA_XSP16, literal(-2)))
          CFI DPH0 load(1, XDATA, add(CFA_XSP16, literal(-1)))
          CFI CFA_SP SP+-2
          CFI CFA_XSP16 add(XSP16, 82)
          CFI Block cfiCond172 Using cfiCommon0
          CFI (cfiCond172) Function gp_SecurityOperationProxy
          CFI (cfiCond172) Conditional ??CrossCallReturnLabel_110
          CFI (cfiCond172) R6 load(1, XDATA, add(CFA_XSP16, literal(-22)))
          CFI (cfiCond172) VB load(1, XDATA, add(CFA_XSP16, literal(-21)))
          CFI (cfiCond172) V0 load(1, XDATA, add(CFA_XSP16, literal(-20)))
          CFI (cfiCond172) V1 load(1, XDATA, add(CFA_XSP16, literal(-19)))
          CFI (cfiCond172) V2 load(1, XDATA, add(CFA_XSP16, literal(-18)))
          CFI (cfiCond172) V3 load(1, XDATA, add(CFA_XSP16, literal(-17)))
          CFI (cfiCond172) V4 load(1, XDATA, add(CFA_XSP16, literal(-16)))
          CFI (cfiCond172) V5 load(1, XDATA, add(CFA_XSP16, literal(-15)))
          CFI (cfiCond172) V6 load(1, XDATA, add(CFA_XSP16, literal(-14)))
          CFI (cfiCond172) V7 load(1, XDATA, add(CFA_XSP16, literal(-13)))
          CFI (cfiCond172) V8 load(1, XDATA, add(CFA_XSP16, literal(-12)))
          CFI (cfiCond172) V9 load(1, XDATA, add(CFA_XSP16, literal(-11)))
          CFI (cfiCond172) V10 load(1, XDATA, add(CFA_XSP16, literal(-10)))
          CFI (cfiCond172) V11 load(1, XDATA, add(CFA_XSP16, literal(-9)))
          CFI (cfiCond172) V12 load(1, XDATA, add(CFA_XSP16, literal(-8)))
          CFI (cfiCond172) V13 load(1, XDATA, add(CFA_XSP16, literal(-7)))
          CFI (cfiCond172) R7 load(1, XDATA, add(CFA_XSP16, literal(-6)))
          CFI (cfiCond172) ?RET_LOW load(1, XDATA, add(CFA_XSP16, literal(-5)))
          CFI (cfiCond172) ?RET_HIGH load(1, XDATA, add(CFA_XSP16, literal(-4)))
          CFI (cfiCond172) ?BRET_EXT load(1, XDATA, add(CFA_XSP16, literal(-3)))
          CFI (cfiCond172) DPL0 load(1, XDATA, add(CFA_XSP16, literal(-2)))
          CFI (cfiCond172) DPH0 load(1, XDATA, add(CFA_XSP16, literal(-1)))
          CFI (cfiCond172) CFA_SP SP+-2
          CFI (cfiCond172) CFA_XSP16 add(XSP16, 98)
          CFI Block cfiPicker173 Using cfiCommon1
          CFI (cfiPicker173) NoFunction
          CFI (cfiPicker173) Picker
        MOV       A,R6
        ADD       A,#0x1c
          CFI EndBlock cfiCond171
          CFI EndBlock cfiCond172
          CFI EndBlock cfiPicker173
        REQUIRE ??Subroutine45_0
        ; // Fall through to label ??Subroutine45_0

        RSEG BANKED_CODE:HUGECODE:NOROOT(0)
??Subroutine45_0:
          CFI Block cfiCond174 Using cfiCommon0
          CFI Function zclGp_ManteinanceIndParse
          CFI Conditional ??CrossCallReturnLabel_100
          CFI R6 load(1, XDATA, add(CFA_XSP16, literal(-15)))
          CFI VB load(1, XDATA, add(CFA_XSP16, literal(-14)))
          CFI V0 load(1, XDATA, add(CFA_XSP16, literal(-13)))
          CFI V1 load(1, XDATA, add(CFA_XSP16, literal(-12)))
          CFI V2 load(1, XDATA, add(CFA_XSP16, literal(-11)))
          CFI V3 load(1, XDATA, add(CFA_XSP16, literal(-10)))
          CFI V4 load(1, XDATA, add(CFA_XSP16, literal(-9)))
          CFI V5 load(1, XDATA, add(CFA_XSP16, literal(-8)))
          CFI V6 load(1, XDATA, add(CFA_XSP16, literal(-7)))
          CFI R7 load(1, XDATA, add(CFA_XSP16, literal(-6)))
          CFI ?RET_LOW load(1, XDATA, add(CFA_XSP16, literal(-5)))
          CFI ?RET_HIGH load(1, XDATA, add(CFA_XSP16, literal(-4)))
          CFI ?BRET_EXT load(1, XDATA, add(CFA_XSP16, literal(-3)))
          CFI DPL0 load(1, XDATA, add(CFA_XSP16, literal(-2)))
          CFI DPH0 load(1, XDATA, add(CFA_XSP16, literal(-1)))
          CFI CFA_SP SP+-2
          CFI CFA_XSP16 add(XSP16, 82)
          CFI Block cfiCond175 Using cfiCommon0
          CFI (cfiCond175) Function zclGp_ManteinanceIndParse
          CFI (cfiCond175) Conditional ??CrossCallReturnLabel_101
          CFI (cfiCond175) R6 load(1, XDATA, add(CFA_XSP16, literal(-15)))
          CFI (cfiCond175) VB load(1, XDATA, add(CFA_XSP16, literal(-14)))
          CFI (cfiCond175) V0 load(1, XDATA, add(CFA_XSP16, literal(-13)))
          CFI (cfiCond175) V1 load(1, XDATA, add(CFA_XSP16, literal(-12)))
          CFI (cfiCond175) V2 load(1, XDATA, add(CFA_XSP16, literal(-11)))
          CFI (cfiCond175) V3 load(1, XDATA, add(CFA_XSP16, literal(-10)))
          CFI (cfiCond175) V4 load(1, XDATA, add(CFA_XSP16, literal(-9)))
          CFI (cfiCond175) V5 load(1, XDATA, add(CFA_XSP16, literal(-8)))
          CFI (cfiCond175) V6 load(1, XDATA, add(CFA_XSP16, literal(-7)))
          CFI (cfiCond175) R7 load(1, XDATA, add(CFA_XSP16, literal(-6)))
          CFI (cfiCond175) ?RET_LOW load(1, XDATA, add(CFA_XSP16, literal(-5)))
          CFI (cfiCond175) ?RET_HIGH load(1, XDATA, add(CFA_XSP16, literal(-4)))
          CFI (cfiCond175) ?BRET_EXT load(1, XDATA, add(CFA_XSP16, literal(-3)))
          CFI (cfiCond175) DPL0 load(1, XDATA, add(CFA_XSP16, literal(-2)))
          CFI (cfiCond175) DPH0 load(1, XDATA, add(CFA_XSP16, literal(-1)))
          CFI (cfiCond175) CFA_SP SP+-2
          CFI (cfiCond175) CFA_XSP16 add(XSP16, 82)
          CFI Block cfiCond176 Using cfiCommon0
          CFI (cfiCond176) Function zclGp_ManteinanceIndParse
          CFI (cfiCond176) Conditional ??CrossCallReturnLabel_102
          CFI (cfiCond176) R6 load(1, XDATA, add(CFA_XSP16, literal(-15)))
          CFI (cfiCond176) VB load(1, XDATA, add(CFA_XSP16, literal(-14)))
          CFI (cfiCond176) V0 load(1, XDATA, add(CFA_XSP16, literal(-13)))
          CFI (cfiCond176) V1 load(1, XDATA, add(CFA_XSP16, literal(-12)))
          CFI (cfiCond176) V2 load(1, XDATA, add(CFA_XSP16, literal(-11)))
          CFI (cfiCond176) V3 load(1, XDATA, add(CFA_XSP16, literal(-10)))
          CFI (cfiCond176) V4 load(1, XDATA, add(CFA_XSP16, literal(-9)))
          CFI (cfiCond176) V5 load(1, XDATA, add(CFA_XSP16, literal(-8)))
          CFI (cfiCond176) V6 load(1, XDATA, add(CFA_XSP16, literal(-7)))
          CFI (cfiCond176) R7 load(1, XDATA, add(CFA_XSP16, literal(-6)))
          CFI (cfiCond176) ?RET_LOW load(1, XDATA, add(CFA_XSP16, literal(-5)))
          CFI (cfiCond176) ?RET_HIGH load(1, XDATA, add(CFA_XSP16, literal(-4)))
          CFI (cfiCond176) ?BRET_EXT load(1, XDATA, add(CFA_XSP16, literal(-3)))
          CFI (cfiCond176) DPL0 load(1, XDATA, add(CFA_XSP16, literal(-2)))
          CFI (cfiCond176) DPH0 load(1, XDATA, add(CFA_XSP16, literal(-1)))
          CFI (cfiCond176) CFA_SP SP+-2
          CFI (cfiCond176) CFA_XSP16 add(XSP16, 82)
          CFI Block cfiCond177 Using cfiCommon0
          CFI (cfiCond177) Function zclGp_ManteinanceIndParse
          CFI (cfiCond177) Conditional ??CrossCallReturnLabel_103
          CFI (cfiCond177) R6 load(1, XDATA, add(CFA_XSP16, literal(-15)))
          CFI (cfiCond177) VB load(1, XDATA, add(CFA_XSP16, literal(-14)))
          CFI (cfiCond177) V0 load(1, XDATA, add(CFA_XSP16, literal(-13)))
          CFI (cfiCond177) V1 load(1, XDATA, add(CFA_XSP16, literal(-12)))
          CFI (cfiCond177) V2 load(1, XDATA, add(CFA_XSP16, literal(-11)))
          CFI (cfiCond177) V3 load(1, XDATA, add(CFA_XSP16, literal(-10)))
          CFI (cfiCond177) V4 load(1, XDATA, add(CFA_XSP16, literal(-9)))
          CFI (cfiCond177) V5 load(1, XDATA, add(CFA_XSP16, literal(-8)))
          CFI (cfiCond177) V6 load(1, XDATA, add(CFA_XSP16, literal(-7)))
          CFI (cfiCond177) R7 load(1, XDATA, add(CFA_XSP16, literal(-6)))
          CFI (cfiCond177) ?RET_LOW load(1, XDATA, add(CFA_XSP16, literal(-5)))
          CFI (cfiCond177) ?RET_HIGH load(1, XDATA, add(CFA_XSP16, literal(-4)))
          CFI (cfiCond177) ?BRET_EXT load(1, XDATA, add(CFA_XSP16, literal(-3)))
          CFI (cfiCond177) DPL0 load(1, XDATA, add(CFA_XSP16, literal(-2)))
          CFI (cfiCond177) DPH0 load(1, XDATA, add(CFA_XSP16, literal(-1)))
          CFI (cfiCond177) CFA_SP SP+-2
          CFI (cfiCond177) CFA_XSP16 add(XSP16, 82)
          CFI Block cfiCond178 Using cfiCommon0
          CFI (cfiCond178) Function zclGp_ManteinanceIndParse
          CFI (cfiCond178) Conditional ??CrossCallReturnLabel_104
          CFI (cfiCond178) R6 load(1, XDATA, add(CFA_XSP16, literal(-15)))
          CFI (cfiCond178) VB load(1, XDATA, add(CFA_XSP16, literal(-14)))
          CFI (cfiCond178) V0 load(1, XDATA, add(CFA_XSP16, literal(-13)))
          CFI (cfiCond178) V1 load(1, XDATA, add(CFA_XSP16, literal(-12)))
          CFI (cfiCond178) V2 load(1, XDATA, add(CFA_XSP16, literal(-11)))
          CFI (cfiCond178) V3 load(1, XDATA, add(CFA_XSP16, literal(-10)))
          CFI (cfiCond178) V4 load(1, XDATA, add(CFA_XSP16, literal(-9)))
          CFI (cfiCond178) V5 load(1, XDATA, add(CFA_XSP16, literal(-8)))
          CFI (cfiCond178) V6 load(1, XDATA, add(CFA_XSP16, literal(-7)))
          CFI (cfiCond178) R7 load(1, XDATA, add(CFA_XSP16, literal(-6)))
          CFI (cfiCond178) ?RET_LOW load(1, XDATA, add(CFA_XSP16, literal(-5)))
          CFI (cfiCond178) ?RET_HIGH load(1, XDATA, add(CFA_XSP16, literal(-4)))
          CFI (cfiCond178) ?BRET_EXT load(1, XDATA, add(CFA_XSP16, literal(-3)))
          CFI (cfiCond178) DPL0 load(1, XDATA, add(CFA_XSP16, literal(-2)))
          CFI (cfiCond178) DPH0 load(1, XDATA, add(CFA_XSP16, literal(-1)))
          CFI (cfiCond178) CFA_SP SP+-2
          CFI (cfiCond178) CFA_XSP16 add(XSP16, 82)
          CFI Block cfiCond179 Using cfiCommon0
          CFI (cfiCond179) Function gp_ZclPairingParse
          CFI (cfiCond179) Conditional ??CrossCallReturnLabel_105
          CFI (cfiCond179) R6 load(1, XDATA, add(CFA_XSP16, literal(-20)))
          CFI (cfiCond179) VB load(1, XDATA, add(CFA_XSP16, literal(-19)))
          CFI (cfiCond179) V0 load(1, XDATA, add(CFA_XSP16, literal(-18)))
          CFI (cfiCond179) V1 load(1, XDATA, add(CFA_XSP16, literal(-17)))
          CFI (cfiCond179) V2 load(1, XDATA, add(CFA_XSP16, literal(-16)))
          CFI (cfiCond179) V3 load(1, XDATA, add(CFA_XSP16, literal(-15)))
          CFI (cfiCond179) V4 load(1, XDATA, add(CFA_XSP16, literal(-14)))
          CFI (cfiCond179) V5 load(1, XDATA, add(CFA_XSP16, literal(-13)))
          CFI (cfiCond179) V6 load(1, XDATA, add(CFA_XSP16, literal(-12)))
          CFI (cfiCond179) V7 load(1, XDATA, add(CFA_XSP16, literal(-11)))
          CFI (cfiCond179) V8 load(1, XDATA, add(CFA_XSP16, literal(-10)))
          CFI (cfiCond179) V9 load(1, XDATA, add(CFA_XSP16, literal(-9)))
          CFI (cfiCond179) V10 load(1, XDATA, add(CFA_XSP16, literal(-8)))
          CFI (cfiCond179) V11 load(1, XDATA, add(CFA_XSP16, literal(-7)))
          CFI (cfiCond179) R7 load(1, XDATA, add(CFA_XSP16, literal(-6)))
          CFI (cfiCond179) ?RET_LOW load(1, XDATA, add(CFA_XSP16, literal(-5)))
          CFI (cfiCond179) ?RET_HIGH load(1, XDATA, add(CFA_XSP16, literal(-4)))
          CFI (cfiCond179) ?BRET_EXT load(1, XDATA, add(CFA_XSP16, literal(-3)))
          CFI (cfiCond179) DPL0 load(1, XDATA, add(CFA_XSP16, literal(-2)))
          CFI (cfiCond179) DPH0 load(1, XDATA, add(CFA_XSP16, literal(-1)))
          CFI (cfiCond179) CFA_SP SP+-2
          CFI (cfiCond179) CFA_XSP16 add(XSP16, 85)
          CFI Block cfiCond180 Using cfiCommon0
          CFI (cfiCond180) Function gp_SecurityOperationProxy
          CFI (cfiCond180) Conditional ??CrossCallReturnLabel_106
          CFI (cfiCond180) R6 load(1, XDATA, add(CFA_XSP16, literal(-22)))
          CFI (cfiCond180) VB load(1, XDATA, add(CFA_XSP16, literal(-21)))
          CFI (cfiCond180) V0 load(1, XDATA, add(CFA_XSP16, literal(-20)))
          CFI (cfiCond180) V1 load(1, XDATA, add(CFA_XSP16, literal(-19)))
          CFI (cfiCond180) V2 load(1, XDATA, add(CFA_XSP16, literal(-18)))
          CFI (cfiCond180) V3 load(1, XDATA, add(CFA_XSP16, literal(-17)))
          CFI (cfiCond180) V4 load(1, XDATA, add(CFA_XSP16, literal(-16)))
          CFI (cfiCond180) V5 load(1, XDATA, add(CFA_XSP16, literal(-15)))
          CFI (cfiCond180) V6 load(1, XDATA, add(CFA_XSP16, literal(-14)))
          CFI (cfiCond180) V7 load(1, XDATA, add(CFA_XSP16, literal(-13)))
          CFI (cfiCond180) V8 load(1, XDATA, add(CFA_XSP16, literal(-12)))
          CFI (cfiCond180) V9 load(1, XDATA, add(CFA_XSP16, literal(-11)))
          CFI (cfiCond180) V10 load(1, XDATA, add(CFA_XSP16, literal(-10)))
          CFI (cfiCond180) V11 load(1, XDATA, add(CFA_XSP16, literal(-9)))
          CFI (cfiCond180) V12 load(1, XDATA, add(CFA_XSP16, literal(-8)))
          CFI (cfiCond180) V13 load(1, XDATA, add(CFA_XSP16, literal(-7)))
          CFI (cfiCond180) R7 load(1, XDATA, add(CFA_XSP16, literal(-6)))
          CFI (cfiCond180) ?RET_LOW load(1, XDATA, add(CFA_XSP16, literal(-5)))
          CFI (cfiCond180) ?RET_HIGH load(1, XDATA, add(CFA_XSP16, literal(-4)))
          CFI (cfiCond180) ?BRET_EXT load(1, XDATA, add(CFA_XSP16, literal(-3)))
          CFI (cfiCond180) DPL0 load(1, XDATA, add(CFA_XSP16, literal(-2)))
          CFI (cfiCond180) DPH0 load(1, XDATA, add(CFA_XSP16, literal(-1)))
          CFI (cfiCond180) CFA_SP SP+-2
          CFI (cfiCond180) CFA_XSP16 add(XSP16, 98)
          CFI Block cfiCond181 Using cfiCommon0
          CFI (cfiCond181) Function GP_DataInd
          CFI (cfiCond181) Conditional ??CrossCallReturnLabel_107
          CFI (cfiCond181) R6 load(1, XDATA, add(CFA_XSP16, literal(-16)))
          CFI (cfiCond181) VB load(1, XDATA, add(CFA_XSP16, literal(-15)))
          CFI (cfiCond181) V0 load(1, XDATA, add(CFA_XSP16, literal(-14)))
          CFI (cfiCond181) V1 load(1, XDATA, add(CFA_XSP16, literal(-13)))
          CFI (cfiCond181) V2 load(1, XDATA, add(CFA_XSP16, literal(-12)))
          CFI (cfiCond181) V3 load(1, XDATA, add(CFA_XSP16, literal(-11)))
          CFI (cfiCond181) V4 load(1, XDATA, add(CFA_XSP16, literal(-10)))
          CFI (cfiCond181) V5 load(1, XDATA, add(CFA_XSP16, literal(-9)))
          CFI (cfiCond181) V6 load(1, XDATA, add(CFA_XSP16, literal(-8)))
          CFI (cfiCond181) V7 load(1, XDATA, add(CFA_XSP16, literal(-7)))
          CFI (cfiCond181) R7 load(1, XDATA, add(CFA_XSP16, literal(-6)))
          CFI (cfiCond181) ?RET_LOW load(1, XDATA, add(CFA_XSP16, literal(-5)))
          CFI (cfiCond181) ?RET_HIGH load(1, XDATA, add(CFA_XSP16, literal(-4)))
          CFI (cfiCond181) ?BRET_EXT load(1, XDATA, add(CFA_XSP16, literal(-3)))
          CFI (cfiCond181) DPL0 load(1, XDATA, add(CFA_XSP16, literal(-2)))
          CFI (cfiCond181) DPH0 load(1, XDATA, add(CFA_XSP16, literal(-1)))
          CFI (cfiCond181) CFA_SP SP+-2
          CFI (cfiCond181) CFA_XSP16 add(XSP16, 148)
          CFI Block cfiCond182 Using cfiCommon0
          CFI (cfiCond182) Function GP_DataInd
          CFI (cfiCond182) Conditional ??CrossCallReturnLabel_108
          CFI (cfiCond182) R6 load(1, XDATA, add(CFA_XSP16, literal(-16)))
          CFI (cfiCond182) VB load(1, XDATA, add(CFA_XSP16, literal(-15)))
          CFI (cfiCond182) V0 load(1, XDATA, add(CFA_XSP16, literal(-14)))
          CFI (cfiCond182) V1 load(1, XDATA, add(CFA_XSP16, literal(-13)))
          CFI (cfiCond182) V2 load(1, XDATA, add(CFA_XSP16, literal(-12)))
          CFI (cfiCond182) V3 load(1, XDATA, add(CFA_XSP16, literal(-11)))
          CFI (cfiCond182) V4 load(1, XDATA, add(CFA_XSP16, literal(-10)))
          CFI (cfiCond182) V5 load(1, XDATA, add(CFA_XSP16, literal(-9)))
          CFI (cfiCond182) V6 load(1, XDATA, add(CFA_XSP16, literal(-8)))
          CFI (cfiCond182) V7 load(1, XDATA, add(CFA_XSP16, literal(-7)))
          CFI (cfiCond182) R7 load(1, XDATA, add(CFA_XSP16, literal(-6)))
          CFI (cfiCond182) ?RET_LOW load(1, XDATA, add(CFA_XSP16, literal(-5)))
          CFI (cfiCond182) ?RET_HIGH load(1, XDATA, add(CFA_XSP16, literal(-4)))
          CFI (cfiCond182) ?BRET_EXT load(1, XDATA, add(CFA_XSP16, literal(-3)))
          CFI (cfiCond182) DPL0 load(1, XDATA, add(CFA_XSP16, literal(-2)))
          CFI (cfiCond182) DPH0 load(1, XDATA, add(CFA_XSP16, literal(-1)))
          CFI (cfiCond182) CFA_SP SP+-2
          CFI (cfiCond182) CFA_XSP16 add(XSP16, 148)
          CFI Block cfiCond183 Using cfiCommon0
          CFI (cfiCond183) Function zclGp_ManteinanceIndParse
          CFI (cfiCond183) Conditional ??CrossCallReturnLabel_109
          CFI (cfiCond183) R6 load(1, XDATA, add(CFA_XSP16, literal(-15)))
          CFI (cfiCond183) VB load(1, XDATA, add(CFA_XSP16, literal(-14)))
          CFI (cfiCond183) V0 load(1, XDATA, add(CFA_XSP16, literal(-13)))
          CFI (cfiCond183) V1 load(1, XDATA, add(CFA_XSP16, literal(-12)))
          CFI (cfiCond183) V2 load(1, XDATA, add(CFA_XSP16, literal(-11)))
          CFI (cfiCond183) V3 load(1, XDATA, add(CFA_XSP16, literal(-10)))
          CFI (cfiCond183) V4 load(1, XDATA, add(CFA_XSP16, literal(-9)))
          CFI (cfiCond183) V5 load(1, XDATA, add(CFA_XSP16, literal(-8)))
          CFI (cfiCond183) V6 load(1, XDATA, add(CFA_XSP16, literal(-7)))
          CFI (cfiCond183) R7 load(1, XDATA, add(CFA_XSP16, literal(-6)))
          CFI (cfiCond183) ?RET_LOW load(1, XDATA, add(CFA_XSP16, literal(-5)))
          CFI (cfiCond183) ?RET_HIGH load(1, XDATA, add(CFA_XSP16, literal(-4)))
          CFI (cfiCond183) ?BRET_EXT load(1, XDATA, add(CFA_XSP16, literal(-3)))
          CFI (cfiCond183) DPL0 load(1, XDATA, add(CFA_XSP16, literal(-2)))
          CFI (cfiCond183) DPH0 load(1, XDATA, add(CFA_XSP16, literal(-1)))
          CFI (cfiCond183) CFA_SP SP+-2
          CFI (cfiCond183) CFA_XSP16 add(XSP16, 82)
          CFI Block cfiCond184 Using cfiCommon0
          CFI (cfiCond184) Function gp_SecurityOperationProxy
          CFI (cfiCond184) Conditional ??CrossCallReturnLabel_110
          CFI (cfiCond184) R6 load(1, XDATA, add(CFA_XSP16, literal(-22)))
          CFI (cfiCond184) VB load(1, XDATA, add(CFA_XSP16, literal(-21)))
          CFI (cfiCond184) V0 load(1, XDATA, add(CFA_XSP16, literal(-20)))
          CFI (cfiCond184) V1 load(1, XDATA, add(CFA_XSP16, literal(-19)))
          CFI (cfiCond184) V2 load(1, XDATA, add(CFA_XSP16, literal(-18)))
          CFI (cfiCond184) V3 load(1, XDATA, add(CFA_XSP16, literal(-17)))
          CFI (cfiCond184) V4 load(1, XDATA, add(CFA_XSP16, literal(-16)))
          CFI (cfiCond184) V5 load(1, XDATA, add(CFA_XSP16, literal(-15)))
          CFI (cfiCond184) V6 load(1, XDATA, add(CFA_XSP16, literal(-14)))
          CFI (cfiCond184) V7 load(1, XDATA, add(CFA_XSP16, literal(-13)))
          CFI (cfiCond184) V8 load(1, XDATA, add(CFA_XSP16, literal(-12)))
          CFI (cfiCond184) V9 load(1, XDATA, add(CFA_XSP16, literal(-11)))
          CFI (cfiCond184) V10 load(1, XDATA, add(CFA_XSP16, literal(-10)))
          CFI (cfiCond184) V11 load(1, XDATA, add(CFA_XSP16, literal(-9)))
          CFI (cfiCond184) V12 load(1, XDATA, add(CFA_XSP16, literal(-8)))
          CFI (cfiCond184) V13 load(1, XDATA, add(CFA_XSP16, literal(-7)))
          CFI (cfiCond184) R7 load(1, XDATA, add(CFA_XSP16, literal(-6)))
          CFI (cfiCond184) ?RET_LOW load(1, XDATA, add(CFA_XSP16, literal(-5)))
          CFI (cfiCond184) ?RET_HIGH load(1, XDATA, add(CFA_XSP16, literal(-4)))
          CFI (cfiCond184) ?BRET_EXT load(1, XDATA, add(CFA_XSP16, literal(-3)))
          CFI (cfiCond184) DPL0 load(1, XDATA, add(CFA_XSP16, literal(-2)))
          CFI (cfiCond184) DPH0 load(1, XDATA, add(CFA_XSP16, literal(-1)))
          CFI (cfiCond184) CFA_SP SP+-2
          CFI (cfiCond184) CFA_XSP16 add(XSP16, 98)
          CFI Block cfiPicker185 Using cfiCommon1
          CFI (cfiPicker185) NoFunction
          CFI (cfiPicker185) Picker
        MOV       DPL,A
        CLR       A
        ADDC      A,R7
        MOV       DPH,A
        MOVX      A,@DPTR
        RET
          CFI EndBlock cfiCond174
          CFI EndBlock cfiCond175
          CFI EndBlock cfiCond176
          CFI EndBlock cfiCond177
          CFI EndBlock cfiCond178
          CFI EndBlock cfiCond179
          CFI EndBlock cfiCond180
          CFI EndBlock cfiCond181
          CFI EndBlock cfiCond182
          CFI EndBlock cfiCond183
          CFI EndBlock cfiCond184
          CFI EndBlock cfiPicker185
// 1613 
// 1614  /*********************************************************************
// 1615  * @fn          gp_u32CastPointer
// 1616  *
// 1617  * @brief       General function fill uint32 from pionter.
// 1618  *
// 1619  * @param       pBitField - pointer to the bit field.
// 1620  *              bit       - position of the bit to set in the given bitfield.
// 1621  *
// 1622  * @return      
// 1623  */
// 1624 static void gp_u32CastPointer( uint8 *data, uint8 *p )
// 1625 {
// 1626     *( uint32* )data |= ( ( *( uint32* ) p++ )       & 0x000000FF );
// 1627     *( uint32* )data |= ( ( *( uint32* ) p++ <<  8 ) & 0x0000FF00 );
// 1628     *( uint32* )data |= ( ( *( uint32* ) p++ << 16 ) & 0x00FF0000 );
// 1629     *( uint32* )data |= ( ( *( uint32* ) p++ << 24 ) & 0xFF000000 );
// 1630 }
// 1631 
// 1632  /*********************************************************************
// 1633  * @fn          gp_u16CastPointer
// 1634  *
// 1635  * @brief       General function fill uint16 from pionter.
// 1636  *
// 1637  * @param       pBitField - pointer to the bit field.
// 1638  *              bit       - position of the bit to set in the given bitfield.
// 1639  *
// 1640  * @return      
// 1641  */
// 1642 static void gp_u16CastPointer( uint8 *data, uint8 *p )
// 1643 {
// 1644     *( uint16* )data |= ( ( *( uint16* ) p++ )       & 0x00FF );
// 1645     *( uint16* )data |= ( ( *( uint16* ) p++ <<  8 ) & 0xFF00 );
// 1646 }
// 1647 
// 1648  /*********************************************************************
// 1649  * @fn          gp_u8CastPointer
// 1650  *
// 1651  * @brief       General function fill uint16 from pionter.
// 1652  *
// 1653  * @param       pBitField - pointer to the bit field.
// 1654  *              bit       - position of the bit to set in the given bitfield.
// 1655  *
// 1656  * @return      
// 1657  */
// 1658 static void gp_u8CastPointer( uint8 *data, uint8 *p )
// 1659 {
// 1660     *( uint8* )data |= ( ( *( uint8* ) p ) );
// 1661 }
// 1662 
// 1663  /*********************************************************************
// 1664  * @fn          gp_getProxyTableByIndex
// 1665  *
// 1666  * @brief       General function to get proxy table entry by NV index
// 1667  *
// 1668  * @param       nvIndex - NV Id of proxy table
// 1669  *              pEntry  - pointer to PROXY_TBL_ENTRY_LEN array
// 1670  *
// 1671  * @return      
// 1672  */

        RSEG BANKED_CODE:HUGECODE:NOROOT(0)
// 1673 uint8 gp_getProxyTableByIndex( uint16 nvIndex, uint8 *pEntry )
gp_getProxyTableByIndex:
          CFI Block cfiBlock186 Using cfiCommon0
          CFI Function gp_getProxyTableByIndex
        CODE
// 1674 {
        FUNCALL gp_getProxyTableByIndex, osal_nv_read
        LOCFRAME ISTACK, 0, STACK
        LOCFRAME PSTACK, 0, STACK
        LOCFRAME XSTACK, 20, STACK
        LOCFRAME IOVERLAY, 0, STATIC
        LOCFRAME DOVERLAY, 0, STATIC
        ARGFRAME ISTACK, 0, STACK
        ARGFRAME PSTACK, 0, STACK
        ARGFRAME XSTACK, 20, STACK
        ARGFRAME IOVERLAY, 0, STATIC
        ARGFRAME DOVERLAY, 0, STATIC
        FUNCALL gp_getProxyTableByIndex, osal_memcmp
        LOCFRAME ISTACK, 0, STACK
        LOCFRAME PSTACK, 0, STACK
        LOCFRAME XSTACK, 19, STACK
        LOCFRAME IOVERLAY, 0, STATIC
        LOCFRAME DOVERLAY, 0, STATIC
        ARGFRAME ISTACK, 0, STACK
        ARGFRAME PSTACK, 0, STACK
        ARGFRAME XSTACK, 19, STACK
        ARGFRAME IOVERLAY, 0, STATIC
        ARGFRAME DOVERLAY, 0, STATIC
        REQUIRE ?V0
        REQUIRE ?V1
        REQUIRE ?V2
        REQUIRE ?V4
        REQUIRE ?V5
        MOV       A,#-0xe
        LCALL     ?BANKED_ENTER_XDATA
          CFI DPH0 load(1, XDATA, add(CFA_XSP16, literal(-1)))
          CFI DPL0 load(1, XDATA, add(CFA_XSP16, literal(-2)))
          CFI ?BRET_EXT load(1, XDATA, add(CFA_XSP16, literal(-3)))
          CFI ?RET_HIGH load(1, XDATA, add(CFA_XSP16, literal(-4)))
          CFI ?RET_LOW load(1, XDATA, add(CFA_XSP16, literal(-5)))
          CFI R7 load(1, XDATA, add(CFA_XSP16, literal(-6)))
          CFI V5 load(1, XDATA, add(CFA_XSP16, literal(-7)))
          CFI V4 load(1, XDATA, add(CFA_XSP16, literal(-8)))
          CFI V3 load(1, XDATA, add(CFA_XSP16, literal(-9)))
          CFI V2 load(1, XDATA, add(CFA_XSP16, literal(-10)))
          CFI V1 load(1, XDATA, add(CFA_XSP16, literal(-11)))
          CFI V0 load(1, XDATA, add(CFA_XSP16, literal(-12)))
          CFI VB load(1, XDATA, add(CFA_XSP16, literal(-13)))
          CFI R6 load(1, XDATA, add(CFA_XSP16, literal(-14)))
          CFI CFA_SP SP+0
          CFI CFA_XSP16 add(XSP16, 14)
        ; Saved register size: 14
        ; Auto size: 2
        MOV       A,#-0x2
        LCALL     ?ALLOC_XSTACK8
          CFI CFA_XSP16 add(XSP16, 16)
        MOV       ?V4,R4
        MOV       ?V5,R5
// 1675   uint8 status;
// 1676   uint16 emptyEntry = 0xFFFF;
        MOV       DPL,?XSP + 0
        MOV       DPH,?XSP + 1
        MOV       A,#-0x1
        MOVX      @DPTR,A
        INC       DPTR
        MOVX      @DPTR,A
// 1677   
// 1678   
// 1679   if ( ( nvIndex < ZCD_NV_PROXY_TABLE_START ) || ( nvIndex > ZCD_NV_PROXY_TABLE_END ) )
        MOV       A,R2
        ADD       A,#-0x10
        MOV       R0,A
        MOV       A,R3
        ADDC      A,#-0x4
        MOV       R1,A
        CLR       C
        MOV       A,R0
        SUBB      A,#0x30
        MOV       A,R1
        SUBB      A,#0x0
        JC        ??gp_getProxyTableByIndex_0
// 1680   {
// 1681     return NV_OPER_FAILED;
        MOV       R1,#0xa
        SJMP      ??gp_getProxyTableByIndex_1
// 1682   }
// 1683   
// 1684   status = osal_nv_read( nvIndex, 0,
// 1685                           PROXY_TBL_ENTRY_LEN, pEntry );
??gp_getProxyTableByIndex_0:
        ; Setup parameters for call to function osal_nv_read
        MOV       R0,#?V4
        LCALL     ?PUSH_XSTACK_I_TWO
          CFI CFA_XSP16 add(XSP16, 18)
        MOV       ?V0,#0x41
        MOV       ?V1,#0x0
        MOV       R0,#?V0
        LCALL     ?PUSH_XSTACK_I_TWO
          CFI CFA_XSP16 add(XSP16, 20)
        MOV       R4,#0x0
        MOV       R5,#0x0
        LCALL     `??osal_nv_read::?relay`; Banked call to: osal_nv_read
        MOV       A,#0x4
        LCALL     ?DEALLOC_XSTACK8
          CFI CFA_XSP16 add(XSP16, 16)
        MOV       A,R1
        MOV       R6,A
// 1686   
// 1687   if ( status != SUCCESS )
        JNZ       ??gp_getProxyTableByIndex_2
// 1688   {
// 1689     // Return the failure status of NV read procedure
// 1690     return status;
// 1691   }
// 1692     
// 1693       
// 1694   // if the entry is empty
// 1695   if ( osal_memcmp( pEntry, &emptyEntry, sizeof ( uint16 ) ) )
        ; Setup parameters for call to function osal_memcmp
        MOV       R0,?XSP + 0
        MOV       R1,?XSP + 1
        MOV       ?V0,R0
        MOV       ?V1,R1
        MOV       ?V2,#0x0
        MOV       R0,#?V0
        LCALL     ?PUSH_XSTACK_I_THREE
          CFI CFA_XSP16 add(XSP16, 19)
        MOV       R4,#0x2
        MOV       R5,#0x0
        MOV       DPL,?V4
        MOV       DPH,?V5
        MOV       R1,DPL
        MOV       R2,DPH
        MOV       R3,#0x0
        LCALL     `??osal_memcmp::?relay`; Banked call to: osal_memcmp
        MOV       A,#0x3
        LCALL     ?DEALLOC_XSTACK8
          CFI CFA_XSP16 add(XSP16, 16)
        MOV       A,R1
        JZ        ??gp_getProxyTableByIndex_2
// 1696   {
// 1697     return NV_INVALID_DATA;
        MOV       R1,#0xd
        SJMP      ??gp_getProxyTableByIndex_1
// 1698   }
// 1699   
// 1700   return status;
??gp_getProxyTableByIndex_2:
        MOV       A,R6
        MOV       R1,A
??gp_getProxyTableByIndex_1:
        MOV       A,#0x2
        LCALL     ?DEALLOC_XSTACK8
          CFI CFA_XSP16 add(XSP16, 14)
        LJMP      ?Subroutine3 & 0xFFFF
// 1701 }
          CFI EndBlock cfiBlock186
// 1702 
// 1703 /*********************************************************************
// 1704  * @fn          GP_DataInd
// 1705  *
// 1706  * @brief       This passes the MCPS data indications received in MAC to the application
// 1707  *
// 1708  * @param       gp_DataInd
// 1709  *
// 1710  * @return      FreeMsg - TRUE if the message will be released, False if it will 
// 1711  *                        be keeped for duplicate filtering
// 1712  */

        RSEG BANKED_CODE:HUGECODE:NOROOT(0)
// 1713 uint8 GP_DataInd(gp_DataInd_t *gp_DataInd)
GP_DataInd:
          CFI Block cfiBlock187 Using cfiCommon0
          CFI Function GP_DataInd
        CODE
// 1714 {
        FUNCALL GP_DataInd, gp_DataIndAppendToList
        LOCFRAME ISTACK, 0, STACK
        LOCFRAME PSTACK, 0, STACK
        LOCFRAME XSTACK, 148, STACK
        LOCFRAME IOVERLAY, 0, STATIC
        LOCFRAME DOVERLAY, 0, STATIC
        ARGFRAME ISTACK, 0, STACK
        ARGFRAME PSTACK, 0, STACK
        ARGFRAME XSTACK, 148, STACK
        ARGFRAME IOVERLAY, 0, STATIC
        ARGFRAME DOVERLAY, 0, STATIC
        FUNCALL GP_DataInd, osal_get_timeoutEx
        LOCFRAME ISTACK, 0, STACK
        LOCFRAME PSTACK, 0, STACK
        LOCFRAME XSTACK, 148, STACK
        LOCFRAME IOVERLAY, 0, STATIC
        LOCFRAME DOVERLAY, 0, STATIC
        ARGFRAME ISTACK, 0, STACK
        ARGFRAME PSTACK, 0, STACK
        ARGFRAME XSTACK, 148, STACK
        ARGFRAME IOVERLAY, 0, STATIC
        ARGFRAME DOVERLAY, 0, STATIC
        FUNCALL GP_DataInd, osal_start_timerEx
        LOCFRAME ISTACK, 0, STACK
        LOCFRAME PSTACK, 0, STACK
        LOCFRAME XSTACK, 152, STACK
        LOCFRAME IOVERLAY, 0, STATIC
        LOCFRAME DOVERLAY, 0, STATIC
        ARGFRAME ISTACK, 0, STACK
        ARGFRAME PSTACK, 0, STACK
        ARGFRAME XSTACK, 152, STACK
        ARGFRAME IOVERLAY, 0, STATIC
        ARGFRAME DOVERLAY, 0, STATIC
        FUNCALL GP_DataInd, osal_memcpy
        LOCFRAME ISTACK, 0, STACK
        LOCFRAME PSTACK, 0, STACK
        LOCFRAME XSTACK, 151, STACK
        LOCFRAME IOVERLAY, 0, STATIC
        LOCFRAME DOVERLAY, 0, STATIC
        ARGFRAME ISTACK, 0, STACK
        ARGFRAME PSTACK, 0, STACK
        ARGFRAME XSTACK, 151, STACK
        ARGFRAME IOVERLAY, 0, STATIC
        ARGFRAME DOVERLAY, 0, STATIC
        FUNCALL GP_DataInd, gp_getProxyTableByGpId
        LOCFRAME ISTACK, 0, STACK
        LOCFRAME PSTACK, 0, STACK
        LOCFRAME XSTACK, 150, STACK
        LOCFRAME IOVERLAY, 0, STATIC
        LOCFRAME DOVERLAY, 0, STATIC
        ARGFRAME ISTACK, 0, STACK
        ARGFRAME PSTACK, 0, STACK
        ARGFRAME XSTACK, 150, STACK
        ARGFRAME IOVERLAY, 0, STATIC
        ARGFRAME DOVERLAY, 0, STATIC
        FUNCALL GP_DataInd, osal_nv_write
        LOCFRAME ISTACK, 0, STACK
        LOCFRAME PSTACK, 0, STACK
        LOCFRAME XSTACK, 152, STACK
        LOCFRAME IOVERLAY, 0, STATIC
        LOCFRAME DOVERLAY, 0, STATIC
        ARGFRAME ISTACK, 0, STACK
        ARGFRAME PSTACK, 0, STACK
        ARGFRAME XSTACK, 152, STACK
        ARGFRAME IOVERLAY, 0, STATIC
        ARGFRAME DOVERLAY, 0, STATIC
        FUNCALL GP_DataInd, osal_start_timerEx
        LOCFRAME ISTACK, 0, STACK
        LOCFRAME PSTACK, 0, STACK
        LOCFRAME XSTACK, 152, STACK
        LOCFRAME IOVERLAY, 0, STATIC
        LOCFRAME DOVERLAY, 0, STATIC
        ARGFRAME ISTACK, 0, STACK
        ARGFRAME PSTACK, 0, STACK
        ARGFRAME XSTACK, 152, STACK
        ARGFRAME IOVERLAY, 0, STATIC
        ARGFRAME DOVERLAY, 0, STATIC
        FUNCALL GP_DataInd, osal_memset
        LOCFRAME ISTACK, 0, STACK
        LOCFRAME PSTACK, 0, STACK
        LOCFRAME XSTACK, 148, STACK
        LOCFRAME IOVERLAY, 0, STATIC
        LOCFRAME DOVERLAY, 0, STATIC
        ARGFRAME ISTACK, 0, STACK
        ARGFRAME PSTACK, 0, STACK
        ARGFRAME XSTACK, 148, STACK
        ARGFRAME IOVERLAY, 0, STATIC
        ARGFRAME DOVERLAY, 0, STATIC
        FUNCALL GP_DataInd, zclGp_ManteinanceIndParse
        LOCFRAME ISTACK, 0, STACK
        LOCFRAME PSTACK, 0, STACK
        LOCFRAME XSTACK, 148, STACK
        LOCFRAME IOVERLAY, 0, STATIC
        LOCFRAME DOVERLAY, 0, STATIC
        ARGFRAME ISTACK, 0, STACK
        ARGFRAME PSTACK, 0, STACK
        ARGFRAME XSTACK, 148, STACK
        ARGFRAME IOVERLAY, 0, STATIC
        ARGFRAME DOVERLAY, 0, STATIC
        FUNCALL GP_DataInd, zclGp_SendGpCommissioningNotificationCommand
        LOCFRAME ISTACK, 0, STACK
        LOCFRAME PSTACK, 0, STACK
        LOCFRAME XSTACK, 148, STACK
        LOCFRAME IOVERLAY, 0, STATIC
        LOCFRAME DOVERLAY, 0, STATIC
        ARGFRAME ISTACK, 0, STACK
        ARGFRAME PSTACK, 0, STACK
        ARGFRAME XSTACK, 148, STACK
        ARGFRAME IOVERLAY, 0, STATIC
        ARGFRAME DOVERLAY, 0, STATIC
        FUNCALL GP_DataInd, osal_memset
        LOCFRAME ISTACK, 0, STACK
        LOCFRAME PSTACK, 0, STACK
        LOCFRAME XSTACK, 148, STACK
        LOCFRAME IOVERLAY, 0, STATIC
        LOCFRAME DOVERLAY, 0, STATIC
        ARGFRAME ISTACK, 0, STACK
        ARGFRAME PSTACK, 0, STACK
        ARGFRAME XSTACK, 148, STACK
        ARGFRAME IOVERLAY, 0, STATIC
        ARGFRAME DOVERLAY, 0, STATIC
        FUNCALL GP_DataInd, zclGp_DataIndParse
        LOCFRAME ISTACK, 0, STACK
        LOCFRAME PSTACK, 0, STACK
        LOCFRAME XSTACK, 148, STACK
        LOCFRAME IOVERLAY, 0, STATIC
        LOCFRAME DOVERLAY, 0, STATIC
        ARGFRAME ISTACK, 0, STACK
        ARGFRAME PSTACK, 0, STACK
        ARGFRAME XSTACK, 148, STACK
        ARGFRAME IOVERLAY, 0, STATIC
        ARGFRAME DOVERLAY, 0, STATIC
        FUNCALL GP_DataInd, zclGp_SendGpNotificationCommand
        LOCFRAME ISTACK, 0, STACK
        LOCFRAME PSTACK, 0, STACK
        LOCFRAME XSTACK, 148, STACK
        LOCFRAME IOVERLAY, 0, STATIC
        LOCFRAME DOVERLAY, 0, STATIC
        ARGFRAME ISTACK, 0, STACK
        ARGFRAME PSTACK, 0, STACK
        ARGFRAME XSTACK, 148, STACK
        ARGFRAME IOVERLAY, 0, STATIC
        ARGFRAME DOVERLAY, 0, STATIC
        REQUIRE ?V0
        REQUIRE ?V1
        REQUIRE ?V2
        REQUIRE ?V4
        REQUIRE ?V5
        REQUIRE ?V6
        REQUIRE ?V7
        MOV       A,#-0x10
        LCALL     ?BANKED_ENTER_XDATA
          CFI DPH0 load(1, XDATA, add(CFA_XSP16, literal(-1)))
          CFI DPL0 load(1, XDATA, add(CFA_XSP16, literal(-2)))
          CFI ?BRET_EXT load(1, XDATA, add(CFA_XSP16, literal(-3)))
          CFI ?RET_HIGH load(1, XDATA, add(CFA_XSP16, literal(-4)))
          CFI ?RET_LOW load(1, XDATA, add(CFA_XSP16, literal(-5)))
          CFI R7 load(1, XDATA, add(CFA_XSP16, literal(-6)))
          CFI V7 load(1, XDATA, add(CFA_XSP16, literal(-7)))
          CFI V6 load(1, XDATA, add(CFA_XSP16, literal(-8)))
          CFI V5 load(1, XDATA, add(CFA_XSP16, literal(-9)))
          CFI V4 load(1, XDATA, add(CFA_XSP16, literal(-10)))
          CFI V3 load(1, XDATA, add(CFA_XSP16, literal(-11)))
          CFI V2 load(1, XDATA, add(CFA_XSP16, literal(-12)))
          CFI V1 load(1, XDATA, add(CFA_XSP16, literal(-13)))
          CFI V0 load(1, XDATA, add(CFA_XSP16, literal(-14)))
          CFI VB load(1, XDATA, add(CFA_XSP16, literal(-15)))
          CFI R6 load(1, XDATA, add(CFA_XSP16, literal(-16)))
          CFI CFA_SP SP+0
          CFI CFA_XSP16 add(XSP16, 16)
        ; Saved register size: 16
        ; Auto size: 132
        MOV       A,#0x7c
        LCALL     ?ALLOC_XSTACK8
          CFI CFA_XSP16 add(XSP16, 148)
        MOV       A,R2
        MOV       R6,A
        MOV       A,R3
        MOV       R7,A
// 1715   uint32   timeout;
// 1716   uint8    freeMsg = FALSE;
// 1717   gpd_ID_t gpd_ID;
// 1718   uint8    ProxyTableEntryTemp[PROXY_TBL_ENTRY_LEN];
// 1719   uint16   ProxyTableEntryIndex = 0;
        MOV       DPL,?XSP + 0
        MOV       DPH,?XSP + 1
        CLR       A
        MOVX      @DPTR,A
        INC       DPTR
        MOVX      @DPTR,A
// 1720   
// 1721   //If authentication/decryption fail, then drop the frame and stop processing
// 1722   //GP Basic proxy A.3.5.2.3
// 1723   if(gp_DataInd->status == GP_DATA_IND_STATUS_COUNTER_FAILURE ||
// 1724       gp_DataInd->status == GP_DATA_IND_STATUS_AUTH_FAILURE )
        MOV       A,R6
        ADD       A,#0xd
        LCALL     ??Subroutine45_0 & 0xFFFF
??CrossCallReturnLabel_107:
        MOV       R0,A
        MOV       A,#0x2
        XRL       A,R0
        JNZ       $+5
        LJMP      ??GP_DataInd_0 & 0xFFFF
        MOV       A,#0x3
        XRL       A,R0
        JNZ       $+5
        LJMP      ??GP_DataInd_0 & 0xFFFF
// 1725   {
// 1726     return freeMsg;
// 1727   }
// 1728 
// 1729   gp_DataIndAppendToList(gp_DataInd, &gp_DataIndList);
        ; Setup parameters for call to function gp_DataIndAppendToList
        MOV       R4,#gp_DataIndList & 0xff
        MOV       R5,#(gp_DataIndList >> 8) & 0xff
        LCALL     `??gp_DataIndAppendToList::?relay`; Banked call to: gp_DataIndAppendToList
// 1730   
// 1731   gp_DataInd->SecReqHandling.timeout = gpDuplicateTimeout;
        MOV       A,R6
        ADD       A,#0x5
        LCALL     ?Subroutine23 & 0xFFFF
??CrossCallReturnLabel_25:
        MOV       A,#-0x30
        MOVX      @DPTR,A
        INC       DPTR
        MOV       A,#0x7
        MOVX      @DPTR,A
        INC       DPTR
        CLR       A
        MOVX      @DPTR,A
        INC       DPTR
        MOVX      @DPTR,A
// 1732   //Consider the current time elapsed to the next timeout
// 1733   timeout = osal_get_timeoutEx(gp_TaskID,GP_DUPLICATE_FILTERING_TIMEOUT_EVENT);
        ; Setup parameters for call to function osal_get_timeoutEx
        MOV       R2,#0x2
        MOV       R3,A
        MOV       DPTR,#gp_TaskID
        MOVX      A,@DPTR
        MOV       R1,A
        LCALL     `??osal_get_timeoutEx::?relay`; Banked call to: osal_get_timeoutEx
        MOV       ?V4,R2
        MOV       ?V5,R3
        MOV       ?V6,R4
        MOV       ?V7,R5
// 1734   
// 1735   if(timeout)
        MOV       A,R2
        LCALL     ??Subroutine42_0 & 0xFFFF
??CrossCallReturnLabel_87:
        MOV       DPL,?V0
        MOV       DPH,?V1
        JZ        ??GP_DataInd_1
// 1736   {
// 1737     gp_DataInd->SecReqHandling.timeout += timeout;
        MOV       R0,#?V4
        LCALL     ?L_ADD_TO_X
        SJMP      ??GP_DataInd_2
// 1738   }  
// 1739   else
// 1740   {
// 1741     osal_start_timerEx(gp_TaskID,GP_DUPLICATE_FILTERING_TIMEOUT_EVENT,gp_DataInd->SecReqHandling.timeout);
??GP_DataInd_1:
        ; Setup parameters for call to function osal_start_timerEx
        LCALL     ?PUSH_XSTACK8_X_FOUR
          CFI CFA_XSP16 add(XSP16, 152)
        MOV       R2,#0x2
        MOV       R3,#0x0
        MOV       DPTR,#gp_TaskID
        MOVX      A,@DPTR
        MOV       R1,A
        LCALL     `??osal_start_timerEx::?relay`; Banked call to: osal_start_timerEx
        MOV       A,#0x4
        LCALL     ?DEALLOC_XSTACK8
          CFI CFA_XSP16 add(XSP16, 148)
// 1742   }  
// 1743 
// 1744   gpd_ID.AppID = gp_DataInd->appID;
??GP_DataInd_2:
        MOV       A,R6
        ADD       A,#0x1c
        MOV       R0,A
        CLR       A
        ADDC      A,R7
        MOV       R1,A
        MOV       DPL,R0
        MOV       DPH,R1
        MOVX      A,@DPTR
        PUSH      A
          CFI CFA_SP SP+-1
        MOV       A,#0x2
        LCALL     ?XSTACK_DISP0_8
        POP       A
          CFI CFA_SP SP+0
        MOVX      @DPTR,A
// 1745   if(gp_DataInd->appID == GP_OPT_APP_ID_IEEE)
        MOV       DPL,R0
        MOV       DPH,R1
        MOVX      A,@DPTR
        XRL       A,#0x2
        JNZ       ??GP_DataInd_3
// 1746   {
// 1747     osal_memcpy(gpd_ID.GPDId.GPDExtAddr, gp_DataInd->srcAddr.addr.extAddr, Z_EXTADDR_LEN);
        ; Setup parameters for call to function osal_memcpy
        MOV       A,R6
        ADD       A,#0x11
        MOV       ?V0,A
        CLR       A
        ADDC      A,R7
        MOV       ?V1,A
        MOV       ?V2,#0x0
        MOV       R0,#?V0
        LCALL     ?PUSH_XSTACK_I_THREE
          CFI CFA_XSP16 add(XSP16, 151)
        MOV       R4,#0x8
        MOV       R5,#0x0
        MOV       A,#0x6
        LCALL     ?XSTACK_DISP0_8
        MOV       R2,DPL
        MOV       R3,DPH
        LCALL     `??osal_memcpy::?relay`; Banked call to: osal_memcpy
        MOV       A,#0x3
        LCALL     ?DEALLOC_XSTACK8
          CFI CFA_XSP16 add(XSP16, 148)
        SJMP      ??GP_DataInd_4
// 1748   }
// 1749   else
// 1750   {
// 1751     gpd_ID.GPDId.SrcID = gp_DataInd->SrcId;
??GP_DataInd_3:
        LCALL     ?Subroutine25 & 0xFFFF
// 1752   }
??CrossCallReturnLabel_29:
        LCALL     ?XLOAD_R0123
        MOV       A,#0x3
        LCALL     ?XSTACK_DISP0_8
        LCALL     ?XSTORE_R0123
// 1753 
// 1754   if(gp_getProxyTableByGpId(&gpd_ID,ProxyTableEntryTemp,&ProxyTableEntryIndex) == ZSuccess)
??GP_DataInd_4:
        ; Setup parameters for call to function gp_getProxyTableByGpId
        MOV       R0,?XSP + 0
        MOV       R1,?XSP + 1
        MOV       ?V0,R0
        MOV       ?V1,R1
        MOV       R0,#?V0
        LCALL     ?PUSH_XSTACK_I_TWO
          CFI CFA_XSP16 add(XSP16, 150)
        MOV       A,#0x45
        LCALL     ?XSTACK_DISP102_8
        MOV       A,#0x4
        LCALL     ?XSTACK_DISP101_8
        LCALL     `??gp_getProxyTableByGpId::?relay`; Banked call to: gp_getProxyTableByGpId
        MOV       A,#0x2
        LCALL     ?DEALLOC_XSTACK8
          CFI CFA_XSP16 add(XSP16, 148)
        MOV       A,R1
        JNZ       ??GP_DataInd_5
// 1755   {
// 1756 
// 1757     //Update Sec Frame counter to proxy table  A.3.6.1.3
// 1758     osal_nv_write( ProxyTableEntryIndex, PROXY_TBL_ENTRY_SEC_FRAME,
// 1759                        sizeof(uint32), (uint8*) &gp_DataInd->GPDSecFrameCounter );
        ; Setup parameters for call to function osal_nv_write
        MOV       A,R6
        ADD       A,#0x26
        MOV       ?V0,A
        CLR       A
        ADDC      A,R7
        MOV       ?V1,A
        MOV       R0,#?V0
        LCALL     ?PUSH_XSTACK_I_TWO
          CFI CFA_XSP16 add(XSP16, 150)
        MOV       ?V0,#0x4
        MOV       ?V1,#0x0
        MOV       R0,#?V0
        LCALL     ?PUSH_XSTACK_I_TWO
          CFI CFA_XSP16 add(XSP16, 152)
        MOV       R4,#0xe
        MOV       R5,#0x0
        MOV       A,#0x4
        LCALL     ?XSTACK_DISP0_8
        LCALL     ??Subroutine41_0 & 0xFFFF
// 1760   }  
??CrossCallReturnLabel_83:
        LCALL     `??osal_nv_write::?relay`; Banked call to: osal_nv_write
        MOV       A,#0x4
        LCALL     ?DEALLOC_XSTACK8
          CFI CFA_XSP16 add(XSP16, 148)
// 1761 
// 1762   if ( zgGP_InCommissioningMode == TRUE )
??GP_DataInd_5:
        MOV       DPTR,#zgGP_InCommissioningMode
        MOVX      A,@DPTR
        XRL       A,#0x1
        JZ        $+5
        LJMP      ??GP_DataInd_6 & 0xFFFF
// 1763   {
// 1764     if(gp_DataInd->GPDCmmdID == GP_CHANNEL_REQ_COMMAND_ID)
        MOV       A,R6
        ADD       A,#0x2a
        LCALL     ?Subroutine23 & 0xFFFF
??CrossCallReturnLabel_26:
        MOVX      A,@DPTR
        XRL       A,#0xe3
        JNZ       ??GP_DataInd_7
// 1765     {
// 1766       if(pfnChangeChannelReqForBDB)
        MOV       DPTR,#pfnChangeChannelReqForBDB
        LCALL     ??Subroutine34_0 & 0xFFFF
??CrossCallReturnLabel_46:
        JZ        ??GP_DataInd_8
// 1767       {
// 1768         //Check if we got permission from BDB
// 1769         if(!pfnChangeChannelReqForBDB())
        ; Setup parameters for indirect call
        LCALL     ??Subroutine46_0 & 0xFFFF
// 1770         {
// 1771           //No permisssion
// 1772           return freeMsg;
// 1773         }
// 1774       }
??CrossCallReturnLabel_113:
        LCALL     ?CALL_IND
        MOV       A,R1
        JNZ       $+5
        LJMP      ??GP_DataInd_0 & 0xFFFF
// 1775       if(pfnChangeChannelReq)
??GP_DataInd_8:
        MOV       DPTR,#pfnChangeChannelReq
        LCALL     ??Subroutine34_0 & 0xFFFF
??CrossCallReturnLabel_47:
        JZ        ??GP_DataInd_9
// 1776       {
// 1777         //Check if we got permission from BDB
// 1778         if(!pfnChangeChannelReq())
        ; Setup parameters for indirect call
        LCALL     ??Subroutine46_0 & 0xFFFF
// 1779         {
// 1780           //No permisssion
// 1781           return freeMsg;
// 1782         }
// 1783       }
??CrossCallReturnLabel_114:
        LCALL     ?CALL_IND
        MOV       A,R1
        JZ        ??GP_DataInd_0
// 1784       
// 1785       osal_start_timerEx(gp_TaskID,GP_CHANNEL_CONFIGURATION_TIMEOUT,gpBirectionalCommissioningChangeChannelTimeout);
??GP_DataInd_9:
        ; Setup parameters for call to function osal_start_timerEx
        MOV       DPTR,#__Constant_1388
        LCALL     ?PUSH_XSTACK8_X_FOUR
          CFI CFA_XSP16 add(XSP16, 152)
        MOV       R2,#0x8
        MOV       R3,#0x0
        MOV       DPTR,#gp_TaskID
        MOVX      A,@DPTR
        MOV       R1,A
        LCALL     `??osal_start_timerEx::?relay`; Banked call to: osal_start_timerEx
        MOV       A,#0x4
        LCALL     ?DEALLOC_XSTACK8
          CFI CFA_XSP16 add(XSP16, 148)
// 1786     }
// 1787     GP_ProccessCommissioningNotification( gp_DataInd );
??GP_DataInd_7:
        MOV       DPL,?V0
        MOV       DPH,?V1
        MOVX      A,@DPTR
        MOV       R0,A
        MOV       A,#-0x20
        XRL       A,R0
        JZ        ??GP_DataInd_10
        MOV       A,#-0x1e
        XRL       A,R0
        JZ        ??GP_DataInd_10
        MOV       A,#-0x1d
        XRL       A,R0
        JNZ       ??GP_DataInd_0
??GP_DataInd_10:
        ; Setup parameters for call to function osal_memset
        MOV       R4,#0x1e
        MOV       R5,#0x0
        MOV       R1,#0x0
        MOV       A,#0x25
        LCALL     ?XSTACK_DISP101_8
        LCALL     `??osal_memset::?relay`; Banked call to: osal_memset
        ; Setup parameters for call to function zclGp_ManteinanceIndParse
        MOV       A,#0x25
        LCALL     ?XSTACK_DISP102_8
        MOV       A,R6
        MOV       R2,A
        MOV       A,R7
        MOV       R3,A
        LCALL     `??zclGp_ManteinanceIndParse::?relay`; Banked call to: zclGp_ManteinanceIndParse
        ; Setup parameters for call to function zclGp_SendGpCommissioningNotificationCommand
        MOV       A,#0x25
        LCALL     ?XSTACK_DISP101_8
        LCALL     `??zclGp_SendGpCommissioningNotificationCommand:`; Banked call to: zclGp_SendGpCommissioningNotificationCommand
        SJMP      ??GP_DataInd_0
// 1788   }
// 1789   else if ( ( zgGP_InCommissioningMode == FALSE ) )
??GP_DataInd_6:
        MOVX      A,@DPTR
        JNZ       ??GP_DataInd_0
// 1790   {
// 1791     GP_ProccessNotification( gp_DataInd );
        ; Setup parameters for call to function osal_memset
        MOV       R4,#0x1a
        MOV       R5,#0x0
        MOV       R1,#0x0
        MOV       A,#0xb
        LCALL     ?XSTACK_DISP101_8
        LCALL     `??osal_memset::?relay`; Banked call to: osal_memset
        ; Setup parameters for call to function zclGp_DataIndParse
        MOV       A,#0xb
        LCALL     ?XSTACK_DISP102_8
        MOV       A,R6
        MOV       R2,A
        MOV       A,R7
        MOV       R3,A
        LCALL     `??zclGp_DataIndParse::?relay`; Banked call to: zclGp_DataIndParse
        ; Setup parameters for call to function zclGp_SendGpNotificationCommand
        MOV       A,R6
        ADD       A,#0x10
        LCALL     ??Subroutine45_0 & 0xFFFF
??CrossCallReturnLabel_108:
        MOV       R1,A
        MOV       A,#0xb
        LCALL     ?XSTACK_DISP101_8
        LCALL     `??zclGp_SendGpNotificationCommand::?relay`; Banked call to: zclGp_SendGpNotificationCommand
// 1792   }
// 1793   
// 1794   return freeMsg;
??GP_DataInd_0:
        MOV       R1,#0x0
        MOV       A,#-0x7c
        LCALL     ?DEALLOC_XSTACK8
          CFI CFA_XSP16 add(XSP16, 16)
        MOV       R7,#0x8
        LJMP      ?BANKED_LEAVE_XDATA
// 1795 }
          CFI EndBlock cfiBlock187

        RSEG BANKED_CODE:HUGECODE:NOROOT(0)
?Subroutine23:
          CFI Block cfiCond188 Using cfiCommon0
          CFI Function zclGp_GpProxyCommissioningModeCB
          CFI Conditional ??CrossCallReturnLabel_24
          CFI R6 load(1, XDATA, add(CFA_XSP16, literal(-10)))
          CFI VB load(1, XDATA, add(CFA_XSP16, literal(-9)))
          CFI V0 load(1, XDATA, add(CFA_XSP16, literal(-8)))
          CFI V1 load(1, XDATA, add(CFA_XSP16, literal(-7)))
          CFI R7 load(1, XDATA, add(CFA_XSP16, literal(-6)))
          CFI ?RET_LOW load(1, XDATA, add(CFA_XSP16, literal(-5)))
          CFI ?RET_HIGH load(1, XDATA, add(CFA_XSP16, literal(-4)))
          CFI ?BRET_EXT load(1, XDATA, add(CFA_XSP16, literal(-3)))
          CFI DPL0 load(1, XDATA, add(CFA_XSP16, literal(-2)))
          CFI DPH0 load(1, XDATA, add(CFA_XSP16, literal(-1)))
          CFI CFA_SP SP+-2
          CFI CFA_XSP16 add(XSP16, 10)
          CFI Block cfiCond189 Using cfiCommon0
          CFI (cfiCond189) Function GP_DataInd
          CFI (cfiCond189) Conditional ??CrossCallReturnLabel_25
          CFI (cfiCond189) R6 load(1, XDATA, add(CFA_XSP16, literal(-16)))
          CFI (cfiCond189) VB load(1, XDATA, add(CFA_XSP16, literal(-15)))
          CFI (cfiCond189) V0 load(1, XDATA, add(CFA_XSP16, literal(-14)))
          CFI (cfiCond189) V1 load(1, XDATA, add(CFA_XSP16, literal(-13)))
          CFI (cfiCond189) V2 load(1, XDATA, add(CFA_XSP16, literal(-12)))
          CFI (cfiCond189) V3 load(1, XDATA, add(CFA_XSP16, literal(-11)))
          CFI (cfiCond189) V4 load(1, XDATA, add(CFA_XSP16, literal(-10)))
          CFI (cfiCond189) V5 load(1, XDATA, add(CFA_XSP16, literal(-9)))
          CFI (cfiCond189) V6 load(1, XDATA, add(CFA_XSP16, literal(-8)))
          CFI (cfiCond189) V7 load(1, XDATA, add(CFA_XSP16, literal(-7)))
          CFI (cfiCond189) R7 load(1, XDATA, add(CFA_XSP16, literal(-6)))
          CFI (cfiCond189) ?RET_LOW load(1, XDATA, add(CFA_XSP16, literal(-5)))
          CFI (cfiCond189) ?RET_HIGH load(1, XDATA, add(CFA_XSP16, literal(-4)))
          CFI (cfiCond189) ?BRET_EXT load(1, XDATA, add(CFA_XSP16, literal(-3)))
          CFI (cfiCond189) DPL0 load(1, XDATA, add(CFA_XSP16, literal(-2)))
          CFI (cfiCond189) DPH0 load(1, XDATA, add(CFA_XSP16, literal(-1)))
          CFI (cfiCond189) CFA_SP SP+-2
          CFI (cfiCond189) CFA_XSP16 add(XSP16, 148)
          CFI Block cfiCond190 Using cfiCommon0
          CFI (cfiCond190) Function GP_DataInd
          CFI (cfiCond190) Conditional ??CrossCallReturnLabel_26
          CFI (cfiCond190) R6 load(1, XDATA, add(CFA_XSP16, literal(-16)))
          CFI (cfiCond190) VB load(1, XDATA, add(CFA_XSP16, literal(-15)))
          CFI (cfiCond190) V0 load(1, XDATA, add(CFA_XSP16, literal(-14)))
          CFI (cfiCond190) V1 load(1, XDATA, add(CFA_XSP16, literal(-13)))
          CFI (cfiCond190) V2 load(1, XDATA, add(CFA_XSP16, literal(-12)))
          CFI (cfiCond190) V3 load(1, XDATA, add(CFA_XSP16, literal(-11)))
          CFI (cfiCond190) V4 load(1, XDATA, add(CFA_XSP16, literal(-10)))
          CFI (cfiCond190) V5 load(1, XDATA, add(CFA_XSP16, literal(-9)))
          CFI (cfiCond190) V6 load(1, XDATA, add(CFA_XSP16, literal(-8)))
          CFI (cfiCond190) V7 load(1, XDATA, add(CFA_XSP16, literal(-7)))
          CFI (cfiCond190) R7 load(1, XDATA, add(CFA_XSP16, literal(-6)))
          CFI (cfiCond190) ?RET_LOW load(1, XDATA, add(CFA_XSP16, literal(-5)))
          CFI (cfiCond190) ?RET_HIGH load(1, XDATA, add(CFA_XSP16, literal(-4)))
          CFI (cfiCond190) ?BRET_EXT load(1, XDATA, add(CFA_XSP16, literal(-3)))
          CFI (cfiCond190) DPL0 load(1, XDATA, add(CFA_XSP16, literal(-2)))
          CFI (cfiCond190) DPH0 load(1, XDATA, add(CFA_XSP16, literal(-1)))
          CFI (cfiCond190) CFA_SP SP+-2
          CFI (cfiCond190) CFA_XSP16 add(XSP16, 148)
          CFI Block cfiPicker191 Using cfiCommon1
          CFI (cfiPicker191) NoFunction
          CFI (cfiPicker191) Picker
        MOV       R0,A
        CLR       A
        ADDC      A,R7
        MOV       R1,A
        MOV       ?V0,R0
        MOV       ?V1,R1
        ; Setup parameters for call to function osal_build_uint16
        MOV       DPL,R0
        MOV       DPH,A
        RET
          CFI EndBlock cfiCond188
          CFI EndBlock cfiCond189
          CFI EndBlock cfiCond190
          CFI EndBlock cfiPicker191

        RSEG BANKED_CODE:HUGECODE:NOROOT(0)
?Subroutine14:
          CFI Block cfiCond192 Using cfiCommon0
          CFI Function gp_PopulateField
          CFI Conditional ??CrossCallReturnLabel_115
          CFI R6 load(1, XDATA, add(CFA_XSP16, literal(-17)))
          CFI VB load(1, XDATA, add(CFA_XSP16, literal(-16)))
          CFI V0 load(1, XDATA, add(CFA_XSP16, literal(-15)))
          CFI V1 load(1, XDATA, add(CFA_XSP16, literal(-14)))
          CFI V2 load(1, XDATA, add(CFA_XSP16, literal(-13)))
          CFI V3 load(1, XDATA, add(CFA_XSP16, literal(-12)))
          CFI V4 load(1, XDATA, add(CFA_XSP16, literal(-11)))
          CFI V5 load(1, XDATA, add(CFA_XSP16, literal(-10)))
          CFI V6 load(1, XDATA, add(CFA_XSP16, literal(-9)))
          CFI V7 load(1, XDATA, add(CFA_XSP16, literal(-8)))
          CFI V8 load(1, XDATA, add(CFA_XSP16, literal(-7)))
          CFI R7 load(1, XDATA, add(CFA_XSP16, literal(-6)))
          CFI ?RET_LOW load(1, XDATA, add(CFA_XSP16, literal(-5)))
          CFI ?RET_HIGH load(1, XDATA, add(CFA_XSP16, literal(-4)))
          CFI ?BRET_EXT load(1, XDATA, add(CFA_XSP16, literal(-3)))
          CFI DPL0 load(1, XDATA, add(CFA_XSP16, literal(-2)))
          CFI DPH0 load(1, XDATA, add(CFA_XSP16, literal(-1)))
          CFI CFA_SP SP+-2
          CFI CFA_XSP16 add(XSP16, 17)
          CFI Block cfiCond193 Using cfiCommon0
          CFI (cfiCond193) Function gp_expireDuplicateFiltering
          CFI (cfiCond193) Conditional ??CrossCallReturnLabel_116
          CFI (cfiCond193) R6 load(1, XDATA, add(CFA_XSP16, literal(-12)))
          CFI (cfiCond193) VB load(1, XDATA, add(CFA_XSP16, literal(-11)))
          CFI (cfiCond193) V0 load(1, XDATA, add(CFA_XSP16, literal(-10)))
          CFI (cfiCond193) V1 load(1, XDATA, add(CFA_XSP16, literal(-9)))
          CFI (cfiCond193) V2 load(1, XDATA, add(CFA_XSP16, literal(-8)))
          CFI (cfiCond193) V3 load(1, XDATA, add(CFA_XSP16, literal(-7)))
          CFI (cfiCond193) R7 load(1, XDATA, add(CFA_XSP16, literal(-6)))
          CFI (cfiCond193) ?RET_LOW load(1, XDATA, add(CFA_XSP16, literal(-5)))
          CFI (cfiCond193) ?RET_HIGH load(1, XDATA, add(CFA_XSP16, literal(-4)))
          CFI (cfiCond193) ?BRET_EXT load(1, XDATA, add(CFA_XSP16, literal(-3)))
          CFI (cfiCond193) DPL0 load(1, XDATA, add(CFA_XSP16, literal(-2)))
          CFI (cfiCond193) DPH0 load(1, XDATA, add(CFA_XSP16, literal(-1)))
          CFI (cfiCond193) CFA_SP SP+-2
          CFI (cfiCond193) CFA_XSP16 add(XSP16, 12)
          CFI Block cfiPicker194 Using cfiCommon1
          CFI (cfiPicker194) NoFunction
          CFI (cfiPicker194) Picker
        MOVX      A,@DPTR
        MOV       R0,A
        INC       DPTR
          CFI EndBlock cfiCond192
          CFI EndBlock cfiCond193
          CFI EndBlock cfiPicker194
        REQUIRE ??Subroutine46_0
        ; // Fall through to label ??Subroutine46_0

        RSEG BANKED_CODE:HUGECODE:NOROOT(0)
??Subroutine46_0:
          CFI Block cfiCond195 Using cfiCommon0
          CFI Function gp_stopCommissioningMode
          CFI Conditional ??CrossCallReturnLabel_111
          CFI DPL0 Frame(CFA_SP, 4)
          CFI DPH0 Frame(CFA_SP, 5)
          CFI CFA_SP SP+-7
          CFI Block cfiCond196 Using cfiCommon0
          CFI (cfiCond196) Function zclGp_GpProxyCommissioningModeCB
          CFI (cfiCond196) Conditional ??CrossCallReturnLabel_112
          CFI (cfiCond196) R6 load(1, XDATA, add(CFA_XSP16, literal(-10)))
          CFI (cfiCond196) VB load(1, XDATA, add(CFA_XSP16, literal(-9)))
          CFI (cfiCond196) V0 load(1, XDATA, add(CFA_XSP16, literal(-8)))
          CFI (cfiCond196) V1 load(1, XDATA, add(CFA_XSP16, literal(-7)))
          CFI (cfiCond196) R7 load(1, XDATA, add(CFA_XSP16, literal(-6)))
          CFI (cfiCond196) ?RET_LOW load(1, XDATA, add(CFA_XSP16, literal(-5)))
          CFI (cfiCond196) ?RET_HIGH load(1, XDATA, add(CFA_XSP16, literal(-4)))
          CFI (cfiCond196) ?BRET_EXT load(1, XDATA, add(CFA_XSP16, literal(-3)))
          CFI (cfiCond196) DPL0 load(1, XDATA, add(CFA_XSP16, literal(-2)))
          CFI (cfiCond196) DPH0 load(1, XDATA, add(CFA_XSP16, literal(-1)))
          CFI (cfiCond196) CFA_SP SP+-2
          CFI (cfiCond196) CFA_XSP16 add(XSP16, 10)
          CFI Block cfiCond197 Using cfiCommon0
          CFI (cfiCond197) Function GP_DataInd
          CFI (cfiCond197) Conditional ??CrossCallReturnLabel_113
          CFI (cfiCond197) R6 load(1, XDATA, add(CFA_XSP16, literal(-16)))
          CFI (cfiCond197) VB load(1, XDATA, add(CFA_XSP16, literal(-15)))
          CFI (cfiCond197) V0 load(1, XDATA, add(CFA_XSP16, literal(-14)))
          CFI (cfiCond197) V1 load(1, XDATA, add(CFA_XSP16, literal(-13)))
          CFI (cfiCond197) V2 load(1, XDATA, add(CFA_XSP16, literal(-12)))
          CFI (cfiCond197) V3 load(1, XDATA, add(CFA_XSP16, literal(-11)))
          CFI (cfiCond197) V4 load(1, XDATA, add(CFA_XSP16, literal(-10)))
          CFI (cfiCond197) V5 load(1, XDATA, add(CFA_XSP16, literal(-9)))
          CFI (cfiCond197) V6 load(1, XDATA, add(CFA_XSP16, literal(-8)))
          CFI (cfiCond197) V7 load(1, XDATA, add(CFA_XSP16, literal(-7)))
          CFI (cfiCond197) R7 load(1, XDATA, add(CFA_XSP16, literal(-6)))
          CFI (cfiCond197) ?RET_LOW load(1, XDATA, add(CFA_XSP16, literal(-5)))
          CFI (cfiCond197) ?RET_HIGH load(1, XDATA, add(CFA_XSP16, literal(-4)))
          CFI (cfiCond197) ?BRET_EXT load(1, XDATA, add(CFA_XSP16, literal(-3)))
          CFI (cfiCond197) DPL0 load(1, XDATA, add(CFA_XSP16, literal(-2)))
          CFI (cfiCond197) DPH0 load(1, XDATA, add(CFA_XSP16, literal(-1)))
          CFI (cfiCond197) CFA_SP SP+-2
          CFI (cfiCond197) CFA_XSP16 add(XSP16, 148)
          CFI Block cfiCond198 Using cfiCommon0
          CFI (cfiCond198) Function GP_DataInd
          CFI (cfiCond198) Conditional ??CrossCallReturnLabel_114
          CFI (cfiCond198) R6 load(1, XDATA, add(CFA_XSP16, literal(-16)))
          CFI (cfiCond198) VB load(1, XDATA, add(CFA_XSP16, literal(-15)))
          CFI (cfiCond198) V0 load(1, XDATA, add(CFA_XSP16, literal(-14)))
          CFI (cfiCond198) V1 load(1, XDATA, add(CFA_XSP16, literal(-13)))
          CFI (cfiCond198) V2 load(1, XDATA, add(CFA_XSP16, literal(-12)))
          CFI (cfiCond198) V3 load(1, XDATA, add(CFA_XSP16, literal(-11)))
          CFI (cfiCond198) V4 load(1, XDATA, add(CFA_XSP16, literal(-10)))
          CFI (cfiCond198) V5 load(1, XDATA, add(CFA_XSP16, literal(-9)))
          CFI (cfiCond198) V6 load(1, XDATA, add(CFA_XSP16, literal(-8)))
          CFI (cfiCond198) V7 load(1, XDATA, add(CFA_XSP16, literal(-7)))
          CFI (cfiCond198) R7 load(1, XDATA, add(CFA_XSP16, literal(-6)))
          CFI (cfiCond198) ?RET_LOW load(1, XDATA, add(CFA_XSP16, literal(-5)))
          CFI (cfiCond198) ?RET_HIGH load(1, XDATA, add(CFA_XSP16, literal(-4)))
          CFI (cfiCond198) ?BRET_EXT load(1, XDATA, add(CFA_XSP16, literal(-3)))
          CFI (cfiCond198) DPL0 load(1, XDATA, add(CFA_XSP16, literal(-2)))
          CFI (cfiCond198) DPH0 load(1, XDATA, add(CFA_XSP16, literal(-1)))
          CFI (cfiCond198) CFA_SP SP+-2
          CFI (cfiCond198) CFA_XSP16 add(XSP16, 148)
          CFI Block cfiCond199 Using cfiCommon0
          CFI (cfiCond199) Function gp_PopulateField
          CFI (cfiCond199) Conditional ??CrossCallReturnLabel_115
          CFI (cfiCond199) R6 load(1, XDATA, add(CFA_XSP16, literal(-17)))
          CFI (cfiCond199) VB load(1, XDATA, add(CFA_XSP16, literal(-16)))
          CFI (cfiCond199) V0 load(1, XDATA, add(CFA_XSP16, literal(-15)))
          CFI (cfiCond199) V1 load(1, XDATA, add(CFA_XSP16, literal(-14)))
          CFI (cfiCond199) V2 load(1, XDATA, add(CFA_XSP16, literal(-13)))
          CFI (cfiCond199) V3 load(1, XDATA, add(CFA_XSP16, literal(-12)))
          CFI (cfiCond199) V4 load(1, XDATA, add(CFA_XSP16, literal(-11)))
          CFI (cfiCond199) V5 load(1, XDATA, add(CFA_XSP16, literal(-10)))
          CFI (cfiCond199) V6 load(1, XDATA, add(CFA_XSP16, literal(-9)))
          CFI (cfiCond199) V7 load(1, XDATA, add(CFA_XSP16, literal(-8)))
          CFI (cfiCond199) V8 load(1, XDATA, add(CFA_XSP16, literal(-7)))
          CFI (cfiCond199) R7 load(1, XDATA, add(CFA_XSP16, literal(-6)))
          CFI (cfiCond199) ?RET_LOW load(1, XDATA, add(CFA_XSP16, literal(-5)))
          CFI (cfiCond199) ?RET_HIGH load(1, XDATA, add(CFA_XSP16, literal(-4)))
          CFI (cfiCond199) ?BRET_EXT load(1, XDATA, add(CFA_XSP16, literal(-3)))
          CFI (cfiCond199) DPL0 load(1, XDATA, add(CFA_XSP16, literal(-2)))
          CFI (cfiCond199) DPH0 load(1, XDATA, add(CFA_XSP16, literal(-1)))
          CFI (cfiCond199) CFA_SP SP+-2
          CFI (cfiCond199) CFA_XSP16 add(XSP16, 17)
          CFI Block cfiCond200 Using cfiCommon0
          CFI (cfiCond200) Function gp_expireDuplicateFiltering
          CFI (cfiCond200) Conditional ??CrossCallReturnLabel_116
          CFI (cfiCond200) R6 load(1, XDATA, add(CFA_XSP16, literal(-12)))
          CFI (cfiCond200) VB load(1, XDATA, add(CFA_XSP16, literal(-11)))
          CFI (cfiCond200) V0 load(1, XDATA, add(CFA_XSP16, literal(-10)))
          CFI (cfiCond200) V1 load(1, XDATA, add(CFA_XSP16, literal(-9)))
          CFI (cfiCond200) V2 load(1, XDATA, add(CFA_XSP16, literal(-8)))
          CFI (cfiCond200) V3 load(1, XDATA, add(CFA_XSP16, literal(-7)))
          CFI (cfiCond200) R7 load(1, XDATA, add(CFA_XSP16, literal(-6)))
          CFI (cfiCond200) ?RET_LOW load(1, XDATA, add(CFA_XSP16, literal(-5)))
          CFI (cfiCond200) ?RET_HIGH load(1, XDATA, add(CFA_XSP16, literal(-4)))
          CFI (cfiCond200) ?BRET_EXT load(1, XDATA, add(CFA_XSP16, literal(-3)))
          CFI (cfiCond200) DPL0 load(1, XDATA, add(CFA_XSP16, literal(-2)))
          CFI (cfiCond200) DPH0 load(1, XDATA, add(CFA_XSP16, literal(-1)))
          CFI (cfiCond200) CFA_SP SP+-2
          CFI (cfiCond200) CFA_XSP16 add(XSP16, 12)
          CFI Block cfiPicker201 Using cfiCommon1
          CFI (cfiPicker201) NoFunction
          CFI (cfiPicker201) Picker
        MOVX      A,@DPTR
        MOV       DPH,A
        MOV       DPL,R0
        RET
          CFI EndBlock cfiCond195
          CFI EndBlock cfiCond196
          CFI EndBlock cfiCond197
          CFI EndBlock cfiCond198
          CFI EndBlock cfiCond199
          CFI EndBlock cfiCond200
          CFI EndBlock cfiPicker201
// 1796 
// 1797 /*********************************************************************
// 1798  * @fn          GP_ProccessCommissioningNotification
// 1799  *
// 1800  * @brief       General function to process the GP Manteinance Indication in operational mode
// 1801  *
// 1802  * @param       gp_DataInd
// 1803  *
// 1804  * @return      none
// 1805  */
// 1806 static void GP_ProccessCommissioningNotification(gp_DataInd_t *gp_DataInd)
// 1807 {
// 1808   gpCommissioningNotificationCmd_t gpNotification;
// 1809   
// 1810   if ( ( gp_DataInd->GPDCmmdID == GP_COMMISSIONING_COMMAND_ID ) || ( gp_DataInd->GPDCmmdID == GP_SUCCESS_COMMAND_ID ) ||
// 1811        ( gp_DataInd->GPDCmmdID == GP_CHANNEL_REQ_COMMAND_ID ) )
// 1812   {
// 1813   
// 1814     osal_memset( &gpNotification, 0, sizeof ( gpCommissioningNotificationCmd_t ) );
// 1815     zclGp_ManteinanceIndParse( gp_DataInd, &gpNotification );
// 1816   
// 1817     zclGp_SendGpCommissioningNotificationCommand ( &gpNotification );
// 1818   }
// 1819 }
// 1820 
// 1821 /*********************************************************************
// 1822  * @fn          GP_ProccessNotification
// 1823  *
// 1824  * @brief       General function to process the GP Data Indication in operational mode
// 1825  *
// 1826  * @param       gp_DataInd
// 1827  *
// 1828  * @return      none
// 1829  */
// 1830 static void GP_ProccessNotification(gp_DataInd_t *gp_DataInd)
// 1831 {
// 1832   gpNotificationCmd_t gpNotification;
// 1833   
// 1834   osal_memset( &gpNotification, 0, sizeof ( gpNotificationCmd_t ) );
// 1835   zclGp_DataIndParse( gp_DataInd, &gpNotification );
// 1836   
// 1837   zclGp_SendGpNotificationCommand ( &gpNotification, gp_DataInd->SeqNumber );
// 1838 }
// 1839 
// 1840 /*********************************************************************
// 1841  * @fn          GP_SecReq
// 1842  *
// 1843  * @brief       Primitive from dGP stub to GP EndPoint asking how to process a GPDF.
// 1844  *
// 1845  * @param       gp_SecReq 
// 1846  *
// 1847  * @return      none
// 1848  */

        RSEG BANKED_CODE:HUGECODE:NOROOT(0)
// 1849 uint8 GP_SecReq(gp_SecReq_t *gp_SecReq)
GP_SecReq:
          CFI Block cfiBlock202 Using cfiCommon0
          CFI Function GP_SecReq
        CODE
// 1850 {
        FUNCALL GP_SecReq, osal_msg_allocate
        LOCFRAME ISTACK, 0, STACK
        LOCFRAME PSTACK, 0, STACK
        LOCFRAME XSTACK, 127, STACK
        LOCFRAME IOVERLAY, 0, STATIC
        LOCFRAME DOVERLAY, 0, STATIC
        ARGFRAME ISTACK, 0, STACK
        ARGFRAME PSTACK, 0, STACK
        ARGFRAME XSTACK, 127, STACK
        ARGFRAME IOVERLAY, 0, STATIC
        ARGFRAME DOVERLAY, 0, STATIC
        FUNCALL GP_SecReq, osal_memcpy
        LOCFRAME ISTACK, 0, STACK
        LOCFRAME PSTACK, 0, STACK
        LOCFRAME XSTACK, 130, STACK
        LOCFRAME IOVERLAY, 0, STATIC
        LOCFRAME DOVERLAY, 0, STATIC
        ARGFRAME ISTACK, 0, STACK
        ARGFRAME PSTACK, 0, STACK
        ARGFRAME XSTACK, 130, STACK
        ARGFRAME IOVERLAY, 0, STATIC
        ARGFRAME DOVERLAY, 0, STATIC
        FUNCALL GP_SecReq, osal_memcpy
        LOCFRAME ISTACK, 0, STACK
        LOCFRAME PSTACK, 0, STACK
        LOCFRAME XSTACK, 130, STACK
        LOCFRAME IOVERLAY, 0, STATIC
        LOCFRAME DOVERLAY, 0, STATIC
        ARGFRAME ISTACK, 0, STACK
        ARGFRAME PSTACK, 0, STACK
        ARGFRAME XSTACK, 130, STACK
        ARGFRAME IOVERLAY, 0, STATIC
        ARGFRAME DOVERLAY, 0, STATIC
        FUNCALL GP_SecReq, gp_DataIndGet
        LOCFRAME ISTACK, 0, STACK
        LOCFRAME PSTACK, 0, STACK
        LOCFRAME XSTACK, 127, STACK
        LOCFRAME IOVERLAY, 0, STATIC
        LOCFRAME DOVERLAY, 0, STATIC
        ARGFRAME ISTACK, 0, STACK
        ARGFRAME PSTACK, 0, STACK
        ARGFRAME XSTACK, 127, STACK
        ARGFRAME IOVERLAY, 0, STATIC
        ARGFRAME DOVERLAY, 0, STATIC
        FUNCALL GP_SecReq, gp_getProxyTableByGpId
        LOCFRAME ISTACK, 0, STACK
        LOCFRAME PSTACK, 0, STACK
        LOCFRAME XSTACK, 129, STACK
        LOCFRAME IOVERLAY, 0, STATIC
        LOCFRAME DOVERLAY, 0, STATIC
        ARGFRAME ISTACK, 0, STACK
        ARGFRAME PSTACK, 0, STACK
        ARGFRAME XSTACK, 129, STACK
        ARGFRAME IOVERLAY, 0, STATIC
        ARGFRAME DOVERLAY, 0, STATIC
        FUNCALL GP_SecReq, osal_msg_send
        LOCFRAME ISTACK, 0, STACK
        LOCFRAME PSTACK, 0, STACK
        LOCFRAME XSTACK, 127, STACK
        LOCFRAME IOVERLAY, 0, STATIC
        LOCFRAME DOVERLAY, 0, STATIC
        ARGFRAME ISTACK, 0, STACK
        ARGFRAME PSTACK, 0, STACK
        ARGFRAME XSTACK, 127, STACK
        ARGFRAME IOVERLAY, 0, STATIC
        ARGFRAME DOVERLAY, 0, STATIC
        FUNCALL GP_SecReq, gp_DataIndGet
        LOCFRAME ISTACK, 0, STACK
        LOCFRAME PSTACK, 0, STACK
        LOCFRAME XSTACK, 127, STACK
        LOCFRAME IOVERLAY, 0, STATIC
        LOCFRAME DOVERLAY, 0, STATIC
        ARGFRAME ISTACK, 0, STACK
        ARGFRAME PSTACK, 0, STACK
        ARGFRAME XSTACK, 127, STACK
        ARGFRAME IOVERLAY, 0, STATIC
        ARGFRAME DOVERLAY, 0, STATIC
        FUNCALL GP_SecReq, gp_SecurityOperationProxy
        LOCFRAME ISTACK, 0, STACK
        LOCFRAME PSTACK, 0, STACK
        LOCFRAME XSTACK, 129, STACK
        LOCFRAME IOVERLAY, 0, STATIC
        LOCFRAME DOVERLAY, 0, STATIC
        ARGFRAME ISTACK, 0, STACK
        ARGFRAME PSTACK, 0, STACK
        ARGFRAME XSTACK, 129, STACK
        ARGFRAME IOVERLAY, 0, STATIC
        ARGFRAME DOVERLAY, 0, STATIC
        FUNCALL GP_SecReq, osal_memcmp
        LOCFRAME ISTACK, 0, STACK
        LOCFRAME PSTACK, 0, STACK
        LOCFRAME XSTACK, 130, STACK
        LOCFRAME IOVERLAY, 0, STATIC
        LOCFRAME DOVERLAY, 0, STATIC
        ARGFRAME ISTACK, 0, STACK
        ARGFRAME PSTACK, 0, STACK
        ARGFRAME XSTACK, 130, STACK
        ARGFRAME IOVERLAY, 0, STATIC
        ARGFRAME DOVERLAY, 0, STATIC
        FUNCALL GP_SecReq, osal_memcmp
        LOCFRAME ISTACK, 0, STACK
        LOCFRAME PSTACK, 0, STACK
        LOCFRAME XSTACK, 130, STACK
        LOCFRAME IOVERLAY, 0, STATIC
        LOCFRAME DOVERLAY, 0, STATIC
        ARGFRAME ISTACK, 0, STACK
        ARGFRAME PSTACK, 0, STACK
        ARGFRAME XSTACK, 130, STACK
        ARGFRAME IOVERLAY, 0, STATIC
        ARGFRAME DOVERLAY, 0, STATIC
        FUNCALL GP_SecReq, zcl_ReadAttrData
        LOCFRAME ISTACK, 0, STACK
        LOCFRAME PSTACK, 0, STACK
        LOCFRAME XSTACK, 131, STACK
        LOCFRAME IOVERLAY, 0, STATIC
        LOCFRAME DOVERLAY, 0, STATIC
        ARGFRAME ISTACK, 0, STACK
        ARGFRAME PSTACK, 0, STACK
        ARGFRAME XSTACK, 131, STACK
        ARGFRAME IOVERLAY, 0, STATIC
        ARGFRAME DOVERLAY, 0, STATIC
        FUNCALL GP_SecReq, osal_memcmp
        LOCFRAME ISTACK, 0, STACK
        LOCFRAME PSTACK, 0, STACK
        LOCFRAME XSTACK, 130, STACK
        LOCFRAME IOVERLAY, 0, STATIC
        LOCFRAME DOVERLAY, 0, STATIC
        ARGFRAME ISTACK, 0, STACK
        ARGFRAME PSTACK, 0, STACK
        ARGFRAME XSTACK, 130, STACK
        ARGFRAME IOVERLAY, 0, STATIC
        ARGFRAME DOVERLAY, 0, STATIC
        FUNCALL GP_SecReq, osal_memcpy
        LOCFRAME ISTACK, 0, STACK
        LOCFRAME PSTACK, 0, STACK
        LOCFRAME XSTACK, 130, STACK
        LOCFRAME IOVERLAY, 0, STATIC
        LOCFRAME DOVERLAY, 0, STATIC
        ARGFRAME ISTACK, 0, STACK
        ARGFRAME PSTACK, 0, STACK
        ARGFRAME XSTACK, 130, STACK
        ARGFRAME IOVERLAY, 0, STATIC
        ARGFRAME DOVERLAY, 0, STATIC
        FUNCALL GP_SecReq, ZDSecMgrReadKeyFromNv
        LOCFRAME ISTACK, 0, STACK
        LOCFRAME PSTACK, 0, STACK
        LOCFRAME XSTACK, 127, STACK
        LOCFRAME IOVERLAY, 0, STATIC
        LOCFRAME DOVERLAY, 0, STATIC
        ARGFRAME ISTACK, 0, STACK
        ARGFRAME PSTACK, 0, STACK
        ARGFRAME XSTACK, 127, STACK
        ARGFRAME IOVERLAY, 0, STATIC
        ARGFRAME DOVERLAY, 0, STATIC
        FUNCALL GP_SecReq, osal_memcpy
        LOCFRAME ISTACK, 0, STACK
        LOCFRAME PSTACK, 0, STACK
        LOCFRAME XSTACK, 130, STACK
        LOCFRAME IOVERLAY, 0, STATIC
        LOCFRAME DOVERLAY, 0, STATIC
        ARGFRAME ISTACK, 0, STACK
        ARGFRAME PSTACK, 0, STACK
        ARGFRAME XSTACK, 130, STACK
        ARGFRAME IOVERLAY, 0, STATIC
        ARGFRAME DOVERLAY, 0, STATIC
        FUNCALL GP_SecReq, osal_msg_send
        LOCFRAME ISTACK, 0, STACK
        LOCFRAME PSTACK, 0, STACK
        LOCFRAME XSTACK, 127, STACK
        LOCFRAME IOVERLAY, 0, STATIC
        LOCFRAME DOVERLAY, 0, STATIC
        ARGFRAME ISTACK, 0, STACK
        ARGFRAME PSTACK, 0, STACK
        ARGFRAME XSTACK, 127, STACK
        ARGFRAME IOVERLAY, 0, STATIC
        ARGFRAME DOVERLAY, 0, STATIC
        REQUIRE ?V0
        REQUIRE ?V1
        REQUIRE ?V2
        REQUIRE ?V3
        REQUIRE ?V4
        REQUIRE ?V5
        REQUIRE ?V6
        REQUIRE ?V7
        REQUIRE ?V8
        REQUIRE ?V9
        REQUIRE ?V10
        REQUIRE ?V11
        REQUIRE ?V12
        REQUIRE ?V14
        REQUIRE ?V15
        MOV       A,#-0x18
        LCALL     ?BANKED_ENTER_XDATA
          CFI DPH0 load(1, XDATA, add(CFA_XSP16, literal(-1)))
          CFI DPL0 load(1, XDATA, add(CFA_XSP16, literal(-2)))
          CFI ?BRET_EXT load(1, XDATA, add(CFA_XSP16, literal(-3)))
          CFI ?RET_HIGH load(1, XDATA, add(CFA_XSP16, literal(-4)))
          CFI ?RET_LOW load(1, XDATA, add(CFA_XSP16, literal(-5)))
          CFI R7 load(1, XDATA, add(CFA_XSP16, literal(-6)))
          CFI V15 load(1, XDATA, add(CFA_XSP16, literal(-7)))
          CFI V14 load(1, XDATA, add(CFA_XSP16, literal(-8)))
          CFI V13 load(1, XDATA, add(CFA_XSP16, literal(-9)))
          CFI V12 load(1, XDATA, add(CFA_XSP16, literal(-10)))
          CFI V11 load(1, XDATA, add(CFA_XSP16, literal(-11)))
          CFI V10 load(1, XDATA, add(CFA_XSP16, literal(-12)))
          CFI V9 load(1, XDATA, add(CFA_XSP16, literal(-13)))
          CFI V8 load(1, XDATA, add(CFA_XSP16, literal(-14)))
          CFI V7 load(1, XDATA, add(CFA_XSP16, literal(-15)))
          CFI V6 load(1, XDATA, add(CFA_XSP16, literal(-16)))
          CFI V5 load(1, XDATA, add(CFA_XSP16, literal(-17)))
          CFI V4 load(1, XDATA, add(CFA_XSP16, literal(-18)))
          CFI V3 load(1, XDATA, add(CFA_XSP16, literal(-19)))
          CFI V2 load(1, XDATA, add(CFA_XSP16, literal(-20)))
          CFI V1 load(1, XDATA, add(CFA_XSP16, literal(-21)))
          CFI V0 load(1, XDATA, add(CFA_XSP16, literal(-22)))
          CFI VB load(1, XDATA, add(CFA_XSP16, literal(-23)))
          CFI R6 load(1, XDATA, add(CFA_XSP16, literal(-24)))
          CFI CFA_SP SP+0
          CFI CFA_XSP16 add(XSP16, 24)
        ; Saved register size: 24
        ; Auto size: 103
        MOV       A,#-0x67
        LCALL     ?ALLOC_XSTACK8
          CFI CFA_XSP16 add(XSP16, 127)
        MOV       ?V0,R2
        MOV       ?V1,R3
// 1851   gp_SecRsp_t *gp_SecRsp = NULL;
// 1852   uint8 status;
// 1853   uint8  ProxyTableEntryTemp[PROXY_TBL_ENTRY_LEN];
// 1854   gp_DataInd_t* temp;
// 1855   uint8   KeyType;
// 1856   uint8   Key[SEC_KEY_LEN];
// 1857 
// 1858 
// 1859   gp_SecRsp = (gp_SecRsp_t*)osal_msg_allocate(sizeof(gp_SecRsp_t));
        ; Setup parameters for call to function osal_msg_allocate
        MOV       R2,#0x24
        MOV       R3,#0x0
        LCALL     `??osal_msg_allocate::?relay`; Banked call to: osal_msg_allocate
        MOV       ?V2,R2
        MOV       ?V3,R3
        MOV       R6,?V2
        MOV       R7,?V3
// 1860 
// 1861   //No mem, then do not release the msg, process later
// 1862   if(gp_SecRsp == NULL)
        MOV       A,R6
        ORL       A,R7
        JNZ       ??GP_SecReq_0
// 1863   {
// 1864     return FALSE;
        MOV       R1,#0x0
        LJMP      ??GP_SecReq_1 & 0xFFFF
// 1865   }
// 1866   
// 1867   gp_SecRsp->hdr.event = GP_SEC_RSP;
??GP_SecReq_0:
        MOV       DPL,R6
        MOV       DPH,R7
        MOV       A,#0x8
        MOVX      @DPTR,A
// 1868   gp_SecRsp->hdr.status = ZSuccess;
        INC       DPTR
        CLR       A
        MOVX      @DPTR,A
// 1869 
// 1870   gp_SecRsp->dGPStubHandle = gp_SecReq->dGPStubHandle;
        MOV       A,?V0
        ADD       A,#0x12
        MOV       ?V8,A
        CLR       A
        ADDC      A,?V1
        MOV       ?V9,A
        MOV       DPL,?V8
        MOV       DPH,A
        MOVX      A,@DPTR
        MOV       DPL,R6
        MOV       DPH,R7
        INC       DPTR
        INC       DPTR
        INC       DPTR
        MOVX      @DPTR,A
// 1871   gp_SecRsp->EndPoint = gp_SecReq->EndPoint;
        MOV       A,?V0
        ADD       A,#0xb
        LCALL     ??Subroutine40_0 & 0xFFFF
??CrossCallReturnLabel_73:
        MOVX      A,@DPTR
        PUSH      A
          CFI CFA_SP SP+-1
        MOV       A,R6
        ADD       A,#0xd
        MOV       DPL,A
        CLR       A
        ADDC      A,R7
        MOV       DPH,A
        POP       A
          CFI CFA_SP SP+0
        MOVX      @DPTR,A
// 1872 
// 1873   osal_memcpy(&gp_SecRsp->gp_SecData,&gp_SecReq->gp_SecData, sizeof(gp_SecData_t));
        MOV       A,?V0
        ADD       A,#0xc
        MOV       ?V2,A
        CLR       A
        ADDC      A,?V1
        MOV       ?V3,A
        ; Setup parameters for call to function osal_memcpy
        MOV       ?V4,?V2
        MOV       ?V5,A
        MOV       ?V6,#0x0
        MOV       R0,#?V4
        LCALL     ?PUSH_XSTACK_I_THREE
          CFI CFA_XSP16 add(XSP16, 130)
        MOV       R4,#0x6
        MOV       R5,#0x0
        MOV       A,R6
        ADD       A,#0xe
        MOV       R2,A
        CLR       A
        ADDC      A,R7
        MOV       R3,A
        LCALL     `??osal_memcpy::?relay`; Banked call to: osal_memcpy
        MOV       A,#0x3
        LCALL     ?DEALLOC_XSTACK8
          CFI CFA_XSP16 add(XSP16, 127)
// 1874   osal_memcpy(&gp_SecRsp->gpd_ID,&gp_SecReq->gpd_ID, sizeof(gpd_ID_t));
        MOV       A,?V0
        ADD       A,#0x2
        MOV       ?V10,A
        CLR       A
        ADDC      A,?V1
        MOV       ?V11,A
        ; Setup parameters for call to function osal_memcpy
        MOV       ?V4,?V10
        MOV       ?V5,A
        MOV       R0,#?V4
        LCALL     ?PUSH_XSTACK_I_THREE
          CFI CFA_XSP16 add(XSP16, 130)
        MOV       R4,#0x9
        MOV       R5,#0x0
        MOV       A,R6
        ADD       A,#0x4
        MOV       R2,A
        CLR       A
        ADDC      A,R7
        MOV       R3,A
        LCALL     `??osal_memcpy::?relay`; Banked call to: osal_memcpy
        MOV       A,#0x3
        LCALL     ?DEALLOC_XSTACK8
          CFI CFA_XSP16 add(XSP16, 127)
// 1875 
// 1876   gp_SecRsp->Status = GP_SEC_RSP_DROP_FRAME;
        MOV       A,R6
        ADD       A,#0x2
        MOV       ?V14,A
        CLR       A
        ADDC      A,R7
        MOV       ?V15,A
        MOV       DPL,?V14
        MOV       DPH,A
        CLR       A
        MOVX      @DPTR,A
// 1877  
// 1878   //Find duplicates A.3.6.1.2 Duplicate filtering
// 1879   if( gp_DataIndFindDuplicate(gp_SecReq->dGPStubHandle, gp_SecReq->gp_SecData.GPDFSecLvl) )
        MOV       DPL,?V2
        MOV       DPH,?V3
        MOVX      A,@DPTR
        MOV       ?V12,A
        ; Setup parameters for call to function gp_DataIndGet
        MOV       DPL,?V8
        MOV       DPH,?V9
        MOVX      A,@DPTR
        MOV       R1,A
        LCALL     `??gp_DataIndGet::?relay`; Banked call to: gp_DataIndGet
        MOV       A,R2
        ORL       A,R3
        JNZ       $+5
        LJMP      ??GP_SecReq_2 & 0xFFFF
        MOV       DPTR,#gp_DataIndList
        SJMP      ??GP_SecReq_3
??GP_SecReq_4:
        MOV       A,?V2
        LCALL     ?Subroutine31 & 0xFFFF
??CrossCallReturnLabel_42:
        ADDC      A,?V3
        MOV       DPH,A
        MOV       R0,#?V4
        LCALL     ?L_MOV_X
        MOV       A,R2
        LCALL     ?Subroutine31 & 0xFFFF
??CrossCallReturnLabel_43:
        ADDC      A,R3
        MOV       DPH,A
        MOV       R0,#?V4
        LCALL     ?L_EQ_X
        JNZ       ??GP_SecReq_5
??GP_SecReq_6:
        MOV       DPL,R2
        MOV       DPH,R3
        INC       DPTR
        INC       DPTR
        LCALL     ?Subroutine21 & 0xFFFF
??CrossCallReturnLabel_21:
        INC       DPTR
        INC       DPTR
        MOVX      A,@DPTR
        XRL       A,R0
        JNZ       ??GP_SecReq_7
??GP_SecReq_5:
        MOV       DPL,?V2
        MOV       DPH,?V3
        INC       DPTR
        INC       DPTR
        INC       DPTR
??GP_SecReq_3:
        MOVX      A,@DPTR
        MOV       ?V2,A
        INC       DPTR
        MOVX      A,@DPTR
        MOV       ?V3,A
        MOV       A,?V2
        ORL       A,?V3
        JZ        ??GP_SecReq_8
        MOV       A,?V12
        JNZ       ??GP_SecReq_4
        MOV       A,R2
        ADD       A,#0x10
        MOV       DPL,A
        CLR       A
        ADDC      A,R3
        MOV       DPH,A
        MOVX      A,@DPTR
        MOV       R0,A
        MOV       A,?V2
        ADD       A,#0x10
        MOV       DPL,A
        CLR       A
        ADDC      A,?V3
        MOV       DPH,A
        MOVX      A,@DPTR
        XRL       A,R0
        JNZ       ??GP_SecReq_5
        MOV       A,R2
        ADD       A,#0x1c
        MOV       DPL,A
        CLR       A
        ADDC      A,R3
        MOV       DPH,A
        MOVX      A,@DPTR
        MOV       R0,A
        MOV       A,?V2
        ADD       A,#0x1c
        MOV       DPL,A
        CLR       A
        ADDC      A,?V3
        MOV       DPH,A
        MOVX      A,@DPTR
        XRL       A,R0
        JNZ       ??GP_SecReq_5
        SJMP      ??GP_SecReq_6
??GP_SecReq_2:
        MOV       A,?V2
        ORL       A,?V3
        JZ        ??GP_SecReq_8
// 1880   {  //Check if the entry exist
// 1881     if ( gp_getProxyTableByGpId(&gp_SecReq->gpd_ID, ProxyTableEntryTemp, NULL) == ZSuccess )
??GP_SecReq_7:
        ; Setup parameters for call to function gp_getProxyTableByGpId
        CLR       A
        MOV       ?V2,A
        MOV       ?V3,A
        MOV       R0,#?V2
        LCALL     ?PUSH_XSTACK_I_TWO
          CFI CFA_XSP16 add(XSP16, 129)
        MOV       A,#0x28
        LCALL     ?XSTACK_DISP102_8
        MOV       R2,?V10
        MOV       R3,?V11
        LCALL     `??gp_getProxyTableByGpId::?relay`; Banked call to: gp_getProxyTableByGpId
        MOV       A,#0x2
        LCALL     ?DEALLOC_XSTACK8
          CFI CFA_XSP16 add(XSP16, 127)
        MOV       A,R1
        JNZ       $+5
        LJMP      ??GP_SecReq_9 & 0xFFFF
// 1882     {
// 1883       gp_SecRsp->Status = GP_SEC_RSP_DROP_FRAME;
// 1884       osal_msg_send(gp_TaskID,(uint8*)gp_SecRsp);
// 1885 
// 1886       return TRUE;
// 1887     }
// 1888   }
// 1889   
// 1890   temp = gp_DataIndGet(gp_SecReq->dGPStubHandle);
??GP_SecReq_8:
        ; Setup parameters for call to function gp_DataIndGet
        MOV       DPL,?V8
        MOV       DPH,?V9
        MOVX      A,@DPTR
        MOV       R1,A
        LCALL     `??gp_DataIndGet::?relay`; Banked call to: gp_DataIndGet
// 1891     
// 1892   //Section A.3.7.3.3
// 1893   status = gp_SecurityOperationProxy(temp,&KeyType,Key);
        ; Setup parameters for call to function gp_SecurityOperationProxy
        MOV       A,#0x6
        LCALL     ?XSTACK_DISP100_8
        MOV       ?V2,R0
        MOV       ?V3,R1
        MOV       R0,#?V2
        LCALL     ?PUSH_XSTACK_I_TWO
          CFI CFA_XSP16 add(XSP16, 129)
        MOV       A,#0x3
        LCALL     ?XSTACK_DISP102_8
        LCALL     `??gp_SecurityOperationProxy::?relay`; Banked call to: gp_SecurityOperationProxy
        MOV       A,#0x2
        LCALL     ?DEALLOC_XSTACK8
          CFI CFA_XSP16 add(XSP16, 127)
        MOV       A,R1
        MOV       ?V7,A
// 1894 
// 1895   switch(status)
        JNZ       $+5
        LJMP      ??GP_SecReq_9 & 0xFFFF
        DEC       A
        JZ        ??GP_SecReq_10
        DEC       A
        JZ        ??GP_SecReq_11
        DEC       A
        JZ        ??GP_SecReq_10
        DEC       A
        JNZ       $+5
        LJMP      ??GP_SecReq_9 & 0xFFFF
        LJMP      ??GP_SecReq_12 & 0xFFFF
// 1896   {
// 1897     case GP_SEC_RSP_ERROR:  //This should not happen
// 1898     case GP_SEC_RSP_DROP_FRAME:
// 1899       gp_SecRsp->Status = GP_SEC_RSP_DROP_FRAME;
// 1900     break;
// 1901     
// 1902     case GP_SEC_RSP_PASS_UNPROCESSED:  
// 1903       gp_SecRsp->Status = GP_SEC_RSP_PASS_UNPROCESSED;
??GP_SecReq_11:
        MOV       DPL,?V14
        MOV       DPH,?V15
        MOV       A,#0x2
        LJMP      ??GP_SecReq_13 & 0xFFFF
// 1904     break;
// 1905     
// 1906     case GP_SEC_RSP_MATCH:
// 1907     case GP_SEC_RSP_TX_THEN_DROP:
// 1908       if(GP_RecoveryKey(gp_SecReq->gp_SecData.GPDFKeyType,KeyType,status,Key) == GP_SEC_RSP_DROP_FRAME)
??GP_SecReq_10:
        MOV       A,#0x6
        LCALL     ?XSTACK_DISP100_8
        MOV       A,#0x2
        LCALL     ?XSTACK_DISP0_8
        LCALL     ??Subroutine44_0 & 0xFFFF
??CrossCallReturnLabel_95:
        MOV       A,#0x1
        LCALL     ?XSTACK_DISP0_8
        MOVX      A,@DPTR
        MOV       ?V3,A
        MOV       A,?V0
        ADD       A,#0xd
        LCALL     ??Subroutine40_0 & 0xFFFF
??CrossCallReturnLabel_74:
        MOVX      A,@DPTR
        MOV       R2,A
        MOV       DPTR,#`?<Constant {255, 0, 0, 0, 0, 0, 0, 0, 0, 0, 0,`
        MOV       A,#0x16
        LCALL     ?XSTACK_DISP102_8
        MOV       A,#0x10
        LCALL     ?MOVE_LONG8_XDATA_XDATA
        MOV       A,#0x16
        LCALL     ?XSTACK_DISP100_8
        MOV       ?V0,R0
        MOV       ?V1,R1
        MOV       ?V2,#0x0
        MOV       A,R2
        JZ        ??GP_SecReq_14
        MOV       A,#0x2
        LCALL     ?XSTACK_DISP100_8
        MOV       ?V4,R0
        MOV       ?V5,R1
        MOV       R1,?V4
        MOV       R2,?V5
        MOV       R3,#0x0
        MOV       A,#0x4
        XRL       A,?V3
        JZ        ??GP_SecReq_15
        ; Setup parameters for call to function osal_memcmp
        MOV       A,#0x7
        XRL       A,?V3
        JZ        $+5
        LJMP      ??GP_SecReq_9 & 0xFFFF
        ; Setup parameters for call to function osal_memcmp
??GP_SecReq_15:
        MOV       R0,#?V0
        LCALL     ?PUSH_XSTACK_I_THREE
          CFI CFA_XSP16 add(XSP16, 130)
        MOV       R4,#0x10
        MOV       R5,#0x0
        LCALL     `??osal_memcmp::?relay`; Banked call to: osal_memcmp
        MOV       A,#0x3
        LCALL     ?DEALLOC_XSTACK8
          CFI CFA_XSP16 add(XSP16, 127)
        MOV       A,R1
        JZ        $+5
        LJMP      ??GP_SecReq_9 & 0xFFFF
        LJMP      ??GP_SecReq_16 & 0xFFFF
??GP_SecReq_14:
        ; Setup parameters for call to function zcl_ReadAttrData
        MOV       A,#0x4
        LCALL     ?XSTACK_DISP100_8
        MOV       ?V4,R0
        MOV       ?V5,R1
        MOV       R0,#?V4
        LCALL     ?PUSH_XSTACK_I_TWO
          CFI CFA_XSP16 add(XSP16, 129)
        MOV       A,#0x2
        LCALL     ?XSTACK_DISP100_8
        MOV       ?V4,R0
        MOV       ?V5,R1
        MOV       R0,#?V4
        LCALL     ?PUSH_XSTACK_I_TWO
          CFI CFA_XSP16 add(XSP16, 131)
        MOV       R4,#0x20
        MOV       R5,#0x0
        MOV       R2,#0x21
        MOV       R3,#0x0
        MOV       R1,#-0xe
        LCALL     `??zcl_ReadAttrData::?relay`; Banked call to: zcl_ReadAttrData
        MOV       A,#0x4
        LCALL     ?DEALLOC_XSTACK8
          CFI CFA_XSP16 add(XSP16, 127)
        MOV       DPL,?XSP + 0
        MOV       DPH,?XSP + 1
        MOVX      A,@DPTR
        XRL       A,?V3
        JNZ       ??GP_SecReq_17
        MOV       ?V4,#zgpSharedKey & 0xff
        MOV       ?V5,#(zgpSharedKey >> 8) & 0xff
        MOV       ?V6,#-0x80
        ; Setup parameters for call to function osal_memcmp
        MOV       R0,#?V4
        LCALL     ?PUSH_XSTACK_I_THREE
          CFI CFA_XSP16 add(XSP16, 130)
        MOV       R4,#0x10
        MOV       R5,#0x0
        MOV       R1,?V0
        MOV       R2,?V1
        MOV       R3,?V2
        LCALL     `??osal_memcmp::?relay`; Banked call to: osal_memcmp
        MOV       A,#0x3
        LCALL     ?DEALLOC_XSTACK8
          CFI CFA_XSP16 add(XSP16, 127)
        MOV       A,R1
        JNZ       ??GP_SecReq_17
        ; Setup parameters for call to function osal_memcpy
        MOV       R0,#?V4
        LCALL     ?PUSH_XSTACK_I_THREE
          CFI CFA_XSP16 add(XSP16, 130)
        MOV       R4,#0x10
        MOV       R5,#0x0
        MOV       A,#0x5
        LCALL     ?XSTACK_DISP0_8
        LCALL     ??Subroutine41_0 & 0xFFFF
??CrossCallReturnLabel_84:
        LCALL     `??osal_memcpy::?relay`; Banked call to: osal_memcpy
        MOV       A,#0x3
        LCALL     ?DEALLOC_XSTACK8
          CFI CFA_XSP16 add(XSP16, 127)
        SJMP      ??GP_SecReq_16
??GP_SecReq_17:
        MOV       A,#0x1
        XRL       A,?V3
        JNZ       ??GP_SecReq_9
        ; Setup parameters for call to function ZDSecMgrReadKeyFromNv
        MOV       A,#0x2
        LCALL     ?XSTACK_DISP0_8
        MOVX      A,@DPTR
        MOV       R4,A
        INC       DPTR
        MOVX      A,@DPTR
        MOV       R5,A
        MOV       R2,#0x62
        MOV       R3,#0x0
        LCALL     `??ZDSecMgrReadKeyFromNv::?relay`; Banked call to: ZDSecMgrReadKeyFromNv
??GP_SecReq_16:
        MOV       A,?V7
        JNZ       ??GP_SecReq_18
// 1909       {
// 1910         gp_SecRsp->Status = GP_SEC_RSP_DROP_FRAME;
??GP_SecReq_9:
        MOV       DPL,?V14
        MOV       DPH,?V15
        CLR       A
??GP_SecReq_13:
        MOVX      @DPTR,A
        SJMP      ??GP_SecReq_12
// 1911       }
// 1912       else
// 1913       {
// 1914         gp_SecRsp->Status = status;
??GP_SecReq_18:
        MOV       DPL,?V14
        MOV       DPH,?V15
        MOVX      @DPTR,A
// 1915         osal_memcpy(gp_SecRsp->GPDKey,Key,SEC_KEY_LEN);
        ; Setup parameters for call to function osal_memcpy
        MOV       A,#0x6
        LCALL     ?XSTACK_DISP100_8
        MOV       ?V0,R0
        MOV       ?V1,R1
        MOV       R0,#?V0
        LCALL     ?PUSH_XSTACK_I_THREE
          CFI CFA_XSP16 add(XSP16, 130)
        MOV       R4,#0x10
        MOV       R5,#0x0
        MOV       A,R6
        ADD       A,#0x14
        MOV       R2,A
        CLR       A
        ADDC      A,R7
        MOV       R3,A
        LCALL     `??osal_memcpy::?relay`; Banked call to: osal_memcpy
        MOV       A,#0x3
        LCALL     ?DEALLOC_XSTACK8
          CFI CFA_XSP16 add(XSP16, 127)
// 1916       }
// 1917     break;
// 1918   }
// 1919 
// 1920 
// 1921   osal_msg_send(gp_TaskID,(uint8*)gp_SecRsp);
??GP_SecReq_12:
        ; Setup parameters for call to function osal_msg_send
        MOV       A,R6
        MOV       R2,A
        MOV       A,R7
        MOV       R3,A
        MOV       DPTR,#gp_TaskID
        MOVX      A,@DPTR
        MOV       R1,A
        LCALL     `??osal_msg_send::?relay`; Banked call to: osal_msg_send
// 1922   return TRUE;
        MOV       R1,#0x1
??GP_SecReq_1:
        MOV       A,#0x67
        LCALL     ?DEALLOC_XSTACK8
          CFI CFA_XSP16 add(XSP16, 24)
        MOV       R7,#0x10
        LJMP      ?BANKED_LEAVE_XDATA
// 1923 }
          CFI EndBlock cfiBlock202

        RSEG BANKED_CODE:HUGECODE:NOROOT(0)
?Subroutine21:
          CFI Block cfiCond203 Using cfiCommon0
          CFI Function gp_ZclPairingParse
          CFI Conditional ??CrossCallReturnLabel_20
          CFI R6 load(1, XDATA, add(CFA_XSP16, literal(-20)))
          CFI VB load(1, XDATA, add(CFA_XSP16, literal(-19)))
          CFI V0 load(1, XDATA, add(CFA_XSP16, literal(-18)))
          CFI V1 load(1, XDATA, add(CFA_XSP16, literal(-17)))
          CFI V2 load(1, XDATA, add(CFA_XSP16, literal(-16)))
          CFI V3 load(1, XDATA, add(CFA_XSP16, literal(-15)))
          CFI V4 load(1, XDATA, add(CFA_XSP16, literal(-14)))
          CFI V5 load(1, XDATA, add(CFA_XSP16, literal(-13)))
          CFI V6 load(1, XDATA, add(CFA_XSP16, literal(-12)))
          CFI V7 load(1, XDATA, add(CFA_XSP16, literal(-11)))
          CFI V8 load(1, XDATA, add(CFA_XSP16, literal(-10)))
          CFI V9 load(1, XDATA, add(CFA_XSP16, literal(-9)))
          CFI V10 load(1, XDATA, add(CFA_XSP16, literal(-8)))
          CFI V11 load(1, XDATA, add(CFA_XSP16, literal(-7)))
          CFI R7 load(1, XDATA, add(CFA_XSP16, literal(-6)))
          CFI ?RET_LOW load(1, XDATA, add(CFA_XSP16, literal(-5)))
          CFI ?RET_HIGH load(1, XDATA, add(CFA_XSP16, literal(-4)))
          CFI ?BRET_EXT load(1, XDATA, add(CFA_XSP16, literal(-3)))
          CFI DPL0 load(1, XDATA, add(CFA_XSP16, literal(-2)))
          CFI DPH0 load(1, XDATA, add(CFA_XSP16, literal(-1)))
          CFI CFA_SP SP+-2
          CFI CFA_XSP16 add(XSP16, 85)
          CFI Block cfiCond204 Using cfiCommon0
          CFI (cfiCond204) Function GP_SecReq
          CFI (cfiCond204) Conditional ??CrossCallReturnLabel_21
          CFI (cfiCond204) R6 load(1, XDATA, add(CFA_XSP16, literal(-24)))
          CFI (cfiCond204) VB load(1, XDATA, add(CFA_XSP16, literal(-23)))
          CFI (cfiCond204) V0 load(1, XDATA, add(CFA_XSP16, literal(-22)))
          CFI (cfiCond204) V1 load(1, XDATA, add(CFA_XSP16, literal(-21)))
          CFI (cfiCond204) V2 load(1, XDATA, add(CFA_XSP16, literal(-20)))
          CFI (cfiCond204) V3 load(1, XDATA, add(CFA_XSP16, literal(-19)))
          CFI (cfiCond204) V4 load(1, XDATA, add(CFA_XSP16, literal(-18)))
          CFI (cfiCond204) V5 load(1, XDATA, add(CFA_XSP16, literal(-17)))
          CFI (cfiCond204) V6 load(1, XDATA, add(CFA_XSP16, literal(-16)))
          CFI (cfiCond204) V7 load(1, XDATA, add(CFA_XSP16, literal(-15)))
          CFI (cfiCond204) V8 load(1, XDATA, add(CFA_XSP16, literal(-14)))
          CFI (cfiCond204) V9 load(1, XDATA, add(CFA_XSP16, literal(-13)))
          CFI (cfiCond204) V10 load(1, XDATA, add(CFA_XSP16, literal(-12)))
          CFI (cfiCond204) V11 load(1, XDATA, add(CFA_XSP16, literal(-11)))
          CFI (cfiCond204) V12 load(1, XDATA, add(CFA_XSP16, literal(-10)))
          CFI (cfiCond204) V13 load(1, XDATA, add(CFA_XSP16, literal(-9)))
          CFI (cfiCond204) V14 load(1, XDATA, add(CFA_XSP16, literal(-8)))
          CFI (cfiCond204) V15 load(1, XDATA, add(CFA_XSP16, literal(-7)))
          CFI (cfiCond204) R7 load(1, XDATA, add(CFA_XSP16, literal(-6)))
          CFI (cfiCond204) ?RET_LOW load(1, XDATA, add(CFA_XSP16, literal(-5)))
          CFI (cfiCond204) ?RET_HIGH load(1, XDATA, add(CFA_XSP16, literal(-4)))
          CFI (cfiCond204) ?BRET_EXT load(1, XDATA, add(CFA_XSP16, literal(-3)))
          CFI (cfiCond204) DPL0 load(1, XDATA, add(CFA_XSP16, literal(-2)))
          CFI (cfiCond204) DPH0 load(1, XDATA, add(CFA_XSP16, literal(-1)))
          CFI (cfiCond204) CFA_SP SP+-2
          CFI (cfiCond204) CFA_XSP16 add(XSP16, 127)
          CFI Block cfiPicker205 Using cfiCommon1
          CFI (cfiPicker205) NoFunction
          CFI (cfiPicker205) Picker
        MOVX      A,@DPTR
        MOV       R0,A
        MOV       DPL,?V2
        MOV       DPH,?V3
        RET
          CFI EndBlock cfiCond203
          CFI EndBlock cfiCond204
          CFI EndBlock cfiPicker205
// 1924 
// 1925 /*********************************************************************
// 1926  * @fn          GP_RecoveryKey
// 1927  *
// 1928  * @brief       Procedure to retrive the key to be used to decrypt the GPDF
// 1929  *
// 1930  * @param       GPDFKeyType   KeyType from the GPDF
// 1931  * @param       KeyType       Key type in the Proxy table entry for this GPD
// 1932  * @param       Status        Previous status to search key (MATCH, TX_THEN_DROP)
// 1933  * @param       Key[out]      Key to be used
// 1934  *                       
// 1935  * @return      Status
// 1936  */
// 1937 uint8 GP_RecoveryKey(uint8 GPDFKeyType,uint8 KeyType, uint8 status, uint8 *Key)
// 1938 {
// 1939   uint8 TempKey[SEC_KEY_LEN] = {0xFF};
// 1940   //TODO: A.3.7.3.4 Incoming frames: key recovery
// 1941   if(GPDFKeyType)
// 1942   {
// 1943     if(KeyType == GP_SECURITY_KEY_TYPE_OUT_OF_BOX_GPD_KEY)
// 1944     {
// 1945       //Is the key of the Proxy table entry empty?
// 1946       if(osal_memcmp(&Key,&TempKey,SEC_KEY_LEN))
// 1947       {
// 1948         return GP_SEC_RSP_DROP_FRAME;
// 1949       }          
// 1950       else
// 1951       {
// 1952         //There is a key, then use it
// 1953         return status;
// 1954       }
// 1955     }
// 1956     else if(KeyType == GP_SECURITY_KEY_TYPE_DERIVED_IND_GPD_KEY)
// 1957     {
// 1958       //Is the key of the Proxy table entry empty?
// 1959       if(osal_memcmp(&Key,&TempKey,SEC_KEY_LEN))
// 1960       {
// 1961         return GP_SEC_RSP_DROP_FRAME;
// 1962       }  
// 1963       //There is a key, then use it. Derived keys are provided by the Sink 
// 1964       //device at paring time according to A.3.7.1.2.2
// 1965       return status;
// 1966     }
// 1967     else
// 1968     {
// 1969       return GP_SEC_RSP_DROP_FRAME;
// 1970     }
// 1971   }
// 1972   else
// 1973   {
// 1974     uint8  gpSharedSecKeyType;
// 1975     uint16 AttLen;
// 1976 
// 1977     //Get the SharedKeyType Attribute
// 1978     zcl_ReadAttrData(GREEN_POWER_INTERNAL_ENDPOINT,ZCL_CLUSTER_ID_GREEN_POWER,ATTRID_GP_SHARED_SEC_KEY_TYPE,&gpSharedSecKeyType,&AttLen);
// 1979 
// 1980     if(KeyType == gpSharedSecKeyType)
// 1981     {
// 1982       if(!osal_memcmp(TempKey,zgpSharedKey,SEC_KEY_LEN))
// 1983       {
// 1984         //Use key shared key
// 1985         osal_memcpy(Key,zgpSharedKey,SEC_KEY_LEN);
// 1986         return status;
// 1987       }
// 1988     }
// 1989     if(KeyType == GP_SECURITY_KEY_TYPE_ZIGBEE_NWK_KEY)
// 1990     {
// 1991       ZDSecMgrReadKeyFromNv(ZCD_NV_PRECFGKEY,Key);
// 1992     }
// 1993     //There is a key, then use it. Derived keys are provided by the Sink 
// 1994     //device at paring time according to A.3.7.1.2.2
// 1995     else
// 1996     {
// 1997       return GP_SEC_RSP_DROP_FRAME;
// 1998     }
// 1999   }
// 2000   return status;
// 2001 }
// 2002 
// 2003 
// 2004 gp_DataInd_t* gp_DataIndFindDuplicate(uint8 handle, uint8 secLvl)
// 2005 {
// 2006   gp_DataInd_t* temp;
// 2007   gp_DataInd_t* tempList;
// 2008   temp = gp_DataIndGet(handle);
// 2009   
// 2010   if(temp != NULL)
// 2011   {
// 2012     tempList = gp_DataIndList;
// 2013     
// 2014     while(tempList != NULL)
// 2015     {
// 2016       //search for MAC seq num
// 2017       if(secLvl == 0)
// 2018       {
// 2019         if((temp->SeqNumber == tempList->SeqNumber) && (temp->appID == tempList->appID)&&
// 2020            (temp->SecReqHandling.dGPStubHandle != tempList->SecReqHandling.dGPStubHandle))
// 2021         {
// 2022           break;
// 2023         }
// 2024       }
// 2025       //Other secLevels uses SecFrameCounter
// 2026       else
// 2027       {
// 2028         if((temp->GPDSecFrameCounter == tempList->GPDSecFrameCounter) && 
// 2029            (temp->SecReqHandling.dGPStubHandle != tempList->SecReqHandling.dGPStubHandle))
// 2030         {
// 2031           
// 2032           break;
// 2033         }
// 2034       }
// 2035       tempList = tempList->SecReqHandling.next;
// 2036     }
// 2037   }
// 2038   return tempList;
// 2039 }
// 2040  
// 2041 /*********************************************************************
// 2042  * @fn          GP_DataCnf
// 2043  *
// 2044  * @brief       Primitive to notify GP EndPoint the status of a previews DataReq
// 2045  *
// 2046  * @param       gp_DataCnf
// 2047  *
// 2048  * @return      none
// 2049  */

        RSEG BANKED_CODE:HUGECODE:NOROOT(0)
// 2050 void GP_DataCnf(gp_DataCnf_t *gp_DataCnf)
GP_DataCnf:
          CFI Block cfiBlock206 Using cfiCommon0
          CFI Function GP_DataCnf
        CODE
// 2051 {
        ; Saved register size: 0
        ; Auto size: 0
// 2052   //Current spec does not mandates to do anything with this.
// 2053   switch(gp_DataCnf->status)
// 2054   {
// 2055     case GP_DATA_CNF_TX_QUEUE_FULL:
// 2056     case GP_DATA_CNF_ENTRY_REPLACED:
// 2057     case GP_DATA_CNF_ENTRY_ADDED:
// 2058     case GP_DATA_CNF_ENTRY_EXPIRED:
// 2059     case GP_DATA_CNF_ENTRY_REMOVED:
// 2060     case GP_DATA_CNF_GPDF_SENDING_FINALIZED:
// 2061     break;
// 2062   }  
// 2063 }
        LJMP      ?BRET
          CFI EndBlock cfiBlock206
// 2064 
// 2065  /*********************************************************************
// 2066  * PRIVATE FUNCTIONS
// 2067  *********************************************************************/
// 2068 

        RSEG BANKED_CODE:HUGECODE:NOROOT(0)
// 2069 void gp_RegisterCommissioningModeCB(gpCommissioningMode_t gpCommissioningMode)
gp_RegisterCommissioningModeCB:
          CFI Block cfiBlock207 Using cfiCommon0
          CFI Function gp_RegisterCommissioningModeCB
        CODE
// 2070 {
        PUSH      DPL
          CFI DPL0 Frame(CFA_SP, 4)
          CFI CFA_SP SP+-4
        PUSH      DPH
          CFI DPH0 Frame(CFA_SP, 5)
          CFI CFA_SP SP+-5
        ; Saved register size: 2
        ; Auto size: 0
// 2071   if(gpCommissioningMode)
        MOV       A,R2
        ORL       A,R3
        JZ        ??gp_RegisterCommissioningModeCB_0
// 2072   {
// 2073      pfnCommissioningMode = gpCommissioningMode;
        MOV       DPTR,#pfnCommissioningMode
        MOV       A,R2
        MOVX      @DPTR,A
        INC       DPTR
        MOV       A,R3
        MOVX      @DPTR,A
// 2074   }
// 2075 }
??gp_RegisterCommissioningModeCB_0:
        LJMP      ??Subroutine35_0 & 0xFFFF
          CFI EndBlock cfiBlock207
// 2076 
// 2077 /*********************************************************************
// 2078  * @fn          gp_RegisterGPChangeChannelReqCB
// 2079  *
// 2080  * @brief       Register a callback in which the application will be notified about a change
// 2081  *              of channel for at most gpBirectionalCommissioningChangeChannelTimeout ms
// 2082  *              to perform GP bidirectional commissioning in the channel parameter.
// 2083  *
// 2084  * @param       gpChangeChannelReq
// 2085  *
// 2086  * @return      none
// 2087  */

        RSEG BANKED_CODE:HUGECODE:NOROOT(0)
// 2088 void gp_RegisterGPChangeChannelReqCB(gpChangeChannelReq_t gpChangeChannelReq)
gp_RegisterGPChangeChannelReqCB:
          CFI Block cfiBlock208 Using cfiCommon0
          CFI Function gp_RegisterGPChangeChannelReqCB
        CODE
// 2089 {
        PUSH      DPL
          CFI DPL0 Frame(CFA_SP, 4)
          CFI CFA_SP SP+-4
        PUSH      DPH
          CFI DPH0 Frame(CFA_SP, 5)
          CFI CFA_SP SP+-5
        ; Saved register size: 2
        ; Auto size: 0
// 2090   if(gpChangeChannelReq)
        MOV       A,R2
        ORL       A,R3
        JZ        ??gp_RegisterGPChangeChannelReqCB_0
// 2091   {
// 2092     pfnChangeChannelReq = gpChangeChannelReq;
        MOV       DPTR,#pfnChangeChannelReq
        MOV       A,R2
        MOVX      @DPTR,A
        INC       DPTR
        MOV       A,R3
        MOVX      @DPTR,A
// 2093   }
// 2094 }
??gp_RegisterGPChangeChannelReqCB_0:
        LJMP      ??Subroutine35_0 & 0xFFFF
          CFI EndBlock cfiBlock208
// 2095 
// 2096 /*********************************************************************
// 2097  * @fn          gp_RegisterGPChangeChannelReqForBDBCB
// 2098  *
// 2099  * @brief       Register a callback in which the bdb will be notified about a change
// 2100  *              of channel for at most gpBirectionalCommissioningChangeChannelTimeout ms
// 2101  *              to perform GP bidirectional commissioning in the channel parameter.
// 2102  *
// 2103  * @param       gpChangeChannelReq
// 2104  *
// 2105  * @return      none
// 2106  */

        RSEG BANKED_CODE:HUGECODE:NOROOT(0)
// 2107 void gp_RegisterGPChangeChannelReqForBDBCB(gpChangeChannelReq_t gpChangeChannelReq)
gp_RegisterGPChangeChannelReqForBDBCB:
          CFI Block cfiBlock209 Using cfiCommon0
          CFI Function gp_RegisterGPChangeChannelReqForBDBCB
        CODE
// 2108 {
        PUSH      DPL
          CFI DPL0 Frame(CFA_SP, 4)
          CFI CFA_SP SP+-4
        PUSH      DPH
          CFI DPH0 Frame(CFA_SP, 5)
          CFI CFA_SP SP+-5
        ; Saved register size: 2
        ; Auto size: 0
// 2109   if(gpChangeChannelReq)
        MOV       A,R2
        ORL       A,R3
        JZ        ??gp_RegisterGPChangeChannelReqForBDBCB_0
// 2110   {
// 2111     pfnChangeChannelReqForBDB = gpChangeChannelReq;
        MOV       DPTR,#pfnChangeChannelReqForBDB
        MOV       A,R2
        MOVX      @DPTR,A
        INC       DPTR
        MOV       A,R3
        MOVX      @DPTR,A
// 2112   }
// 2113 }
??gp_RegisterGPChangeChannelReqForBDBCB_0:
        LJMP      ??Subroutine35_0 & 0xFFFF
          CFI EndBlock cfiBlock209
// 2114 
// 2115 
// 2116 
// 2117 
// 2118 /*********************************************************************
// 2119  * @fn          gp_returnOperationalChannel
// 2120  *
// 2121  * @brief       Return to the operational channel after bidirectional commissioning
// 2122  *
// 2123  * @param       none
// 2124  *
// 2125  * @return      none
// 2126  */

        RSEG BANKED_CODE:HUGECODE:NOROOT(0)
// 2127 void gp_returnOperationalChannel(void)
gp_returnOperationalChannel:
          CFI Block cfiBlock210 Using cfiCommon0
          CFI Function gp_returnOperationalChannel
        CODE
// 2128 {
        FUNCALL gp_returnOperationalChannel, ZMacSetReq
        LOCFRAME ISTACK, 2, STACK
        LOCFRAME PSTACK, 0, STACK
        LOCFRAME XSTACK, 21, STACK
        LOCFRAME IOVERLAY, 0, STATIC
        LOCFRAME DOVERLAY, 0, STATIC
        ARGFRAME ISTACK, 2, STACK
        ARGFRAME PSTACK, 0, STACK
        ARGFRAME XSTACK, 21, STACK
        ARGFRAME IOVERLAY, 0, STATIC
        ARGFRAME DOVERLAY, 0, STATIC
        FUNCALL gp_returnOperationalChannel, osal_stop_timerEx
        LOCFRAME ISTACK, 2, STACK
        LOCFRAME PSTACK, 0, STACK
        LOCFRAME XSTACK, 21, STACK
        LOCFRAME IOVERLAY, 0, STATIC
        LOCFRAME DOVERLAY, 0, STATIC
        ARGFRAME ISTACK, 2, STACK
        ARGFRAME PSTACK, 0, STACK
        ARGFRAME XSTACK, 21, STACK
        ARGFRAME IOVERLAY, 0, STATIC
        ARGFRAME DOVERLAY, 0, STATIC
        FUNCALL gp_returnOperationalChannel, GP_DataReq
        LOCFRAME ISTACK, 2, STACK
        LOCFRAME PSTACK, 0, STACK
        LOCFRAME XSTACK, 21, STACK
        LOCFRAME IOVERLAY, 0, STATIC
        LOCFRAME DOVERLAY, 0, STATIC
        ARGFRAME ISTACK, 2, STACK
        ARGFRAME PSTACK, 0, STACK
        ARGFRAME XSTACK, 21, STACK
        ARGFRAME IOVERLAY, 0, STATIC
        ARGFRAME DOVERLAY, 0, STATIC
        PUSH      DPL
          CFI DPL0 Frame(CFA_SP, 4)
          CFI CFA_SP SP+-4
        PUSH      DPH
          CFI DPH0 Frame(CFA_SP, 5)
          CFI CFA_SP SP+-5
        ; Saved register size: 2
        ; Auto size: 21
        MOV       A,#-0x15
        LCALL     ?ALLOC_XSTACK8
          CFI CFA_XSP16 add(XSP16, 21)
// 2129   gp_DataReq_t gp_DataReq;
// 2130   _NIB.nwkLogicalChannel = gp_tempLogicalChannel;
        MOV       DPTR,#gp_tempLogicalChannel
        LCALL     ?Subroutine17 & 0xFFFF
// 2131   ZMacSetReq( ZMacChannel, &(_NIB.nwkLogicalChannel) );
??CrossCallReturnLabel_15:
        LCALL     `??ZMacSetReq::?relay`; Banked call to: ZMacSetReq
// 2132   osal_stop_timerEx(gp_TaskID,GP_CHANNEL_CONFIGURATION_TIMEOUT);
        ; Setup parameters for call to function osal_stop_timerEx
        MOV       R2,#0x8
        MOV       R3,#0x0
        MOV       DPTR,#gp_TaskID
        MOVX      A,@DPTR
        MOV       R1,A
        LCALL     `??osal_stop_timerEx::?relay`; Banked call to: osal_stop_timerEx
// 2133   
// 2134   gp_DataReq.Action = 0;
        MOV       A,#0x2
        LCALL     ?XSTACK_DISP0_8
        CLR       A
        MOVX      @DPTR,A
// 2135   gp_DataReq.gpd_ID.AppID = GP_APP_ID_DEFAULT;
        MOV       A,#0x4
        LCALL     ?XSTACK_DISP0_8
        CLR       A
        MOVX      @DPTR,A
// 2136   gp_DataReq.gpd_ID.GPDId.SrcID = 0;
        MOV       A,#0x5
        LCALL     ?XSTACK_DISP0_8
        CLR       A
        LCALL     ??Subroutine36_0 & 0xFFFF
// 2137   
// 2138   GP_DataReq(&gp_DataReq);
??CrossCallReturnLabel_51:
        ; Setup parameters for call to function GP_DataReq
        MOV       R2,?XSP + 0
        MOV       R3,?XSP + 1
        LCALL     `??GP_DataReq::?relay`; Banked call to: GP_DataReq
// 2139 }
        MOV       A,#0x15
        LJMP      ?Subroutine0 & 0xFFFF
          CFI EndBlock cfiBlock210

        RSEG BANKED_CODE:HUGECODE:NOROOT(0)
?Subroutine17:
          CFI Block cfiCond211 Using cfiCommon0
          CFI Function zclGp_GpResponseCommandCB
          CFI Conditional ??CrossCallReturnLabel_14
          CFI R6 load(1, XDATA, add(CFA_XSP16, literal(-22)))
          CFI VB load(1, XDATA, add(CFA_XSP16, literal(-21)))
          CFI V0 load(1, XDATA, add(CFA_XSP16, literal(-20)))
          CFI V1 load(1, XDATA, add(CFA_XSP16, literal(-19)))
          CFI V2 load(1, XDATA, add(CFA_XSP16, literal(-18)))
          CFI V3 load(1, XDATA, add(CFA_XSP16, literal(-17)))
          CFI V4 load(1, XDATA, add(CFA_XSP16, literal(-16)))
          CFI V5 load(1, XDATA, add(CFA_XSP16, literal(-15)))
          CFI V6 load(1, XDATA, add(CFA_XSP16, literal(-14)))
          CFI V7 load(1, XDATA, add(CFA_XSP16, literal(-13)))
          CFI V8 load(1, XDATA, add(CFA_XSP16, literal(-12)))
          CFI V9 load(1, XDATA, add(CFA_XSP16, literal(-11)))
          CFI V10 load(1, XDATA, add(CFA_XSP16, literal(-10)))
          CFI V11 load(1, XDATA, add(CFA_XSP16, literal(-9)))
          CFI V12 load(1, XDATA, add(CFA_XSP16, literal(-8)))
          CFI V13 load(1, XDATA, add(CFA_XSP16, literal(-7)))
          CFI R7 load(1, XDATA, add(CFA_XSP16, literal(-6)))
          CFI ?RET_LOW load(1, XDATA, add(CFA_XSP16, literal(-5)))
          CFI ?RET_HIGH load(1, XDATA, add(CFA_XSP16, literal(-4)))
          CFI ?BRET_EXT load(1, XDATA, add(CFA_XSP16, literal(-3)))
          CFI DPL0 load(1, XDATA, add(CFA_XSP16, literal(-2)))
          CFI DPH0 load(1, XDATA, add(CFA_XSP16, literal(-1)))
          CFI CFA_SP SP+-2
          CFI CFA_XSP16 add(XSP16, 98)
          CFI Block cfiCond212 Using cfiCommon0
          CFI (cfiCond212) Function gp_returnOperationalChannel
          CFI (cfiCond212) Conditional ??CrossCallReturnLabel_15
          CFI (cfiCond212) DPL0 Frame(CFA_SP, 4)
          CFI (cfiCond212) DPH0 Frame(CFA_SP, 5)
          CFI (cfiCond212) CFA_SP SP+-7
          CFI (cfiCond212) CFA_XSP16 add(XSP16, 21)
          CFI Block cfiPicker213 Using cfiCommon1
          CFI (cfiPicker213) NoFunction
          CFI (cfiPicker213) Picker
        MOVX      A,@DPTR
        MOV       DPTR,#_NIB + 22
        MOVX      @DPTR,A
        ; Setup parameters for call to function ZMacSetReq
        ; Setup parameters for call to function ZMacSetReq
        MOV       R2,#(_NIB + 22) & 0xff
        MOV       R3,#((_NIB + 22) >> 8) & 0xff
        MOV       R1,#-0x1f
        RET
          CFI EndBlock cfiCond211
          CFI EndBlock cfiCond212
          CFI EndBlock cfiPicker213
// 2140 
// 2141      
// 2142  /*********************************************************************
// 2143  * @fn          gp_expireDuplicateFiltering
// 2144  *
// 2145  * @brief       Process the expiration of the packets in the duplicate filtering
// 2146  *              list. Assumption is the first in the queue is the first into expire.
// 2147  *
// 2148  * @param       none
// 2149  *
// 2150  * @return      none
// 2151  */    

        RSEG BANKED_CODE:HUGECODE:NOROOT(0)
// 2152 void gp_expireDuplicateFiltering(void)
gp_expireDuplicateFiltering:
          CFI Block cfiBlock214 Using cfiCommon0
          CFI Function gp_expireDuplicateFiltering
        CODE
// 2153 {
        FUNCALL gp_expireDuplicateFiltering, gp_DataIndReleaseFromList
        LOCFRAME ISTACK, 0, STACK
        LOCFRAME PSTACK, 0, STACK
        LOCFRAME XSTACK, 12, STACK
        LOCFRAME IOVERLAY, 0, STATIC
        LOCFRAME DOVERLAY, 0, STATIC
        ARGFRAME ISTACK, 0, STACK
        ARGFRAME PSTACK, 0, STACK
        ARGFRAME XSTACK, 12, STACK
        ARGFRAME IOVERLAY, 0, STATIC
        ARGFRAME DOVERLAY, 0, STATIC
        FUNCALL gp_expireDuplicateFiltering, osal_start_timerEx
        LOCFRAME ISTACK, 0, STACK
        LOCFRAME PSTACK, 0, STACK
        LOCFRAME XSTACK, 16, STACK
        LOCFRAME IOVERLAY, 0, STATIC
        LOCFRAME DOVERLAY, 0, STATIC
        ARGFRAME ISTACK, 0, STACK
        ARGFRAME PSTACK, 0, STACK
        ARGFRAME XSTACK, 16, STACK
        ARGFRAME IOVERLAY, 0, STATIC
        ARGFRAME DOVERLAY, 0, STATIC
        REQUIRE ?V0
        REQUIRE ?V1
        REQUIRE ?V2
        REQUIRE ?V3
        MOV       A,#-0xc
        LCALL     ?BANKED_ENTER_XDATA
          CFI DPH0 load(1, XDATA, add(CFA_XSP16, literal(-1)))
          CFI DPL0 load(1, XDATA, add(CFA_XSP16, literal(-2)))
          CFI ?BRET_EXT load(1, XDATA, add(CFA_XSP16, literal(-3)))
          CFI ?RET_HIGH load(1, XDATA, add(CFA_XSP16, literal(-4)))
          CFI ?RET_LOW load(1, XDATA, add(CFA_XSP16, literal(-5)))
          CFI R7 load(1, XDATA, add(CFA_XSP16, literal(-6)))
          CFI V3 load(1, XDATA, add(CFA_XSP16, literal(-7)))
          CFI V2 load(1, XDATA, add(CFA_XSP16, literal(-8)))
          CFI V1 load(1, XDATA, add(CFA_XSP16, literal(-9)))
          CFI V0 load(1, XDATA, add(CFA_XSP16, literal(-10)))
          CFI VB load(1, XDATA, add(CFA_XSP16, literal(-11)))
          CFI R6 load(1, XDATA, add(CFA_XSP16, literal(-12)))
          CFI CFA_SP SP+0
          CFI CFA_XSP16 add(XSP16, 12)
        ; Saved register size: 12
        ; Auto size: 0
// 2154   gp_DataInd_t * temp;
// 2155   uint32 timeout;
// 2156   
// 2157   temp = gp_DataIndList;
        MOV       DPTR,#gp_DataIndList
        MOVX      A,@DPTR
        MOV       R6,A
        INC       DPTR
        MOVX      A,@DPTR
        MOV       R7,A
// 2158   timeout = gp_DataIndList->SecReqHandling.timeout;
        MOV       DPTR,#gp_DataIndList
        LCALL     ?Subroutine14 & 0xFFFF
??CrossCallReturnLabel_116:
        INC       DPTR
        INC       DPTR
        INC       DPTR
        INC       DPTR
        INC       DPTR
        MOV       R0,#?V0
        LCALL     ?L_MOV_X
        SJMP      ??gp_expireDuplicateFiltering_0
// 2159   
// 2160   while(temp != NULL)
// 2161   {
// 2162     if(timeout >= temp->SecReqHandling.timeout)
// 2163     {
// 2164       gp_DataInd_t *expired = temp;   
??gp_expireDuplicateFiltering_1:
        MOV       A,R6
        MOV       R2,A
        MOV       A,R7
        MOV       R3,A
// 2165       
// 2166       temp = temp->SecReqHandling.next;
        MOV       A,R4
        MOV       R6,A
        MOV       A,R5
        MOV       R7,A
// 2167       gp_DataIndReleaseFromList(TRUE, expired,&gp_DataIndList);
        ; Setup parameters for call to function gp_DataIndReleaseFromList
        MOV       R4,#gp_DataIndList & 0xff
        MOV       R5,#(gp_DataIndList >> 8) & 0xff
        MOV       R1,#0x1
        LCALL     `??gp_DataIndReleaseFromList::?relay`; Banked call to: gp_DataIndReleaseFromList
// 2168     }
??gp_expireDuplicateFiltering_0:
        MOV       A,R6
        ORL       A,R7
        JZ        ??gp_expireDuplicateFiltering_2
        MOV       DPL,R6
        MOV       DPH,R7
        INC       DPTR
        INC       DPTR
        INC       DPTR
        MOVX      A,@DPTR
        MOV       R4,A
        INC       DPTR
        MOVX      A,@DPTR
        MOV       R5,A
        MOV       A,R6
        ADD       A,#0x5
        MOV       R0,A
        CLR       A
        ADDC      A,R7
        MOV       R1,A
        MOV       A,R0
        MOV       R2,A
        MOV       A,R1
        MOV       R3,A
        MOV       DPL,R2
        MOV       DPH,R3
        MOV       R0,#?V0
        LCALL     ?UL_GE_X
        JC        ??gp_expireDuplicateFiltering_1
// 2169     else
// 2170     {
// 2171       temp->SecReqHandling.timeout -= timeout;
        MOV       DPL,R2
        MOV       DPH,R3
        MOV       R0,#?V0
        LCALL     ?L_SUB_FROM_X
// 2172       temp = temp->SecReqHandling.next;
        MOV       A,R4
        MOV       R6,A
        MOV       A,R5
        MOV       R7,A
        SJMP      ??gp_expireDuplicateFiltering_0
// 2173     }
// 2174   }
// 2175   osal_start_timerEx(gp_TaskID, GP_DUPLICATE_FILTERING_TIMEOUT_EVENT, timeout);
??gp_expireDuplicateFiltering_2:
        ; Setup parameters for call to function osal_start_timerEx
        MOV       R0,#?V0
        LCALL     ?PUSH_XSTACK_I_FOUR
          CFI CFA_XSP16 add(XSP16, 16)
        MOV       R2,#0x2
        MOV       R3,#0x0
        MOV       DPTR,#gp_TaskID
        MOVX      A,@DPTR
        MOV       R1,A
        LCALL     `??osal_start_timerEx::?relay`; Banked call to: osal_start_timerEx
        MOV       A,#0x4
        LJMP      ?Subroutine4 & 0xFFFF
// 2176 }
          CFI EndBlock cfiBlock214

        RSEG XDATA_ID:CODE:NOROOT(0)
`?<Initializer for zclGp_gppMaxProxyTableEntrie`:
        DATA8
        DB 5

        RSEG XDATA_ID:CODE:NOROOT(0)
`?<Initializer for zclGp_gppNotificationRetryNu`:
        DATA8
        DB 2

        RSEG XDATA_ID:CODE:NOROOT(0)
`?<Initializer for zclGp_gppNotificationRetryTi`:
        DATA8
        DB 100

        RSEG XDATA_ID:CODE:NOROOT(0)
`?<Initializer for zclGp_gppMaxSearchCounter>`:
        DATA8
        DB 10

        RSEG XDATA_ID:CODE:NOROOT(0)
`?<Initializer for zclGp_gppFunctionality>`:
        DATA8
        DB 47
        DB 172
        DB 9

        RSEG XDATA_ID:CODE:NOROOT(0)
`?<Initializer for zclGp_gppActiveFunctionality`:
        DATA8
        DB 47
        DB 172
        DB 9

        RSEG XDATA_ID:CODE:NOROOT(0)
`?<Initializer for zclGp_gpSharedSecurityKey>`:
        DATA8
        DB 192
        DB 193
        DB 194
        DB 195
        DB 196
        DB 197
        DB 198
        DB 199
        DB 200
        DB 201
        DB 202
        DB 203
        DB 204
        DB 205
        DB 206
        DB 207

        RSEG XDATA_ID:CODE:NOROOT(0)
`?<Initializer for zclGp_gpLinkKey>`:
        DATA8
        DB 90
        DB 105
        DB 103
        DB 66
        DB 101
        DB 101
        DB 65
        DB 108
        DB 108
        DB 105
        DB 97
        DB 110
        DB 99
        DB 101
        DB 48
        DB 57

        RSEG XDATA_ID:CODE:NOROOT(0)
`?<Initializer for zclGp_clusterRevision>`:
        DATA16
        DW 1

        RSEG XDATA_ID:CODE:NOROOT(0)
`?<Initializer for gp_commissionerAddress>`:
        DATA16
        DW 65535

        RSEG XDATA_ID:CODE:NOROOT(0)
`?<Initializer for greenPower_EP_SimpleDesc>`:
        DATA8
        DB 242
        DATA16
        DW 41440
        DW 97
        DATA8
        DB 0
        DB 0
        DATA16
        DW 0H
        DATA8
        DB 1
        DATA16
        DW greenPower_EP_OutClusterList

        RSEG XDATA_ID:CODE:NOROOT(0)
`?<Initializer for zclGpProxy_CmdCallbacks>`:
        DATA16
        DW `??zclGp_GpPairingCommandCB::?relay`
        DW `??zclGp_GpProxyTableReqCB::?relay`
        DW `??zclGp_GpProxyCommissioningModeCB::?relay`
        DW `??zclGp_GpResponseCommandCB::?relay`

        RSEG BANK_RELAYS:CODE:REORDER:NOROOT(0)
`??gp_endpointInit::?relay`:
        CODE
        LCALL   ?BDISPATCH
        DATA24
        DC24    gp_endpointInit

        RSEG BANK_RELAYS:CODE:REORDER:NOROOT(0)
`??gp_stopCommissioningMode::?relay`:
        CODE
        LCALL   ?BDISPATCH
        DATA24
        DC24    gp_stopCommissioningMode

        RSEG BANK_RELAYS:CODE:REORDER:NOROOT(0)
`??zclGp_ManteinanceIndParse::?relay`:
        CODE
        LCALL   ?BDISPATCH
        DATA24
        DC24    zclGp_ManteinanceIndParse

        RSEG BANK_RELAYS:CODE:REORDER:NOROOT(0)
`??zclGp_DataIndParse::?relay`:
        CODE
        LCALL   ?BDISPATCH
        DATA24
        DC24    zclGp_DataIndParse

        RSEG BANK_RELAYS:CODE:REORDER:NOROOT(0)
`??zclGp_GpPairingCommandCB::?relay`:
        CODE
        LCALL   ?BDISPATCH
        DATA24
        DC24    zclGp_GpPairingCommandCB

        RSEG BANK_RELAYS:CODE:REORDER:NOROOT(0)
`??zclGp_GpProxyTableReqCB::?relay`:
        CODE
        LCALL   ?BDISPATCH
        DATA24
        DC24    zclGp_GpProxyTableReqCB

        RSEG BANK_RELAYS:CODE:REORDER:NOROOT(0)
`??zclGp_GpResponseCommandCB::?relay`:
        CODE
        LCALL   ?BDISPATCH
        DATA24
        DC24    zclGp_GpResponseCommandCB

        RSEG BANK_RELAYS:CODE:REORDER:NOROOT(0)
`??zclGp_GpProxyCommissioningModeCB::?relay`:
        CODE
        LCALL   ?BDISPATCH
        DATA24
        DC24    zclGp_GpProxyCommissioningModeCB

        RSEG BANK_RELAYS:CODE:REORDER:NOROOT(0)
`??gp_ZclPairingParse::?relay`:
        CODE
        LCALL   ?BDISPATCH
        DATA24
        DC24    gp_ZclPairingParse

        RSEG BANK_RELAYS:CODE:REORDER:NOROOT(0)
`??gp_ZclProxyTableReqParse::?relay`:
        CODE
        LCALL   ?BDISPATCH
        DATA24
        DC24    gp_ZclProxyTableReqParse

        RSEG BANK_RELAYS:CODE:REORDER:NOROOT(0)
`??gp_PopulateField::?relay`:
        CODE
        LCALL   ?BDISPATCH
        DATA24
        DC24    gp_PopulateField

        RSEG BANK_RELAYS:CODE:REORDER:NOROOT(0)
`??gp_ProxyTblInit::?relay`:
        CODE
        LCALL   ?BDISPATCH
        DATA24
        DC24    gp_ProxyTblInit

        RSEG BANK_RELAYS:CODE:REORDER:NOROOT(0)
`??gp_getProxyTableByGpId::?relay`:
        CODE
        LCALL   ?BDISPATCH
        DATA24
        DC24    gp_getProxyTableByGpId

        RSEG BANK_RELAYS:CODE:REORDER:NOROOT(0)
`??gp_SecurityOperationProxy::?relay`:
        CODE
        LCALL   ?BDISPATCH
        DATA24
        DC24    gp_SecurityOperationProxy

        RSEG BANK_RELAYS:CODE:REORDER:NOROOT(0)
`??gp_getProxyTableByIndex::?relay`:
        CODE
        LCALL   ?BDISPATCH
        DATA24
        DC24    gp_getProxyTableByIndex

        RSEG BANK_RELAYS:CODE:REORDER:NOROOT(0)
`??GP_DataInd::?relay`:
        CODE
        LCALL   ?BDISPATCH
        DATA24
        DC24    GP_DataInd

        RSEG BANK_RELAYS:CODE:REORDER:NOROOT(0)
`??GP_SecReq::?relay`:
        CODE
        LCALL   ?BDISPATCH
        DATA24
        DC24    GP_SecReq

        RSEG BANK_RELAYS:CODE:REORDER:NOROOT(0)
`??GP_DataCnf::?relay`:
        CODE
        LCALL   ?BDISPATCH
        DATA24
        DC24    GP_DataCnf

        RSEG BANK_RELAYS:CODE:REORDER:NOROOT(0)
`??gp_RegisterCommissioningModeCB::?relay`:
        CODE
        LCALL   ?BDISPATCH
        DATA24
        DC24    gp_RegisterCommissioningModeCB

        RSEG BANK_RELAYS:CODE:REORDER:NOROOT(0)
`??gp_RegisterGPChangeChannelReqCB::?relay`:
        CODE
        LCALL   ?BDISPATCH
        DATA24
        DC24    gp_RegisterGPChangeChannelReqCB

        RSEG BANK_RELAYS:CODE:REORDER:NOROOT(0)
`??gp_RegisterGPChangeChannelReqForBDBCB::?relay`:
        CODE
        LCALL   ?BDISPATCH
        DATA24
        DC24    gp_RegisterGPChangeChannelReqForBDBCB

        RSEG BANK_RELAYS:CODE:REORDER:NOROOT(0)
`??gp_returnOperationalChannel::?relay`:
        CODE
        LCALL   ?BDISPATCH
        DATA24
        DC24    gp_returnOperationalChannel

        RSEG BANK_RELAYS:CODE:REORDER:NOROOT(0)
`??gp_expireDuplicateFiltering::?relay`:
        CODE
        LCALL   ?BDISPATCH
        DATA24
        DC24    gp_expireDuplicateFiltering

        RSEG XDATA_ROM_C:CONST:REORDER:NOROOT(0)
        DATA16
`?<Constant {0, 0}>`:
        DATA8
        DB 0
        DB 0

        RSEG XDATA_ROM_C:CONST:REORDER:NOROOT(0)
        DATA8
`?<Constant {0, 0, {0, 0, 0, 0, 0, 0, 0, 0}, 0,`:
        DATA32
        DD 0
        DD 0
        DATA8
        DB 0
        DB 0
        DB 0
        DB 0
        DB 0
        DB 0
        DB 0
        DB 0
        DB 0
        DB 0
        DB 0
        DB 0
        DB 0
        DB 0
        DB 0
        DB 0
        DB 0
        DATA16
        DW 0
        DW 0
        DATA8
        DB 0
        DATA32
        DD 0
        DATA8
        DB 0
        DB 0
        DB 0
        DB 0
        DB 0
        DB 0
        DB 0
        DB 0
        DB 0
        DB 0
        DB 0
        DB 0
        DB 0
        DB 0
        DB 0
        DB 0
        DATA16
        DW 0
        DATA8
        DB 0

        RSEG XDATA_ROM_C:CONST:REORDER:NOROOT(0)
        DATA8
`?<Constant {0, 0, {0, 0, 0, 0, 0, 0, 0, 0}, 0,_1`:
        DB 0
        DATA32
        DD 0
        DATA8
        DB 0
        DB 0
        DB 0
        DB 0
        DB 0
        DB 0
        DB 0
        DB 0
        DB 0
        DB 0

        RSEG XDATA_ROM_C:CONST:REORDER:NOROOT(0)
        DATA8
`?<Constant {255, 0, 0, 0, 0, 0, 0, 0, 0, 0, 0,`:
        DB 255
        DB 0
        DB 0
        DB 0
        DB 0
        DB 0
        DB 0
        DB 0
        DB 0
        DB 0
        DB 0
        DB 0
        DB 0
        DB 0
        DB 0
        DB 0

        RSEG XDATA_ROM_C:CONST:REORDER:NOROOT(0)
        DATA32
__Constant_10000:
        DD 65536

        RSEG XDATA_ROM_C:CONST:REORDER:NOROOT(0)
        DATA32
__Constant_20000:
        DD 131072

        RSEG XDATA_ROM_C:CONST:REORDER:NOROOT(0)
        DATA32
__Constant_ff:
        DD 255

        RSEG XDATA_ROM_C:CONST:REORDER:NOROOT(0)
        DATA32
__Constant_ff00:
        DD 65280

        RSEG XDATA_ROM_C:CONST:REORDER:NOROOT(0)
        DATA32
__Constant_ff0000:
        DD 16711680

        RSEG XDATA_ROM_C:CONST:REORDER:NOROOT(0)
        DATA32
__Constant_1388:
        DD 5000

        END
// 2177 
// 2178 #endif
// 2179 /*********************************************************************
// 2180 *********************************************************************/
// 2181 
// 
// 7 019 bytes in segment BANKED_CODE
//   138 bytes in segment BANK_RELAYS
//   113 bytes in segment CODE_C
//    66 bytes in segment XDATA_I
//    66 bytes in segment XDATA_ID
//   118 bytes in segment XDATA_ROM_C
//    18 bytes in segment XDATA_Z
// 
//   317 bytes of CODE     memory
//    94 bytes of CONST    memory (+ 24 bytes shared)
// 7 019 bytes of HUGECODE memory
//    84 bytes of XDATA    memory
//
//Errors: none
//Warnings: none
