///////////////////////////////////////////////////////////////////////////////
//
// IAR C/C++ Compiler V10.10.1.4655 for 8051              26/Mar/2023  16:30:20
// Copyright 2004-2017 IAR Systems AB.
// Standalone license - IAR Embedded Workbench for 8051
//
//    Core               =  plain
//    Code model         =  banked
//    Data model         =  large
//    Calling convention =  xdata reentrant
//    Constant location  =  data_rom
//    Dptr setup         =  1,16
//                          
//    Source file        =  
//        D:\×ÀÃæ\¡¶ZigBee3.0¿ª·¢Ö¸ÄÏ¡·ÅäÌ××ÊÔ´£¨¸½¼Ó²¿·Ö£©\¿ÎÍâÆª£ºÏîÄ¿ÊµÕ½\»ùÓÚZigbeeµÄÎÂÊª¶È
//        &
//        ¹âÕÕ¶È²É¼¯ÏµÍ³\ZigBeeÉè±¸¶Ë¹Ì¼þÓëÔ´Âë\Ô´Âë\Applications\OSAL_Application.c
//    Command line       =  
//        -f C:\Users\11148\AppData\Local\Temp\EWCACB.tmp
//        ("D:\×ÀÃæ\¡¶ZigBee3.0¿ª·¢Ö¸ÄÏ¡·ÅäÌ××ÊÔ´£¨¸½¼Ó²¿·Ö£©\¿ÎÍâÆª£ºÏîÄ¿ÊµÕ½\»ùÓÚZigbeeµÄÎÂÊª¶È
//        &
//        ¹âÕÕ¶È²É¼¯ÏµÍ³\ZigBeeÉè±¸¶Ë¹Ì¼þÓëÔ´Âë\Ô´Âë\Applications\OSAL_Application.c"
//        -D SECURE=1 -D TC_LINKKEY_JOIN -D NV_INIT -D NV_RESTORE -D xZTOOL_P1
//        -D xMT_TASK -D xMT_APP_FUNC -D xMT_SYS_FUNC -D xMT_ZDO_FUNC -D
//        xMT_ZDO_MGMT -D xMT_APP_CNF_FUNC -D LCD_SUPPORTED=DEBUG -D
//        MULTICAST_ENABLED=FALSE -D ZCL_READ -D ZCL_DISCOVER -D ZCL_WRITE -D
//        ZCL_BASIC -D ZCL_IDENTIFY -D ZCL_ON_OFF -D ZCL_GROUPS -D
//        ZCL_LEVEL_CTRL -D HAL_KEY=TRUE -D xISR_KEYINTERRUPT -D HAL_UART=TRUE
//        -D INT_HEAP_LEN=2048 -D HAL_LCD=TRUE -D HAL_LCD_OLED12864=TRUE -lC
//        "D:\×ÀÃæ\¡¶ZigBee3.0¿ª·¢Ö¸ÄÏ¡·ÅäÌ××ÊÔ´£¨¸½¼Ó²¿·Ö£©\¿ÎÍâÆª£ºÏîÄ¿ÊµÕ½\»ùÓÚZigbeeµÄÎÂÊª¶È
//        &
//        ¹âÕÕ¶È²É¼¯ÏµÍ³\ZigBeeÉè±¸¶Ë¹Ì¼þÓëÔ´Âë\Ô´Âë\Projects\CC2530\Category\Coordinator\List"
//        -lA
//        "D:\×ÀÃæ\¡¶ZigBee3.0¿ª·¢Ö¸ÄÏ¡·ÅäÌ××ÊÔ´£¨¸½¼Ó²¿·Ö£©\¿ÎÍâÆª£ºÏîÄ¿ÊµÕ½\»ùÓÚZigbeeµÄÎÂÊª¶È
//        &
//        ¹âÕÕ¶È²É¼¯ÏµÍ³\ZigBeeÉè±¸¶Ë¹Ì¼þÓëÔ´Âë\Ô´Âë\Projects\CC2530\Category\Coordinator\List"
//        --diag_suppress Pe001,Pa010 -o
//        "D:\×ÀÃæ\¡¶ZigBee3.0¿ª·¢Ö¸ÄÏ¡·ÅäÌ××ÊÔ´£¨¸½¼Ó²¿·Ö£©\¿ÎÍâÆª£ºÏîÄ¿ÊµÕ½\»ùÓÚZigbeeµÄÎÂÊª¶È
//        &
//        ¹âÕÕ¶È²É¼¯ÏµÍ³\ZigBeeÉè±¸¶Ë¹Ì¼þÓëÔ´Âë\Ô´Âë\Projects\CC2530\Category\Coordinator\Obj"
//        -e --debug --core=plain --dptr=16,1 --data_model=large
//        --code_model=banked --calling_convention=xdata_reentrant
//        --place_constants=data_rom --nr_virtual_regs 16 -f
//        "D:\×ÀÃæ\¡¶ZigBee3.0¿ª·¢Ö¸ÄÏ¡·ÅäÌ××ÊÔ´£¨¸½¼Ó²¿·Ö£©\¿ÎÍâÆª£ºÏîÄ¿ÊµÕ½\»ùÓÚZigbeeµÄÎÂÊª¶È
//        &
//        ¹âÕÕ¶È²É¼¯ÏµÍ³\ZigBeeÉè±¸¶Ë¹Ì¼þÓëÔ´Âë\Ô´Âë\Projects\CC2530\Tools\f8wCoord.cfg"
//        (-DCPU32MHZ -DROOT=__near_func -DMAC_CFG_APP_PENDING_QUEUE=TRUE
//        -DMAC_CFG_TX_DATA_MAX=5 -DMAC_CFG_TX_MAX=8 -DMAC_CFG_RX_MAX=5
//        -DZDO_COORDINATOR -DRTR_NWK) -f
//        "D:\×ÀÃæ\¡¶ZigBee3.0¿ª·¢Ö¸ÄÏ¡·ÅäÌ××ÊÔ´£¨¸½¼Ó²¿·Ö£©\¿ÎÍâÆª£ºÏîÄ¿ÊµÕ½\»ùÓÚZigbeeµÄÎÂÊª¶È
//        &
//        ¹âÕÕ¶È²É¼¯ÏµÍ³\ZigBeeÉè±¸¶Ë¹Ì¼þÓëÔ´Âë\Ô´Âë\Projects\CC2530\Tools\f8wConfig.cfg"
//        (-DZIGBEEPRO -DSECURE=1 -DZG_SECURE_DYNAMIC=0 -DREFLECTOR
//        -DDEFAULT_CHANLIST=0x00000800 -DZDAPP_CONFIG_PAN_ID=0x0402
//        -DNWK_START_DELAY=100 -DEXTENDED_JOINING_RANDOM_MASK=0x007F
//        -DBEACON_REQUEST_DELAY=100 -DBEACON_REQ_DELAY_MASK=0x00FF
//        -DLINK_STATUS_JITTER_MASK=0x007F -DROUTE_EXPIRY_TIME=30
//        -DAPSC_ACK_WAIT_DURATION_POLLED=3000 -DNWK_INDIRECT_MSG_TIMEOUT=7
//        -DMAX_RREQ_ENTRIES=8 -DAPSC_MAX_FRAME_RETRIES=3
//        -DNWK_MAX_DATA_RETRIES=2 -DMAX_POLL_FAILURE_RETRIES=2 -DMAX_BCAST=9
//        -DAPS_MAX_GROUPS=16 -DMAX_RTG_ENTRIES=40 -DNWK_MAX_BINDING_ENTRIES=4
//        -DMAX_BINDING_CLUSTER_IDS=4 "-DDEFAULT_KEY={0x5a, 0x69, 0x67, 0x42,
//        0x65,0x65, 0x41, 0x6c, 0x6c, 0x69, 0x61, 0x6e, 0x63, 0x65, 0x30,
//        0x39}" -DMAC_MAX_FRAME_SIZE=116 -DZDNWKMGR_MIN_TRANSMISSIONS=20
//        "-DCONST=const __code" -DGENERIC=__generic -DRFD_RCVC_ALWAYS_ON=FALSE
//        -DPOLL_RATE=1000 -DQUEUED_POLL_RATE=100 -DRESPONSE_POLL_RATE=100
//        -DREJOIN_POLL_RATE=440 -DREJOIN_BACKOFF=900000 -DREJOIN_SCAN=900000
//        -DENABLE_LED4_DISABLE_S1) -f
//        "D:\×ÀÃæ\¡¶ZigBee3.0¿ª·¢Ö¸ÄÏ¡·ÅäÌ××ÊÔ´£¨¸½¼Ó²¿·Ö£©\¿ÎÍâÆª£ºÏîÄ¿ÊµÕ½\»ùÓÚZigbeeµÄÎÂÊª¶È
//        &
//        ¹âÕÕ¶È²É¼¯ÏµÍ³\ZigBeeÉè±¸¶Ë¹Ì¼þÓëÔ´Âë\Ô´Âë\Projects\CC2530\Tools\f8wZCL.cfg"
//        -I
//        "D:\×ÀÃæ\¡¶ZigBee3.0¿ª·¢Ö¸ÄÏ¡·ÅäÌ××ÊÔ´£¨¸½¼Ó²¿·Ö£©\¿ÎÍâÆª£ºÏîÄ¿ÊµÕ½\»ùÓÚZigbeeµÄÎÂÊª¶È
//        & ¹âÕÕ¶È²É¼¯ÏµÍ³\ZigBeeÉè±¸¶Ë¹Ì¼þÓëÔ´Âë\Ô´Âë\Projects\CC2530\" -I
//        "D:\×ÀÃæ\¡¶ZigBee3.0¿ª·¢Ö¸ÄÏ¡·ÅäÌ××ÊÔ´£¨¸½¼Ó²¿·Ö£©\¿ÎÍâÆª£ºÏîÄ¿ÊµÕ½\»ùÓÚZigbeeµÄÎÂÊª¶È
//        &
//        ¹âÕÕ¶È²É¼¯ÏµÍ³\ZigBeeÉè±¸¶Ë¹Ì¼þÓëÔ´Âë\Ô´Âë\Projects\CC2530\..\..\Components\hal\include\"
//        -I
//        "D:\×ÀÃæ\¡¶ZigBee3.0¿ª·¢Ö¸ÄÏ¡·ÅäÌ××ÊÔ´£¨¸½¼Ó²¿·Ö£©\¿ÎÍâÆª£ºÏîÄ¿ÊµÕ½\»ùÓÚZigbeeµÄÎÂÊª¶È
//        &
//        ¹âÕÕ¶È²É¼¯ÏµÍ³\ZigBeeÉè±¸¶Ë¹Ì¼þÓëÔ´Âë\Ô´Âë\Projects\CC2530\..\..\Components\hal\target\CC2530EB\"
//        -I
//        "D:\×ÀÃæ\¡¶ZigBee3.0¿ª·¢Ö¸ÄÏ¡·ÅäÌ××ÊÔ´£¨¸½¼Ó²¿·Ö£©\¿ÎÍâÆª£ºÏîÄ¿ÊµÕ½\»ùÓÚZigbeeµÄÎÂÊª¶È
//        &
//        ¹âÕÕ¶È²É¼¯ÏµÍ³\ZigBeeÉè±¸¶Ë¹Ì¼þÓëÔ´Âë\Ô´Âë\Projects\CC2530\..\..\Components\hal\userspace\"
//        -I
//        "D:\×ÀÃæ\¡¶ZigBee3.0¿ª·¢Ö¸ÄÏ¡·ÅäÌ××ÊÔ´£¨¸½¼Ó²¿·Ö£©\¿ÎÍâÆª£ºÏîÄ¿ÊµÕ½\»ùÓÚZigbeeµÄÎÂÊª¶È
//        &
//        ¹âÕÕ¶È²É¼¯ÏµÍ³\ZigBeeÉè±¸¶Ë¹Ì¼þÓëÔ´Âë\Ô´Âë\Projects\CC2530\..\..\Components\mac\include\"
//        -I
//        "D:\×ÀÃæ\¡¶ZigBee3.0¿ª·¢Ö¸ÄÏ¡·ÅäÌ××ÊÔ´£¨¸½¼Ó²¿·Ö£©\¿ÎÍâÆª£ºÏîÄ¿ÊµÕ½\»ùÓÚZigbeeµÄÎÂÊª¶È
//        &
//        ¹âÕÕ¶È²É¼¯ÏµÍ³\ZigBeeÉè±¸¶Ë¹Ì¼þÓëÔ´Âë\Ô´Âë\Projects\CC2530\..\..\Components\mac\high_level\"
//        -I
//        "D:\×ÀÃæ\¡¶ZigBee3.0¿ª·¢Ö¸ÄÏ¡·ÅäÌ××ÊÔ´£¨¸½¼Ó²¿·Ö£©\¿ÎÍâÆª£ºÏîÄ¿ÊµÕ½\»ùÓÚZigbeeµÄÎÂÊª¶È
//        &
//        ¹âÕÕ¶È²É¼¯ÏµÍ³\ZigBeeÉè±¸¶Ë¹Ì¼þÓëÔ´Âë\Ô´Âë\Projects\CC2530\..\..\Components\mac\low_level\srf04\"
//        -I
//        "D:\×ÀÃæ\¡¶ZigBee3.0¿ª·¢Ö¸ÄÏ¡·ÅäÌ××ÊÔ´£¨¸½¼Ó²¿·Ö£©\¿ÎÍâÆª£ºÏîÄ¿ÊµÕ½\»ùÓÚZigbeeµÄÎÂÊª¶È
//        &
//        ¹âÕÕ¶È²É¼¯ÏµÍ³\ZigBeeÉè±¸¶Ë¹Ì¼þÓëÔ´Âë\Ô´Âë\Projects\CC2530\..\..\Components\mac\low_level\srf04\single_chip\"
//        -I
//        "D:\×ÀÃæ\¡¶ZigBee3.0¿ª·¢Ö¸ÄÏ¡·ÅäÌ××ÊÔ´£¨¸½¼Ó²¿·Ö£©\¿ÎÍâÆª£ºÏîÄ¿ÊµÕ½\»ùÓÚZigbeeµÄÎÂÊª¶È
//        &
//        ¹âÕÕ¶È²É¼¯ÏµÍ³\ZigBeeÉè±¸¶Ë¹Ì¼þÓëÔ´Âë\Ô´Âë\Projects\CC2530\..\..\Components\mt\"
//        -I
//        "D:\×ÀÃæ\¡¶ZigBee3.0¿ª·¢Ö¸ÄÏ¡·ÅäÌ××ÊÔ´£¨¸½¼Ó²¿·Ö£©\¿ÎÍâÆª£ºÏîÄ¿ÊµÕ½\»ùÓÚZigbeeµÄÎÂÊª¶È
//        &
//        ¹âÕÕ¶È²É¼¯ÏµÍ³\ZigBeeÉè±¸¶Ë¹Ì¼þÓëÔ´Âë\Ô´Âë\Projects\CC2530\..\..\Components\osal\include\"
//        -I
//        "D:\×ÀÃæ\¡¶ZigBee3.0¿ª·¢Ö¸ÄÏ¡·ÅäÌ××ÊÔ´£¨¸½¼Ó²¿·Ö£©\¿ÎÍâÆª£ºÏîÄ¿ÊµÕ½\»ùÓÚZigbeeµÄÎÂÊª¶È
//        &
//        ¹âÕÕ¶È²É¼¯ÏµÍ³\ZigBeeÉè±¸¶Ë¹Ì¼þÓëÔ´Âë\Ô´Âë\Projects\CC2530\..\..\Components\services\saddr\"
//        -I
//        "D:\×ÀÃæ\¡¶ZigBee3.0¿ª·¢Ö¸ÄÏ¡·ÅäÌ××ÊÔ´£¨¸½¼Ó²¿·Ö£©\¿ÎÍâÆª£ºÏîÄ¿ÊµÕ½\»ùÓÚZigbeeµÄÎÂÊª¶È
//        &
//        ¹âÕÕ¶È²É¼¯ÏµÍ³\ZigBeeÉè±¸¶Ë¹Ì¼þÓëÔ´Âë\Ô´Âë\Projects\CC2530\..\..\Components\services\sdata\"
//        -I
//        "D:\×ÀÃæ\¡¶ZigBee3.0¿ª·¢Ö¸ÄÏ¡·ÅäÌ××ÊÔ´£¨¸½¼Ó²¿·Ö£©\¿ÎÍâÆª£ºÏîÄ¿ÊµÕ½\»ùÓÚZigbeeµÄÎÂÊª¶È
//        &
//        ¹âÕÕ¶È²É¼¯ÏµÍ³\ZigBeeÉè±¸¶Ë¹Ì¼þÓëÔ´Âë\Ô´Âë\Projects\CC2530\..\..\Components\stack\af\"
//        -I
//        "D:\×ÀÃæ\¡¶ZigBee3.0¿ª·¢Ö¸ÄÏ¡·ÅäÌ××ÊÔ´£¨¸½¼Ó²¿·Ö£©\¿ÎÍâÆª£ºÏîÄ¿ÊµÕ½\»ùÓÚZigbeeµÄÎÂÊª¶È
//        &
//        ¹âÕÕ¶È²É¼¯ÏµÍ³\ZigBeeÉè±¸¶Ë¹Ì¼þÓëÔ´Âë\Ô´Âë\Projects\CC2530\..\..\Components\stack\bdb\"
//        -I
//        "D:\×ÀÃæ\¡¶ZigBee3.0¿ª·¢Ö¸ÄÏ¡·ÅäÌ××ÊÔ´£¨¸½¼Ó²¿·Ö£©\¿ÎÍâÆª£ºÏîÄ¿ÊµÕ½\»ùÓÚZigbeeµÄÎÂÊª¶È
//        &
//        ¹âÕÕ¶È²É¼¯ÏµÍ³\ZigBeeÉè±¸¶Ë¹Ì¼þÓëÔ´Âë\Ô´Âë\Projects\CC2530\..\..\Components\stack\gp\"
//        -I
//        "D:\×ÀÃæ\¡¶ZigBee3.0¿ª·¢Ö¸ÄÏ¡·ÅäÌ××ÊÔ´£¨¸½¼Ó²¿·Ö£©\¿ÎÍâÆª£ºÏîÄ¿ÊµÕ½\»ùÓÚZigbeeµÄÎÂÊª¶È
//        &
//        ¹âÕÕ¶È²É¼¯ÏµÍ³\ZigBeeÉè±¸¶Ë¹Ì¼þÓëÔ´Âë\Ô´Âë\Projects\CC2530\..\..\Components\stack\nwk\"
//        -I
//        "D:\×ÀÃæ\¡¶ZigBee3.0¿ª·¢Ö¸ÄÏ¡·ÅäÌ××ÊÔ´£¨¸½¼Ó²¿·Ö£©\¿ÎÍâÆª£ºÏîÄ¿ÊµÕ½\»ùÓÚZigbeeµÄÎÂÊª¶È
//        &
//        ¹âÕÕ¶È²É¼¯ÏµÍ³\ZigBeeÉè±¸¶Ë¹Ì¼þÓëÔ´Âë\Ô´Âë\Projects\CC2530\..\..\Components\stack\sapi\"
//        -I
//        "D:\×ÀÃæ\¡¶ZigBee3.0¿ª·¢Ö¸ÄÏ¡·ÅäÌ××ÊÔ´£¨¸½¼Ó²¿·Ö£©\¿ÎÍâÆª£ºÏîÄ¿ÊµÕ½\»ùÓÚZigbeeµÄÎÂÊª¶È
//        &
//        ¹âÕÕ¶È²É¼¯ÏµÍ³\ZigBeeÉè±¸¶Ë¹Ì¼þÓëÔ´Âë\Ô´Âë\Projects\CC2530\..\..\Components\stack\sec\"
//        -I
//        "D:\×ÀÃæ\¡¶ZigBee3.0¿ª·¢Ö¸ÄÏ¡·ÅäÌ××ÊÔ´£¨¸½¼Ó²¿·Ö£©\¿ÎÍâÆª£ºÏîÄ¿ÊµÕ½\»ùÓÚZigbeeµÄÎÂÊª¶È
//        &
//        ¹âÕÕ¶È²É¼¯ÏµÍ³\ZigBeeÉè±¸¶Ë¹Ì¼þÓëÔ´Âë\Ô´Âë\Projects\CC2530\..\..\Components\stack\sys\"
//        -I
//        "D:\×ÀÃæ\¡¶ZigBee3.0¿ª·¢Ö¸ÄÏ¡·ÅäÌ××ÊÔ´£¨¸½¼Ó²¿·Ö£©\¿ÎÍâÆª£ºÏîÄ¿ÊµÕ½\»ùÓÚZigbeeµÄÎÂÊª¶È
//        &
//        ¹âÕÕ¶È²É¼¯ÏµÍ³\ZigBeeÉè±¸¶Ë¹Ì¼þÓëÔ´Âë\Ô´Âë\Projects\CC2530\..\..\Components\stack\zcl\"
//        -I
//        "D:\×ÀÃæ\¡¶ZigBee3.0¿ª·¢Ö¸ÄÏ¡·ÅäÌ××ÊÔ´£¨¸½¼Ó²¿·Ö£©\¿ÎÍâÆª£ºÏîÄ¿ÊµÕ½\»ùÓÚZigbeeµÄÎÂÊª¶È
//        &
//        ¹âÕÕ¶È²É¼¯ÏµÍ³\ZigBeeÉè±¸¶Ë¹Ì¼þÓëÔ´Âë\Ô´Âë\Projects\CC2530\..\..\Components\stack\zdo\"
//        -I
//        "D:\×ÀÃæ\¡¶ZigBee3.0¿ª·¢Ö¸ÄÏ¡·ÅäÌ××ÊÔ´£¨¸½¼Ó²¿·Ö£©\¿ÎÍâÆª£ºÏîÄ¿ÊµÕ½\»ùÓÚZigbeeµÄÎÂÊª¶È
//        &
//        ¹âÕÕ¶È²É¼¯ÏµÍ³\ZigBeeÉè±¸¶Ë¹Ì¼þÓëÔ´Âë\Ô´Âë\Projects\CC2530\..\..\Components\zmac\"
//        -I
//        "D:\×ÀÃæ\¡¶ZigBee3.0¿ª·¢Ö¸ÄÏ¡·ÅäÌ××ÊÔ´£¨¸½¼Ó²¿·Ö£©\¿ÎÍâÆª£ºÏîÄ¿ÊµÕ½\»ùÓÚZigbeeµÄÎÂÊª¶È
//        &
//        ¹âÕÕ¶È²É¼¯ÏµÍ³\ZigBeeÉè±¸¶Ë¹Ì¼þÓëÔ´Âë\Ô´Âë\Projects\CC2530\..\..\Components\zmac\f8w\"
//        -I
//        "D:\×ÀÃæ\¡¶ZigBee3.0¿ª·¢Ö¸ÄÏ¡·ÅäÌ××ÊÔ´£¨¸½¼Ó²¿·Ö£©\¿ÎÍâÆª£ºÏîÄ¿ÊµÕ½\»ùÓÚZigbeeµÄÎÂÊª¶È
//        &
//        ¹âÕÕ¶È²É¼¯ÏµÍ³\ZigBeeÉè±¸¶Ë¹Ì¼þÓëÔ´Âë\Ô´Âë\Projects\CC2530\..\..\Applications\"
//        -Ohz --require_prototypes)
//    Locale             =  Chinese (Simplified)_China.936
//    List file          =  
//        D:\×ÀÃæ\¡¶ZigBee3.0¿ª·¢Ö¸ÄÏ¡·ÅäÌ××ÊÔ´£¨¸½¼Ó²¿·Ö£©\¿ÎÍâÆª£ºÏîÄ¿ÊµÕ½\»ùÓÚZigbeeµÄÎÂÊª¶È
//        &
//        ¹âÕÕ¶È²É¼¯ÏµÍ³\ZigBeeÉè±¸¶Ë¹Ì¼þÓëÔ´Âë\Ô´Âë\Projects\CC2530\Category\Coordinator\List\OSAL_Application.s51
//
///////////////////////////////////////////////////////////////////////////////

        NAME OSAL_Application

        RTMODEL "__SystemLibrary", "CLib"
        RTMODEL "__calling_convention", "xdata_reentrant"
        RTMODEL "__code_model", "banked"
        RTMODEL "__core", "plain"
        RTMODEL "__data_model", "large"
        RTMODEL "__dptr_size", "16"
        RTMODEL "__extended_stack", "disabled"
        RTMODEL "__location_for_constants", "data"
        RTMODEL "__number_of_dptrs", "1"
        RTMODEL "__register_banks", "*"
        RTMODEL "__rt_version", "1"

        RSEG DOVERLAY:DATA:NOROOT(0)
        RSEG IOVERLAY:IDATA:NOROOT(0)
        RSEG ISTACK:IDATA:NOROOT(0)
        RSEG PSTACK:XDATA:NOROOT(0)
        RSEG XSTACK:XDATA:NOROOT(0)

        EXTERN ?BDISPATCH
        EXTERN ?BRET
        EXTERN __INIT_XDATA_Z

        PUBLIC `??osalInitTasks::?relay`
        FUNCTION `??osalInitTasks::?relay`,0203H
        PUBLIC osalInitTasks
        FUNCTION osalInitTasks,021203H
        ARGFRAME XSTACK, 0, STACK
        LOCFRAME ISTACK, 2, STACK
        PUBLIC tasksArr
        PUBLIC tasksCnt
        PUBLIC tasksEvents
        
          CFI Names cfiNames0
          CFI StackFrame CFA_SP SP IDATA
          CFI StackFrame CFA_PSP16 PSP16 XDATA
          CFI StackFrame CFA_XSP16 XSP16 XDATA
          CFI StaticOverlayFrame CFA_IOVERLAY IOVERLAY
          CFI StaticOverlayFrame CFA_DOVERLAY DOVERLAY
          CFI Resource `PSW.CY`:1, `B.BR0`:1, `B.BR1`:1, `B.BR2`:1, `B.BR3`:1
          CFI Resource `B.BR4`:1, `B.BR5`:1, `B.BR6`:1, `B.BR7`:1, `VB.BR8`:1
          CFI Resource `VB.BR9`:1, `VB.BR10`:1, `VB.BR11`:1, `VB.BR12`:1
          CFI Resource `VB.BR13`:1, `VB.BR14`:1, `VB.BR15`:1, VB:8, B:8, A:8
          CFI Resource PSW:8, DPL0:8, DPH0:8, R0:8, R1:8, R2:8, R3:8, R4:8, R5:8
          CFI Resource R6:8, R7:8, V0:8, V1:8, V2:8, V3:8, V4:8, V5:8, V6:8, V7:8
          CFI Resource V8:8, V9:8, V10:8, V11:8, V12:8, V13:8, V14:8, V15:8, SP:8
          CFI Resource PSPH:8, PSPL:8, PSP16:16, XSPH:8, XSPL:8, XSP16:16
          CFI VirtualResource ?RET:24
          CFI Resource ?BRET_EXT:8
          CFI VirtualResource ?RET_HIGH:8, ?RET_LOW:8
          CFI ResourceParts PSP16 PSPH, PSPL
          CFI ResourceParts XSP16 XSPH, XSPL
          CFI ResourceParts ?RET ?BRET_EXT, ?RET_HIGH, ?RET_LOW
          CFI EndNames cfiNames0
        
          CFI Common cfiCommon0 Using cfiNames0
          CFI CodeAlign 1
          CFI DataAlign -1
          CFI ReturnAddress ?RET CODE
          CFI CFA_DOVERLAY Used
          CFI CFA_IOVERLAY Used
          CFI CFA_SP SP+-3
          CFI CFA_PSP16 PSP16+0
          CFI CFA_XSP16 XSP16+0
          CFI `PSW.CY` SameValue
          CFI `B.BR0` SameValue
          CFI `B.BR1` SameValue
          CFI `B.BR2` SameValue
          CFI `B.BR3` SameValue
          CFI `B.BR4` SameValue
          CFI `B.BR5` SameValue
          CFI `B.BR6` SameValue
          CFI `B.BR7` SameValue
          CFI `VB.BR8` SameValue
          CFI `VB.BR9` SameValue
          CFI `VB.BR10` SameValue
          CFI `VB.BR11` SameValue
          CFI `VB.BR12` SameValue
          CFI `VB.BR13` SameValue
          CFI `VB.BR14` SameValue
          CFI `VB.BR15` SameValue
          CFI VB SameValue
          CFI B Undefined
          CFI A Undefined
          CFI PSW SameValue
          CFI DPL0 SameValue
          CFI DPH0 SameValue
          CFI R0 Undefined
          CFI R1 Undefined
          CFI R2 Undefined
          CFI R3 Undefined
          CFI R4 Undefined
          CFI R5 Undefined
          CFI R6 SameValue
          CFI R7 SameValue
          CFI V0 SameValue
          CFI V1 SameValue
          CFI V2 SameValue
          CFI V3 SameValue
          CFI V4 SameValue
          CFI V5 SameValue
          CFI V6 SameValue
          CFI V7 SameValue
          CFI V8 SameValue
          CFI V9 SameValue
          CFI V10 SameValue
          CFI V11 SameValue
          CFI V12 SameValue
          CFI V13 SameValue
          CFI V14 SameValue
          CFI V15 SameValue
          CFI PSPH Undefined
          CFI PSPL Undefined
          CFI XSPH Undefined
          CFI XSPL Undefined
          CFI ?RET Concat
          CFI ?BRET_EXT Frame(CFA_SP, 3)
          CFI ?RET_HIGH Frame(CFA_SP, 2)
          CFI ?RET_LOW Frame(CFA_SP, 1)
          CFI EndCommon cfiCommon0
        
APSF_Init           SYMBOL "APSF_Init"
`??APSF_Init::?relay` SYMBOL "?relay", APSF_Init
`?<Name APSF_ProcessEvent 2>` SYMBOL "APSF_ProcessEvent"
`??APSF_ProcessEvent::?relay` SYMBOL "?relay", `?<Name APSF_ProcessEvent 2>`
APS_Init            SYMBOL "APS_Init"
`??APS_Init::?relay` SYMBOL "?relay", APS_Init
`?<Name APS_event_loop 6>` SYMBOL "APS_event_loop"
`??APS_event_loop::?relay` SYMBOL "?relay", `?<Name APS_event_loop 6>`
Hal_Init            SYMBOL "Hal_Init"
`??Hal_Init::?relay` SYMBOL "?relay", Hal_Init
`?<Name Hal_ProcessEvent 10>` SYMBOL "Hal_ProcessEvent"
`??Hal_ProcessEvent::?relay` SYMBOL "?relay", `?<Name Hal_ProcessEvent 10>`
ZDApp_Init          SYMBOL "ZDApp_Init"
`??ZDApp_Init::?relay` SYMBOL "?relay", ZDApp_Init
`?<Name ZDApp_event_loop 14>` SYMBOL "ZDApp_event_loop"
`??ZDApp_event_loop::?relay` SYMBOL "?relay", `?<Name ZDApp_event_loop 14>`
ZDNwkMgr_Init       SYMBOL "ZDNwkMgr_Init"
`??ZDNwkMgr_Init::?relay` SYMBOL "?relay", ZDNwkMgr_Init
`?<Name ZDNwkMgr_event_loop 18>` SYMBOL "ZDNwkMgr_event_loop"
`??ZDNwkMgr_event_loop::?relay` SYMBOL "?relay", `?<Name ZDNwkMgr_event_loop 18>`
bdb_Init            SYMBOL "bdb_Init"
`??bdb_Init::?relay` SYMBOL "?relay", bdb_Init
`?<Name bdb_event_loop 22>` SYMBOL "bdb_event_loop"
`??bdb_event_loop::?relay` SYMBOL "?relay", `?<Name bdb_event_loop 22>`
gp_Init             SYMBOL "gp_Init"
`??gp_Init::?relay` SYMBOL "?relay", gp_Init
`?<Name gp_event_loop 26>` SYMBOL "gp_event_loop"
`??gp_event_loop::?relay` SYMBOL "?relay", `?<Name gp_event_loop 26>`
`?<Name macEventLoop 28>` SYMBOL "macEventLoop"
`??macEventLoop::?relay` SYMBOL "?relay", `?<Name macEventLoop 28>`
macTaskInit         SYMBOL "macTaskInit"
`??macTaskInit::?relay` SYMBOL "?relay", macTaskInit
`?<Name nwk_event_loop 32>` SYMBOL "nwk_event_loop"
`??nwk_event_loop::?relay` SYMBOL "?relay", `?<Name nwk_event_loop 32>`
nwk_init            SYMBOL "nwk_init"
`??nwk_init::?relay` SYMBOL "?relay", nwk_init
osal_mem_alloc      SYMBOL "osal_mem_alloc"
`??osal_mem_alloc::?relay` SYMBOL "?relay", osal_mem_alloc
osal_memset         SYMBOL "osal_memset"
`??osal_memset::?relay` SYMBOL "?relay", osal_memset
zcl_Init            SYMBOL "zcl_Init"
`??zcl_Init::?relay` SYMBOL "?relay", zcl_Init
`?<Name zcl_coordinator_even 42>` SYMBOL "zcl_coordinator_event_loop"
`??zcl_coordinator_event_loop::?relay` SYMBOL "?relay", `?<Name zcl_coordinator_even 42>`
zcl_coordinator_init SYMBOL "zcl_coordinator_init"
`??zcl_coordinator_init::?relay` SYMBOL "?relay", zcl_coordinator_init
`?<Name zcl_event_loop 46>` SYMBOL "zcl_event_loop"
`??zcl_event_loop::?relay` SYMBOL "?relay", `?<Name zcl_event_loop 46>`
osalInitTasks       SYMBOL "osalInitTasks"
`??osalInitTasks::?relay` SYMBOL "?relay", osalInitTasks

        EXTERN `??APSF_Init::?relay`
        FUNCTION `??APSF_Init::?relay`,00H
        EXTERN `??APSF_ProcessEvent::?relay`
        FUNCTION `??APSF_ProcessEvent::?relay`,00H
        EXTERN `??APS_Init::?relay`
        FUNCTION `??APS_Init::?relay`,00H
        EXTERN `??APS_event_loop::?relay`
        FUNCTION `??APS_event_loop::?relay`,00H
        EXTERN `??Hal_Init::?relay`
        FUNCTION `??Hal_Init::?relay`,00H
        EXTERN `??Hal_ProcessEvent::?relay`
        FUNCTION `??Hal_ProcessEvent::?relay`,00H
        EXTERN `??ZDApp_Init::?relay`
        FUNCTION `??ZDApp_Init::?relay`,00H
        EXTERN `??ZDApp_event_loop::?relay`
        FUNCTION `??ZDApp_event_loop::?relay`,00H
        EXTERN `??ZDNwkMgr_Init::?relay`
        FUNCTION `??ZDNwkMgr_Init::?relay`,00H
        EXTERN `??ZDNwkMgr_event_loop::?relay`
        FUNCTION `??ZDNwkMgr_event_loop::?relay`,00H
        EXTERN `??bdb_Init::?relay`
        FUNCTION `??bdb_Init::?relay`,00H
        EXTERN `??bdb_event_loop::?relay`
        FUNCTION `??bdb_event_loop::?relay`,00H
        EXTERN `??gp_Init::?relay`
        FUNCTION `??gp_Init::?relay`,00H
        EXTERN `??gp_event_loop::?relay`
        FUNCTION `??gp_event_loop::?relay`,00H
        EXTERN `??macEventLoop::?relay`
        FUNCTION `??macEventLoop::?relay`,00H
        EXTERN `??macTaskInit::?relay`
        FUNCTION `??macTaskInit::?relay`,00H
        EXTERN `??nwk_event_loop::?relay`
        FUNCTION `??nwk_event_loop::?relay`,00H
        EXTERN `??nwk_init::?relay`
        FUNCTION `??nwk_init::?relay`,00H
        EXTERN `??osal_mem_alloc::?relay`
        FUNCTION `??osal_mem_alloc::?relay`,00H
        EXTERN `??osal_memset::?relay`
        FUNCTION `??osal_memset::?relay`,00H
        EXTERN `??zcl_Init::?relay`
        FUNCTION `??zcl_Init::?relay`,00H
        EXTERN `??zcl_coordinator_event_loop::?relay`
        FUNCTION `??zcl_coordinator_event_loop::?relay`,00H
        EXTERN `??zcl_coordinator_init::?relay`
        FUNCTION `??zcl_coordinator_init::?relay`,00H
        EXTERN `??zcl_event_loop::?relay`
        FUNCTION `??zcl_event_loop::?relay`,00H
        EXTERN APSF_Init
        FUNCTION APSF_Init,0202H
        ARGFRAME ISTACK, 2, STACK
        ARGFRAME PSTACK, 0, STACK
        ARGFRAME XSTACK, 0, STACK
        ARGFRAME IOVERLAY, 0, STATIC
        ARGFRAME DOVERLAY, 0, STATIC
        EXTERN APS_Init
        FUNCTION APS_Init,0202H
        ARGFRAME ISTACK, 2, STACK
        ARGFRAME PSTACK, 0, STACK
        ARGFRAME XSTACK, 0, STACK
        ARGFRAME IOVERLAY, 0, STATIC
        ARGFRAME DOVERLAY, 0, STATIC
        EXTERN Hal_Init
        FUNCTION Hal_Init,0202H
        ARGFRAME ISTACK, 2, STACK
        ARGFRAME PSTACK, 0, STACK
        ARGFRAME XSTACK, 0, STACK
        ARGFRAME IOVERLAY, 0, STATIC
        ARGFRAME DOVERLAY, 0, STATIC
        EXTERN ZDApp_Init
        FUNCTION ZDApp_Init,0202H
        ARGFRAME ISTACK, 2, STACK
        ARGFRAME PSTACK, 0, STACK
        ARGFRAME XSTACK, 0, STACK
        ARGFRAME IOVERLAY, 0, STATIC
        ARGFRAME DOVERLAY, 0, STATIC
        EXTERN ZDNwkMgr_Init
        FUNCTION ZDNwkMgr_Init,0202H
        ARGFRAME ISTACK, 2, STACK
        ARGFRAME PSTACK, 0, STACK
        ARGFRAME XSTACK, 0, STACK
        ARGFRAME IOVERLAY, 0, STATIC
        ARGFRAME DOVERLAY, 0, STATIC
        EXTERN bdb_Init
        FUNCTION bdb_Init,0202H
        ARGFRAME ISTACK, 2, STACK
        ARGFRAME PSTACK, 0, STACK
        ARGFRAME XSTACK, 0, STACK
        ARGFRAME IOVERLAY, 0, STATIC
        ARGFRAME DOVERLAY, 0, STATIC
        EXTERN gp_Init
        FUNCTION gp_Init,0202H
        ARGFRAME ISTACK, 2, STACK
        ARGFRAME PSTACK, 0, STACK
        ARGFRAME XSTACK, 0, STACK
        ARGFRAME IOVERLAY, 0, STATIC
        ARGFRAME DOVERLAY, 0, STATIC
        EXTERN macTaskInit
        FUNCTION macTaskInit,0202H
        ARGFRAME ISTACK, 2, STACK
        ARGFRAME PSTACK, 0, STACK
        ARGFRAME XSTACK, 0, STACK
        ARGFRAME IOVERLAY, 0, STATIC
        ARGFRAME DOVERLAY, 0, STATIC
        EXTERN nwk_init
        FUNCTION nwk_init,0202H
        ARGFRAME ISTACK, 2, STACK
        ARGFRAME PSTACK, 0, STACK
        ARGFRAME XSTACK, 0, STACK
        ARGFRAME IOVERLAY, 0, STATIC
        ARGFRAME DOVERLAY, 0, STATIC
        EXTERN osal_mem_alloc
        FUNCTION osal_mem_alloc,0202H
        ARGFRAME ISTACK, 2, STACK
        ARGFRAME PSTACK, 0, STACK
        ARGFRAME XSTACK, 0, STACK
        ARGFRAME IOVERLAY, 0, STATIC
        ARGFRAME DOVERLAY, 0, STATIC
        EXTERN osal_memset
        FUNCTION osal_memset,0202H
        ARGFRAME ISTACK, 2, STACK
        ARGFRAME PSTACK, 0, STACK
        ARGFRAME XSTACK, 0, STACK
        ARGFRAME IOVERLAY, 0, STATIC
        ARGFRAME DOVERLAY, 0, STATIC
        EXTERN zcl_Init
        FUNCTION zcl_Init,0202H
        ARGFRAME ISTACK, 2, STACK
        ARGFRAME PSTACK, 0, STACK
        ARGFRAME XSTACK, 0, STACK
        ARGFRAME IOVERLAY, 0, STATIC
        ARGFRAME DOVERLAY, 0, STATIC
        EXTERN zcl_coordinator_init
        FUNCTION zcl_coordinator_init,0202H
        ARGFRAME ISTACK, 2, STACK
        ARGFRAME PSTACK, 0, STACK
        ARGFRAME XSTACK, 0, STACK
        ARGFRAME IOVERLAY, 0, STATIC
        ARGFRAME DOVERLAY, 0, STATIC

// D:\×ÀÃæ\¡¶ZigBee3.0¿ª·¢Ö¸ÄÏ¡·ÅäÌ××ÊÔ´£¨¸½¼Ó²¿·Ö£©\¿ÎÍâÆª£ºÏîÄ¿ÊµÕ½\»ùÓÚZigbeeµÄÎÂÊª¶È & ¹âÕÕ¶È²É¼¯ÏµÍ³\ZigBeeÉè±¸¶Ë¹Ì¼þÓëÔ´Âë\Ô´Âë\Applications\OSAL_Application.c
//    1 /**************************************************************************************************
//    2   Filename:       OSAL_SampleSw.c
//    3   Revised:        $Date: 2014-06-03 16:29:28 -0700 (Tue, 03 Jun 2014) $
//    4   Revision:       $Revision: 38778 $
//    5 
//    6   Description:    This file contains all the settings and other functions
//    7                   that the user should set and change.
//    8 
//    9 
//   10   Copyright 2006-2014 Texas Instruments Incorporated. All rights reserved.
//   11 
//   12   IMPORTANT: Your use of this Software is limited to those specific rights
//   13   granted under the terms of a software license agreement between the user
//   14   who downloaded the software, his/her employer (which must be your employer)
//   15   and Texas Instruments Incorporated (the "License").  You may not use this
//   16   Software unless you agree to abide by the terms of the License. The License
//   17   limits your use, and you acknowledge, that the Software may not be modified,
//   18   copied or distributed unless embedded on a Texas Instruments microcontroller
//   19   or used solely and exclusively in conjunction with a Texas Instruments radio
//   20   frequency transceiver, which is integrated into your product.  Other than for
//   21   the foregoing purpose, you may not use, reproduce, copy, prepare derivative
//   22   works of, modify, distribute, perform, display or sell this Software and/or
//   23   its documentation for any purpose.
//   24 
//   25   YOU FURTHER ACKNOWLEDGE AND AGREE THAT THE SOFTWARE AND DOCUMENTATION ARE
//   26   PROVIDED “AS IS” WITHOUT WARRANTY OF ANY KIND, EITHER EXPRESS OR IMPLIED,
//   27   INCLUDING WITHOUT LIMITATION, ANY WARRANTY OF MERCHANTABILITY, TITLE,
//   28   NON-INFRINGEMENT AND FITNESS FOR A PARTICULAR PURPOSE. IN NO EVENT SHALL
//   29   TEXAS INSTRUMENTS OR ITS LICENSORS BE LIABLE OR OBLIGATED UNDER CONTRACT,
//   30   NEGLIGENCE, STRICT LIABILITY, CONTRIBUTION, BREACH OF WARRANTY, OR OTHER
//   31   LEGAL EQUITABLE THEORY ANY DIRECT OR INDIRECT DAMAGES OR EXPENSES
//   32   INCLUDING BUT NOT LIMITED TO ANY INCIDENTAL, SPECIAL, INDIRECT, PUNITIVE
//   33   OR CONSEQUENTIAL DAMAGES, LOST PROFITS OR LOST DATA, COST OF PROCUREMENT
//   34   OF SUBSTITUTE GOODS, TECHNOLOGY, SERVICES, OR ANY CLAIMS BY THIRD PARTIES
//   35   (INCLUDING BUT NOT LIMITED TO ANY DEFENSE THEREOF), OR OTHER SIMILAR COSTS.
//   36 
//   37   Should you have any questions regarding your right to use this Software,
//   38   contact Texas Instruments Incorporated at www.TI.com.
//   39 **************************************************************************************************/
//   40 
//   41 /*********************************************************************
//   42  * INCLUDES
//   43  */
//   44 
//   45 #include "ZComDef.h"
//   46 #include "hal_drivers.h"
//   47 #include "OSAL.h"
//   48 #include "OSAL_Tasks.h"
//   49 
//   50 #if defined ( MT_TASK )
//   51   #include "MT.h"
//   52   #include "MT_TASK.h"
//   53 #endif
//   54 
//   55 #include "nwk.h"
//   56 #include "APS.h"
//   57 #include "ZDApp.h"
//   58 
//   59 #include "bdb_interface.h"
//   60 
//   61 #if !defined (DISABLE_GREENPOWER_BASIC_PROXY) && (ZG_BUILD_RTR_TYPE)
//   62   #include "gp_common.h"
//   63 #endif   
//   64 #if defined ( ZIGBEE_FREQ_AGILITY ) || defined ( ZIGBEE_PANID_CONFLICT )
//   65   #include "ZDNwkMgr.h"
//   66 #endif
//   67 #if defined ( ZIGBEE_FRAGMENTATION )
//   68   #include "aps_frag.h"
//   69 #endif
//   70 
//   71 #if defined ( INTER_PAN )
//   72   #include "stub_aps.h"
//   73 #if defined ( BDB_TL_INITIATOR )
//   74   #include "bdb_touchlink_initiator.h"
//   75 #endif // BDB_TL_INITIATOR
//   76 #if defined ( BDB_TL_TARGET )
//   77   #include "bdb_touchlink_target.h"
//   78 #endif // BDB_TL_TARGET
//   79 #endif // INTER_PAN
//   80 
//   81 #if ZG_BUILD_COORDINATOR_TYPE
//   82     #include "zcl_coordinator.h"
//   83 #elif ZG_BUILD_RTRONLY_TYPE
//   84     #include "zcl_router.h"
//   85 #else
//   86 #endif
//   87 
//   88 #if (defined OTA_CLIENT) && (OTA_CLIENT == TRUE)
//   89   #include "zcl_ota.h"
//   90 #endif
//   91 /*********************************************************************
//   92  * GLOBAL VARIABLES
//   93  */
//   94 
//   95 // The order in this table must be identical to the task initialization calls below in osalInitTask.

        RSEG XDATA_ROM_C:CONST:REORDER:NOROOT(0)
        DATA8
//   96 const pTaskEventHandlerFn tasksArr[] = {
tasksArr:
        DATA16
        DW `??macEventLoop::?relay`
        DW `??nwk_event_loop::?relay`
        DW `??gp_event_loop::?relay`
        DW `??Hal_ProcessEvent::?relay`
        DW `??APS_event_loop::?relay`
        DW `??APSF_ProcessEvent::?relay`
        DW `??ZDApp_event_loop::?relay`
        DW `??ZDNwkMgr_event_loop::?relay`
        DW `??zcl_event_loop::?relay`
        DW `??bdb_event_loop::?relay`
        DW `??zcl_coordinator_event_loop::?relay`
//   97   macEventLoop,
//   98   nwk_event_loop,
//   99 #if !defined (DISABLE_GREENPOWER_BASIC_PROXY) && (ZG_BUILD_RTR_TYPE)
//  100   gp_event_loop,
//  101 #endif  
//  102   Hal_ProcessEvent,
//  103 #if defined( MT_TASK )
//  104   MT_ProcessEvent,
//  105 #endif
//  106   APS_event_loop,
//  107 #if defined ( ZIGBEE_FRAGMENTATION )
//  108   APSF_ProcessEvent,
//  109 #endif
//  110   ZDApp_event_loop,
//  111 #if defined ( ZIGBEE_FREQ_AGILITY ) || defined ( ZIGBEE_PANID_CONFLICT )
//  112   ZDNwkMgr_event_loop,
//  113 #endif
//  114   //Added to include TouchLink functionality
//  115   #if defined ( INTER_PAN )
//  116     StubAPS_ProcessEvent,
//  117   #endif
//  118   // Added to include TouchLink initiator functionality
//  119   #if defined ( BDB_TL_INITIATOR )
//  120     touchLinkInitiator_event_loop,
//  121   #endif
//  122   // Added to include TouchLink target functionality
//  123   #if defined ( BDB_TL_TARGET )
//  124     touchLinkTarget_event_loop,
//  125   #endif
//  126   zcl_event_loop,
//  127   bdb_event_loop,
//  128 #if ZG_BUILD_COORDINATOR_TYPE
//  129   zcl_coordinator_event_loop,
//  130 #elif ZG_BUILD_RTRONLY_TYPE
//  131   zcl_router_event_loop,
//  132 #else
//  133 #endif
//  134 #if (defined OTA_CLIENT) && (OTA_CLIENT == TRUE)
//  135   zclOTA_event_loop
//  136 #endif
//  137 };
//  138 

        RSEG XDATA_ROM_C:CONST:REORDER:NOROOT(0)
        DATA8
//  139 const uint8 tasksCnt = sizeof( tasksArr ) / sizeof( tasksArr[0] );
tasksCnt:
        DB 11

        RSEG XDATA_Z:XDATA:NOROOT(0)
        DATA16
//  140 uint16 *tasksEvents;
tasksEvents:
        DS 2
        REQUIRE __INIT_XDATA_Z
//  141 
//  142 /*********************************************************************
//  143  * FUNCTIONS
//  144  *********************************************************************/
//  145 
//  146 /*********************************************************************
//  147  * @fn      osalInitTasks
//  148  *
//  149  * @brief   This function invokes the initialization function for each task.
//  150  *
//  151  * @param   void
//  152  *
//  153  * @return  none
//  154  */

        RSEG BANKED_CODE:HUGECODE:NOROOT(0)
//  155 void osalInitTasks( void )
osalInitTasks:
          CFI Block cfiBlock0 Using cfiCommon0
          CFI Function osalInitTasks
        CODE
//  156 {
        FUNCALL osalInitTasks, osal_mem_alloc
        LOCFRAME ISTACK, 2, STACK
        LOCFRAME PSTACK, 0, STACK
        LOCFRAME XSTACK, 0, STACK
        LOCFRAME IOVERLAY, 0, STATIC
        LOCFRAME DOVERLAY, 0, STATIC
        ARGFRAME ISTACK, 2, STACK
        ARGFRAME PSTACK, 0, STACK
        ARGFRAME XSTACK, 0, STACK
        ARGFRAME IOVERLAY, 0, STATIC
        ARGFRAME DOVERLAY, 0, STATIC
        FUNCALL osalInitTasks, osal_memset
        LOCFRAME ISTACK, 2, STACK
        LOCFRAME PSTACK, 0, STACK
        LOCFRAME XSTACK, 0, STACK
        LOCFRAME IOVERLAY, 0, STATIC
        LOCFRAME DOVERLAY, 0, STATIC
        ARGFRAME ISTACK, 2, STACK
        ARGFRAME PSTACK, 0, STACK
        ARGFRAME XSTACK, 0, STACK
        ARGFRAME IOVERLAY, 0, STATIC
        ARGFRAME DOVERLAY, 0, STATIC
        FUNCALL osalInitTasks, macTaskInit
        LOCFRAME ISTACK, 2, STACK
        LOCFRAME PSTACK, 0, STACK
        LOCFRAME XSTACK, 0, STACK
        LOCFRAME IOVERLAY, 0, STATIC
        LOCFRAME DOVERLAY, 0, STATIC
        ARGFRAME ISTACK, 2, STACK
        ARGFRAME PSTACK, 0, STACK
        ARGFRAME XSTACK, 0, STACK
        ARGFRAME IOVERLAY, 0, STATIC
        ARGFRAME DOVERLAY, 0, STATIC
        FUNCALL osalInitTasks, nwk_init
        LOCFRAME ISTACK, 2, STACK
        LOCFRAME PSTACK, 0, STACK
        LOCFRAME XSTACK, 0, STACK
        LOCFRAME IOVERLAY, 0, STATIC
        LOCFRAME DOVERLAY, 0, STATIC
        ARGFRAME ISTACK, 2, STACK
        ARGFRAME PSTACK, 0, STACK
        ARGFRAME XSTACK, 0, STACK
        ARGFRAME IOVERLAY, 0, STATIC
        ARGFRAME DOVERLAY, 0, STATIC
        FUNCALL osalInitTasks, gp_Init
        LOCFRAME ISTACK, 2, STACK
        LOCFRAME PSTACK, 0, STACK
        LOCFRAME XSTACK, 0, STACK
        LOCFRAME IOVERLAY, 0, STATIC
        LOCFRAME DOVERLAY, 0, STATIC
        ARGFRAME ISTACK, 2, STACK
        ARGFRAME PSTACK, 0, STACK
        ARGFRAME XSTACK, 0, STACK
        ARGFRAME IOVERLAY, 0, STATIC
        ARGFRAME DOVERLAY, 0, STATIC
        FUNCALL osalInitTasks, Hal_Init
        LOCFRAME ISTACK, 2, STACK
        LOCFRAME PSTACK, 0, STACK
        LOCFRAME XSTACK, 0, STACK
        LOCFRAME IOVERLAY, 0, STATIC
        LOCFRAME DOVERLAY, 0, STATIC
        ARGFRAME ISTACK, 2, STACK
        ARGFRAME PSTACK, 0, STACK
        ARGFRAME XSTACK, 0, STACK
        ARGFRAME IOVERLAY, 0, STATIC
        ARGFRAME DOVERLAY, 0, STATIC
        FUNCALL osalInitTasks, APS_Init
        LOCFRAME ISTACK, 2, STACK
        LOCFRAME PSTACK, 0, STACK
        LOCFRAME XSTACK, 0, STACK
        LOCFRAME IOVERLAY, 0, STATIC
        LOCFRAME DOVERLAY, 0, STATIC
        ARGFRAME ISTACK, 2, STACK
        ARGFRAME PSTACK, 0, STACK
        ARGFRAME XSTACK, 0, STACK
        ARGFRAME IOVERLAY, 0, STATIC
        ARGFRAME DOVERLAY, 0, STATIC
        FUNCALL osalInitTasks, APSF_Init
        LOCFRAME ISTACK, 2, STACK
        LOCFRAME PSTACK, 0, STACK
        LOCFRAME XSTACK, 0, STACK
        LOCFRAME IOVERLAY, 0, STATIC
        LOCFRAME DOVERLAY, 0, STATIC
        ARGFRAME ISTACK, 2, STACK
        ARGFRAME PSTACK, 0, STACK
        ARGFRAME XSTACK, 0, STACK
        ARGFRAME IOVERLAY, 0, STATIC
        ARGFRAME DOVERLAY, 0, STATIC
        FUNCALL osalInitTasks, ZDApp_Init
        LOCFRAME ISTACK, 2, STACK
        LOCFRAME PSTACK, 0, STACK
        LOCFRAME XSTACK, 0, STACK
        LOCFRAME IOVERLAY, 0, STATIC
        LOCFRAME DOVERLAY, 0, STATIC
        ARGFRAME ISTACK, 2, STACK
        ARGFRAME PSTACK, 0, STACK
        ARGFRAME XSTACK, 0, STACK
        ARGFRAME IOVERLAY, 0, STATIC
        ARGFRAME DOVERLAY, 0, STATIC
        FUNCALL osalInitTasks, ZDNwkMgr_Init
        LOCFRAME ISTACK, 2, STACK
        LOCFRAME PSTACK, 0, STACK
        LOCFRAME XSTACK, 0, STACK
        LOCFRAME IOVERLAY, 0, STATIC
        LOCFRAME DOVERLAY, 0, STATIC
        ARGFRAME ISTACK, 2, STACK
        ARGFRAME PSTACK, 0, STACK
        ARGFRAME XSTACK, 0, STACK
        ARGFRAME IOVERLAY, 0, STATIC
        ARGFRAME DOVERLAY, 0, STATIC
        FUNCALL osalInitTasks, zcl_Init
        LOCFRAME ISTACK, 2, STACK
        LOCFRAME PSTACK, 0, STACK
        LOCFRAME XSTACK, 0, STACK
        LOCFRAME IOVERLAY, 0, STATIC
        LOCFRAME DOVERLAY, 0, STATIC
        ARGFRAME ISTACK, 2, STACK
        ARGFRAME PSTACK, 0, STACK
        ARGFRAME XSTACK, 0, STACK
        ARGFRAME IOVERLAY, 0, STATIC
        ARGFRAME DOVERLAY, 0, STATIC
        FUNCALL osalInitTasks, bdb_Init
        LOCFRAME ISTACK, 2, STACK
        LOCFRAME PSTACK, 0, STACK
        LOCFRAME XSTACK, 0, STACK
        LOCFRAME IOVERLAY, 0, STATIC
        LOCFRAME DOVERLAY, 0, STATIC
        ARGFRAME ISTACK, 2, STACK
        ARGFRAME PSTACK, 0, STACK
        ARGFRAME XSTACK, 0, STACK
        ARGFRAME IOVERLAY, 0, STATIC
        ARGFRAME DOVERLAY, 0, STATIC
        FUNCALL osalInitTasks, zcl_coordinator_init
        LOCFRAME ISTACK, 2, STACK
        LOCFRAME PSTACK, 0, STACK
        LOCFRAME XSTACK, 0, STACK
        LOCFRAME IOVERLAY, 0, STATIC
        LOCFRAME DOVERLAY, 0, STATIC
        ARGFRAME ISTACK, 2, STACK
        ARGFRAME PSTACK, 0, STACK
        ARGFRAME XSTACK, 0, STACK
        ARGFRAME IOVERLAY, 0, STATIC
        ARGFRAME DOVERLAY, 0, STATIC
        PUSH      DPL
          CFI DPL0 Frame(CFA_SP, 4)
          CFI CFA_SP SP+-4
        PUSH      DPH
          CFI DPH0 Frame(CFA_SP, 5)
          CFI CFA_SP SP+-5
        ; Saved register size: 2
        ; Auto size: 0
//  157   uint8 taskID = 0;
//  158 
//  159   tasksEvents = (uint16 *)osal_mem_alloc( sizeof( uint16 ) * tasksCnt);
        ; Setup parameters for call to function osal_mem_alloc
        MOV       R2,#0x16
        MOV       R3,#0x0
        LCALL     `??osal_mem_alloc::?relay`; Banked call to: osal_mem_alloc
        MOV       DPTR,#tasksEvents
        MOV       A,R2
        MOVX      @DPTR,A
        INC       DPTR
        MOV       A,R3
        MOVX      @DPTR,A
//  160   osal_memset( tasksEvents, 0, (sizeof( uint16 ) * tasksCnt));
        ; Setup parameters for call to function osal_memset
        MOV       R4,#0x16
        MOV       R5,#0x0
        MOV       R1,#0x0
        LCALL     `??osal_memset::?relay`; Banked call to: osal_memset
//  161 
//  162   macTaskInit( taskID++ );
        ; Setup parameters for call to function macTaskInit
        MOV       R1,#0x0
        LCALL     `??macTaskInit::?relay`; Banked call to: macTaskInit
//  163   nwk_init( taskID++ );
        ; Setup parameters for call to function nwk_init
        MOV       R1,#0x1
        LCALL     `??nwk_init::?relay`; Banked call to: nwk_init
//  164 #if !defined (DISABLE_GREENPOWER_BASIC_PROXY) && (ZG_BUILD_RTR_TYPE)
//  165   gp_Init( taskID++ );
        ; Setup parameters for call to function gp_Init
        MOV       R1,#0x2
        LCALL     `??gp_Init::?relay`; Banked call to: gp_Init
//  166 #endif
//  167   Hal_Init( taskID++ );
        ; Setup parameters for call to function Hal_Init
        MOV       R1,#0x3
        LCALL     `??Hal_Init::?relay`; Banked call to: Hal_Init
//  168 #if defined( MT_TASK )
//  169   MT_TaskInit( taskID++ );
//  170 #endif
//  171   APS_Init( taskID++ );
        ; Setup parameters for call to function APS_Init
        MOV       R1,#0x4
        LCALL     `??APS_Init::?relay`; Banked call to: APS_Init
//  172 #if defined ( ZIGBEE_FRAGMENTATION )
//  173   APSF_Init( taskID++ );
        ; Setup parameters for call to function APSF_Init
        MOV       R1,#0x5
        LCALL     `??APSF_Init::?relay`; Banked call to: APSF_Init
//  174 #endif
//  175   ZDApp_Init( taskID++ );
        ; Setup parameters for call to function ZDApp_Init
        MOV       R1,#0x6
        LCALL     `??ZDApp_Init::?relay`; Banked call to: ZDApp_Init
//  176 #if defined ( ZIGBEE_FREQ_AGILITY ) || defined ( ZIGBEE_PANID_CONFLICT )
//  177   ZDNwkMgr_Init( taskID++ );
        ; Setup parameters for call to function ZDNwkMgr_Init
        MOV       R1,#0x7
        LCALL     `??ZDNwkMgr_Init::?relay`; Banked call to: ZDNwkMgr_Init
//  178 #endif
//  179   // Added to include TouchLink functionality 
//  180   #if defined ( INTER_PAN )
//  181     StubAPS_Init( taskID++ );
//  182   #endif
//  183   // Added to include TouchLink initiator functionality 
//  184   #if defined( BDB_TL_INITIATOR )
//  185     touchLinkInitiator_Init( taskID++ );
//  186   #endif
//  187   // Added to include TouchLink target functionality 
//  188   #if defined ( BDB_TL_TARGET )
//  189     touchLinkTarget_Init( taskID++ );
//  190   #endif
//  191   zcl_Init( taskID++ );
        ; Setup parameters for call to function zcl_Init
        MOV       R1,#0x8
        LCALL     `??zcl_Init::?relay`; Banked call to: zcl_Init
//  192   bdb_Init( taskID++ );
        ; Setup parameters for call to function bdb_Init
        MOV       R1,#0x9
        LCALL     `??bdb_Init::?relay`; Banked call to: bdb_Init
//  193 #if ZG_BUILD_COORDINATOR_TYPE
//  194   zcl_coordinator_init( taskID++ );
        ; Setup parameters for call to function zcl_coordinator_init
        MOV       R1,#0xa
        LCALL     `??zcl_coordinator_init::?relay`; Banked call to: zcl_coordinator_init
//  195 #elif ZG_BUILD_RTRONLY_TYPE
//  196   zcl_router_init( taskID++ );
//  197 #else
//  198 #endif
//  199 #if (defined OTA_CLIENT) && (OTA_CLIENT == TRUE)
//  200   zclOTA_Init( taskID );
//  201 #endif
//  202 }
        POP       DPH
          CFI DPH0 SameValue
          CFI CFA_SP SP+-4
        POP       DPL
          CFI DPL0 SameValue
          CFI CFA_SP SP+-3
        LJMP      ?BRET
          CFI EndBlock cfiBlock0

        RSEG BANK_RELAYS:CODE:REORDER:NOROOT(0)
`??osalInitTasks::?relay`:
        CODE
        LCALL   ?BDISPATCH
        DATA24
        DC24    osalInitTasks

        END
//  203 
//  204 /*********************************************************************
//  205 *********************************************************************/
// 
// 90 bytes in segment BANKED_CODE
//  6 bytes in segment BANK_RELAYS
// 23 bytes in segment XDATA_ROM_C
//  2 bytes in segment XDATA_Z
// 
//  6 bytes of CODE     memory
// 23 bytes of CONST    memory
// 90 bytes of HUGECODE memory
//  2 bytes of XDATA    memory
//
//Errors: none
//Warnings: none
