###############################################################################
#
# IAR C/C++ Compiler V10.10.1.4655 for 8051               26/Mar/2023  16:30:24
# Copyright 2004-2017 IAR Systems AB.
# Standalone license - IAR Embedded Workbench for 8051
#
#    Core               =  plain
#    Code model         =  banked
#    Data model         =  large
#    Calling convention =  xdata reentrant
#    Constant location  =  data_rom
#    Dptr setup         =  1,16
#                          
#    Source file        =  
#        D:\桌面\《ZigBee3.0开发指南》配套资源（附加部分）\课外篇：项目实战\基于Zigbee的温湿度
#        &
#        光照度采集系统\ZigBee设备端固件与源码\源码\Components\stack\zdo\ZDObject.c
#    Command line       =  
#        -f C:\Users\11148\AppData\Local\Temp\EWD255.tmp
#        ("D:\桌面\《ZigBee3.0开发指南》配套资源（附加部分）\课外篇：项目实战\基于Zigbee的温湿度
#        &
#        光照度采集系统\ZigBee设备端固件与源码\源码\Components\stack\zdo\ZDObject.c"
#        -D SECURE=1 -D TC_LINKKEY_JOIN -D NV_INIT -D NV_RESTORE -D xZTOOL_P1
#        -D xMT_TASK -D xMT_APP_FUNC -D xMT_SYS_FUNC -D xMT_ZDO_FUNC -D
#        xMT_ZDO_MGMT -D xMT_APP_CNF_FUNC -D LCD_SUPPORTED=DEBUG -D
#        MULTICAST_ENABLED=FALSE -D ZCL_READ -D ZCL_DISCOVER -D ZCL_WRITE -D
#        ZCL_BASIC -D ZCL_IDENTIFY -D ZCL_ON_OFF -D ZCL_GROUPS -D
#        ZCL_LEVEL_CTRL -D HAL_KEY=TRUE -D xISR_KEYINTERRUPT -D HAL_UART=TRUE
#        -D INT_HEAP_LEN=2048 -D HAL_LCD=TRUE -D HAL_LCD_OLED12864=TRUE -lC
#        "D:\桌面\《ZigBee3.0开发指南》配套资源（附加部分）\课外篇：项目实战\基于Zigbee的温湿度
#        &
#        光照度采集系统\ZigBee设备端固件与源码\源码\Projects\CC2530\Category\Coordinator\List"
#        -lA
#        "D:\桌面\《ZigBee3.0开发指南》配套资源（附加部分）\课外篇：项目实战\基于Zigbee的温湿度
#        &
#        光照度采集系统\ZigBee设备端固件与源码\源码\Projects\CC2530\Category\Coordinator\List"
#        --diag_suppress Pe001,Pa010 -o
#        "D:\桌面\《ZigBee3.0开发指南》配套资源（附加部分）\课外篇：项目实战\基于Zigbee的温湿度
#        &
#        光照度采集系统\ZigBee设备端固件与源码\源码\Projects\CC2530\Category\Coordinator\Obj"
#        -e --debug --core=plain --dptr=16,1 --data_model=large
#        --code_model=banked --calling_convention=xdata_reentrant
#        --place_constants=data_rom --nr_virtual_regs 16 -f
#        "D:\桌面\《ZigBee3.0开发指南》配套资源（附加部分）\课外篇：项目实战\基于Zigbee的温湿度
#        &
#        光照度采集系统\ZigBee设备端固件与源码\源码\Projects\CC2530\Tools\f8wCoord.cfg"
#        (-DCPU32MHZ -DROOT=__near_func -DMAC_CFG_APP_PENDING_QUEUE=TRUE
#        -DMAC_CFG_TX_DATA_MAX=5 -DMAC_CFG_TX_MAX=8 -DMAC_CFG_RX_MAX=5
#        -DZDO_COORDINATOR -DRTR_NWK) -f
#        "D:\桌面\《ZigBee3.0开发指南》配套资源（附加部分）\课外篇：项目实战\基于Zigbee的温湿度
#        &
#        光照度采集系统\ZigBee设备端固件与源码\源码\Projects\CC2530\Tools\f8wConfig.cfg"
#        (-DZIGBEEPRO -DSECURE=1 -DZG_SECURE_DYNAMIC=0 -DREFLECTOR
#        -DDEFAULT_CHANLIST=0x00000800 -DZDAPP_CONFIG_PAN_ID=0x0402
#        -DNWK_START_DELAY=100 -DEXTENDED_JOINING_RANDOM_MASK=0x007F
#        -DBEACON_REQUEST_DELAY=100 -DBEACON_REQ_DELAY_MASK=0x00FF
#        -DLINK_STATUS_JITTER_MASK=0x007F -DROUTE_EXPIRY_TIME=30
#        -DAPSC_ACK_WAIT_DURATION_POLLED=3000 -DNWK_INDIRECT_MSG_TIMEOUT=7
#        -DMAX_RREQ_ENTRIES=8 -DAPSC_MAX_FRAME_RETRIES=3
#        -DNWK_MAX_DATA_RETRIES=2 -DMAX_POLL_FAILURE_RETRIES=2 -DMAX_BCAST=9
#        -DAPS_MAX_GROUPS=16 -DMAX_RTG_ENTRIES=40 -DNWK_MAX_BINDING_ENTRIES=4
#        -DMAX_BINDING_CLUSTER_IDS=4 "-DDEFAULT_KEY={0x5a, 0x69, 0x67, 0x42,
#        0x65,0x65, 0x41, 0x6c, 0x6c, 0x69, 0x61, 0x6e, 0x63, 0x65, 0x30,
#        0x39}" -DMAC_MAX_FRAME_SIZE=116 -DZDNWKMGR_MIN_TRANSMISSIONS=20
#        "-DCONST=const __code" -DGENERIC=__generic -DRFD_RCVC_ALWAYS_ON=FALSE
#        -DPOLL_RATE=1000 -DQUEUED_POLL_RATE=100 -DRESPONSE_POLL_RATE=100
#        -DREJOIN_POLL_RATE=440 -DREJOIN_BACKOFF=900000 -DREJOIN_SCAN=900000
#        -DENABLE_LED4_DISABLE_S1) -f
#        "D:\桌面\《ZigBee3.0开发指南》配套资源（附加部分）\课外篇：项目实战\基于Zigbee的温湿度
#        &
#        光照度采集系统\ZigBee设备端固件与源码\源码\Projects\CC2530\Tools\f8wZCL.cfg"
#        -I
#        "D:\桌面\《ZigBee3.0开发指南》配套资源（附加部分）\课外篇：项目实战\基于Zigbee的温湿度
#        & 光照度采集系统\ZigBee设备端固件与源码\源码\Projects\CC2530\" -I
#        "D:\桌面\《ZigBee3.0开发指南》配套资源（附加部分）\课外篇：项目实战\基于Zigbee的温湿度
#        &
#        光照度采集系统\ZigBee设备端固件与源码\源码\Projects\CC2530\..\..\Components\hal\include\"
#        -I
#        "D:\桌面\《ZigBee3.0开发指南》配套资源（附加部分）\课外篇：项目实战\基于Zigbee的温湿度
#        &
#        光照度采集系统\ZigBee设备端固件与源码\源码\Projects\CC2530\..\..\Components\hal\target\CC2530EB\"
#        -I
#        "D:\桌面\《ZigBee3.0开发指南》配套资源（附加部分）\课外篇：项目实战\基于Zigbee的温湿度
#        &
#        光照度采集系统\ZigBee设备端固件与源码\源码\Projects\CC2530\..\..\Components\hal\userspace\"
#        -I
#        "D:\桌面\《ZigBee3.0开发指南》配套资源（附加部分）\课外篇：项目实战\基于Zigbee的温湿度
#        &
#        光照度采集系统\ZigBee设备端固件与源码\源码\Projects\CC2530\..\..\Components\mac\include\"
#        -I
#        "D:\桌面\《ZigBee3.0开发指南》配套资源（附加部分）\课外篇：项目实战\基于Zigbee的温湿度
#        &
#        光照度采集系统\ZigBee设备端固件与源码\源码\Projects\CC2530\..\..\Components\mac\high_level\"
#        -I
#        "D:\桌面\《ZigBee3.0开发指南》配套资源（附加部分）\课外篇：项目实战\基于Zigbee的温湿度
#        &
#        光照度采集系统\ZigBee设备端固件与源码\源码\Projects\CC2530\..\..\Components\mac\low_level\srf04\"
#        -I
#        "D:\桌面\《ZigBee3.0开发指南》配套资源（附加部分）\课外篇：项目实战\基于Zigbee的温湿度
#        &
#        光照度采集系统\ZigBee设备端固件与源码\源码\Projects\CC2530\..\..\Components\mac\low_level\srf04\single_chip\"
#        -I
#        "D:\桌面\《ZigBee3.0开发指南》配套资源（附加部分）\课外篇：项目实战\基于Zigbee的温湿度
#        &
#        光照度采集系统\ZigBee设备端固件与源码\源码\Projects\CC2530\..\..\Components\mt\"
#        -I
#        "D:\桌面\《ZigBee3.0开发指南》配套资源（附加部分）\课外篇：项目实战\基于Zigbee的温湿度
#        &
#        光照度采集系统\ZigBee设备端固件与源码\源码\Projects\CC2530\..\..\Components\osal\include\"
#        -I
#        "D:\桌面\《ZigBee3.0开发指南》配套资源（附加部分）\课外篇：项目实战\基于Zigbee的温湿度
#        &
#        光照度采集系统\ZigBee设备端固件与源码\源码\Projects\CC2530\..\..\Components\services\saddr\"
#        -I
#        "D:\桌面\《ZigBee3.0开发指南》配套资源（附加部分）\课外篇：项目实战\基于Zigbee的温湿度
#        &
#        光照度采集系统\ZigBee设备端固件与源码\源码\Projects\CC2530\..\..\Components\services\sdata\"
#        -I
#        "D:\桌面\《ZigBee3.0开发指南》配套资源（附加部分）\课外篇：项目实战\基于Zigbee的温湿度
#        &
#        光照度采集系统\ZigBee设备端固件与源码\源码\Projects\CC2530\..\..\Components\stack\af\"
#        -I
#        "D:\桌面\《ZigBee3.0开发指南》配套资源（附加部分）\课外篇：项目实战\基于Zigbee的温湿度
#        &
#        光照度采集系统\ZigBee设备端固件与源码\源码\Projects\CC2530\..\..\Components\stack\bdb\"
#        -I
#        "D:\桌面\《ZigBee3.0开发指南》配套资源（附加部分）\课外篇：项目实战\基于Zigbee的温湿度
#        &
#        光照度采集系统\ZigBee设备端固件与源码\源码\Projects\CC2530\..\..\Components\stack\gp\"
#        -I
#        "D:\桌面\《ZigBee3.0开发指南》配套资源（附加部分）\课外篇：项目实战\基于Zigbee的温湿度
#        &
#        光照度采集系统\ZigBee设备端固件与源码\源码\Projects\CC2530\..\..\Components\stack\nwk\"
#        -I
#        "D:\桌面\《ZigBee3.0开发指南》配套资源（附加部分）\课外篇：项目实战\基于Zigbee的温湿度
#        &
#        光照度采集系统\ZigBee设备端固件与源码\源码\Projects\CC2530\..\..\Components\stack\sapi\"
#        -I
#        "D:\桌面\《ZigBee3.0开发指南》配套资源（附加部分）\课外篇：项目实战\基于Zigbee的温湿度
#        &
#        光照度采集系统\ZigBee设备端固件与源码\源码\Projects\CC2530\..\..\Components\stack\sec\"
#        -I
#        "D:\桌面\《ZigBee3.0开发指南》配套资源（附加部分）\课外篇：项目实战\基于Zigbee的温湿度
#        &
#        光照度采集系统\ZigBee设备端固件与源码\源码\Projects\CC2530\..\..\Components\stack\sys\"
#        -I
#        "D:\桌面\《ZigBee3.0开发指南》配套资源（附加部分）\课外篇：项目实战\基于Zigbee的温湿度
#        &
#        光照度采集系统\ZigBee设备端固件与源码\源码\Projects\CC2530\..\..\Components\stack\zcl\"
#        -I
#        "D:\桌面\《ZigBee3.0开发指南》配套资源（附加部分）\课外篇：项目实战\基于Zigbee的温湿度
#        &
#        光照度采集系统\ZigBee设备端固件与源码\源码\Projects\CC2530\..\..\Components\stack\zdo\"
#        -I
#        "D:\桌面\《ZigBee3.0开发指南》配套资源（附加部分）\课外篇：项目实战\基于Zigbee的温湿度
#        &
#        光照度采集系统\ZigBee设备端固件与源码\源码\Projects\CC2530\..\..\Components\zmac\"
#        -I
#        "D:\桌面\《ZigBee3.0开发指南》配套资源（附加部分）\课外篇：项目实战\基于Zigbee的温湿度
#        &
#        光照度采集系统\ZigBee设备端固件与源码\源码\Projects\CC2530\..\..\Components\zmac\f8w\"
#        -I
#        "D:\桌面\《ZigBee3.0开发指南》配套资源（附加部分）\课外篇：项目实战\基于Zigbee的温湿度
#        &
#        光照度采集系统\ZigBee设备端固件与源码\源码\Projects\CC2530\..\..\Applications\"
#        -Ohz --require_prototypes)
#    Locale             =  Chinese (Simplified)_China.936
#    List file          =  
#        D:\桌面\《ZigBee3.0开发指南》配套资源（附加部分）\课外篇：项目实战\基于Zigbee的温湿度
#        &
#        光照度采集系统\ZigBee设备端固件与源码\源码\Projects\CC2530\Category\Coordinator\List\ZDObject.lst
#    Object file        =  
#        D:\桌面\《ZigBee3.0开发指南》配套资源（附加部分）\课外篇：项目实战\基于Zigbee的温湿度
#        &
#        光照度采集系统\ZigBee设备端固件与源码\源码\Projects\CC2530\Category\Coordinator\Obj\ZDObject.r51
#
###############################################################################

D:\桌面\《ZigBee3.0开发指南》配套资源（附加部分）\课外篇：项目实战\基于Zigbee的温湿度 & 光照度采集系统\ZigBee设备端固件与源码\源码\Components\stack\zdo\ZDObject.c
      1          /**************************************************************************************************
      2            Filename:       ZDObject.c
      3            Revised:        $Date: 2015-10-01 15:01:50 -0700 (Thu, 01 Oct 2015) $
      4            Revision:       $Revision: 44513 $
      5          
      6            Description:    This is the Zigbee Device Object.
      7          
      8          
      9            Copyright 2004-2015 Texas Instruments Incorporated. All rights reserved.
     10          
     11            IMPORTANT: Your use of this Software is limited to those specific rights
     12            granted under the terms of a software license agreement between the user
     13            who downloaded the software, his/her employer (which must be your employer)
     14            and Texas Instruments Incorporated (the "License"). You may not use this
     15            Software unless you agree to abide by the terms of the License. The License
     16            limits your use, and you acknowledge, that the Software may not be modified,
     17            copied or distributed unless embedded on a Texas Instruments microcontroller
     18            or used solely and exclusively in conjunction with a Texas Instruments radio
     19            frequency transceiver, which is integrated into your product. Other than for
     20            the foregoing purpose, you may not use, reproduce, copy, prepare derivative
     21            works of, modify, distribute, perform, display or sell this Software and/or
     22            its documentation for any purpose.
     23          
     24            YOU FURTHER ACKNOWLEDGE AND AGREE THAT THE SOFTWARE AND DOCUMENTATION ARE
     25            PROVIDED "AS IS" WITHOUT WARRANTY OF ANY KIND, EITHER EXPRESS OR IMPLIED,
     26            INCLUDING WITHOUT LIMITATION, ANY WARRANTY OF MERCHANTABILITY, TITLE,
     27            NON-INFRINGEMENT AND FITNESS FOR A PARTICULAR PURPOSE. IN NO EVENT SHALL
     28            TEXAS INSTRUMENTS OR ITS LICENSORS BE LIABLE OR OBLIGATED UNDER CONTRACT,
     29            NEGLIGENCE, STRICT LIABILITY, CONTRIBUTION, BREACH OF WARRANTY, OR OTHER
     30            LEGAL EQUITABLE THEORY ANY DIRECT OR INDIRECT DAMAGES OR EXPENSES
     31            INCLUDING BUT NOT LIMITED TO ANY INCIDENTAL, SPECIAL, INDIRECT, PUNITIVE
     32            OR CONSEQUENTIAL DAMAGES, LOST PROFITS OR LOST DATA, COST OF PROCUREMENT
     33            OF SUBSTITUTE GOODS, TECHNOLOGY, SERVICES, OR ANY CLAIMS BY THIRD PARTIES
     34            (INCLUDING BUT NOT LIMITED TO ANY DEFENSE THEREOF), OR OTHER SIMILAR COSTS.
     35          
     36            Should you have any questions regarding your right to use this Software,
     37            contact Texas Instruments Incorporated at www.TI.com.
     38          **************************************************************************************************/
     39          
     40          /*********************************************************************
     41           * INCLUDES
     42           */
     43          #include "ZComDef.h"
     44          #include "OSAL.h"
     45          #include "OSAL_Nv.h"
     46          #include "rtg.h"
     47          #include "NLMEDE.h"
     48          #include "nwk_globals.h"
     49          #include "APS.h"
     50          #include "APSMEDE.h"
     51          #include "AssocList.h"
     52          #include "BindingTable.h"
     53          #include "AddrMgr.h"
     54          #include "AF.h"
     55          #include "ZDObject.h"
     56          #include "ZDProfile.h"
     57          #include "ZDConfig.h"
     58          #include "ZDSecMgr.h"
     59          #include "ZDApp.h"
     60          #include "nwk_util.h"   // NLME_IsAddressBroadcast()
     61          #include "ZGlobals.h"
     62          #if defined MT_ZDO_CB_FUNC
     63          #include "MT.h"
     64          #endif
     65          
     66          #include "bdb.h"
     67          
     68          #if !defined (DISABLE_GREENPOWER_BASIC_PROXY) && (ZG_BUILD_RTR_TYPE)
     69          #include "gp_common.h"
     70          #endif
     71           
     72          #if defined( LCD_SUPPORTED )
     73            #include "OnBoard.h"
     74          #endif
     75          
     76          /* HAL */
     77          #include "hal_lcd.h"
     78          
     79          /*********************************************************************
     80           * MACROS
     81           */
     82          
     83          /*********************************************************************
     84           * CONSTANTS
     85           */
     86          // NLME Stub Implementations
     87          #define ZDO_ProcessMgmtPermitJoinTimeout NLME_PermitJoiningTimeout
     88          
     89          /*********************************************************************
     90           * TYPEDEFS
     91           */
     92          #if defined ( REFLECTOR )
     93          typedef struct
     94          {
     95            byte SrcTransSeq;
     96            zAddrType_t SrcAddr;
     97            uint16 LocalCoordinator;
     98            byte epIntf;
     99            uint16 ProfileID;
    100            byte numInClusters;
    101            uint16 *inClusters;
    102            byte numOutClusters;
    103            uint16 *outClusters;
    104            byte SecurityUse;
    105            byte status;
    106          } ZDO_EDBind_t;
    107          #endif // defined ( REFLECTOR )
    108          
    109          enum
    110          {
    111            ZDMATCH_INIT,           // Initialized
    112            ZDMATCH_WAIT_REQ,       // Received first request, waiting for second
    113            ZDMATCH_SENDING_BINDS   // Received both requests, sending unbind/binds
    114          };
    115          
    116          enum
    117          {
    118            ZDMATCH_SENDING_NOT,
    119            ZDMATCH_SENDING_UNBIND,
    120            ZDMATCH_SENDING_BIND
    121          };
    122          
    123          /*********************************************************************
    124           * GLOBAL VARIABLES
    125           */
    126          
    127          /*********************************************************************
    128           * EXTERNAL VARIABLES
    129           */
    130          
    131          extern bool  requestNewTrustCenterLinkKey;   
    132             
    133          /*********************************************************************
    134           * EXTERNAL FUNCTIONS
    135           */
    136          
    137          /*********************************************************************
    138           * LOCAL VARIABLES
    139           */

   \                                 In  segment XDATA_Z, align 1, keep-with-next
    140          static uint16 ZDOBuildBuf[26];  // temp area to build data without allocation
   \                     ZDOBuildBuf:
   \   000000                DS 52
   \   000034                REQUIRE __INIT_XDATA_Z
    141          
    142          #if defined ( REFLECTOR )

   \                                 In  segment XDATA_Z, align 1, keep-with-next
    143          static ZDO_EDBind_t *ZDO_EDBind;     // Null when not used
   \                     ZDO_EDBind:
   \   000000                DS 2
   \   000002                REQUIRE __INIT_XDATA_Z
    144          #endif
    145          
    146          #if defined ( MANAGED_SCAN )
    147            uint32 managedScanNextChannel = 0;
    148            uint32 managedScanChannelMask = 0;
    149            uint8  managedScanTimesPerChannel = 0;
    150          #endif
    151          

   \                                 In  segment XDATA_Z, align 1, keep-with-next
    152          ZDMatchEndDeviceBind_t *matchED = (ZDMatchEndDeviceBind_t *)NULL;
   \                     matchED:
   \   000000                DS 2
   \   000002                REQUIRE __INIT_XDATA_Z
    153          

   \                                 In  segment XDATA_Z, align 1, keep-with-next
    154          uint32 apsChannelMask = 0;
   \                     apsChannelMask:
   \   000000                DS 4
   \   000004                REQUIRE __INIT_XDATA_Z
    155          

   \                                 In  segment XDATA_I, align 1, keep-with-next
    156          int16 zdpExternalStateTaskID = -1;
   \                     zdpExternalStateTaskID:
   \   000000                DS 2
   \   000002                REQUIRE `?<Initializer for zdpExternalStateTaskID>`
   \   000002                REQUIRE __INIT_XDATA_I
    157          
    158          /*********************************************************************
    159           * LOCAL FUNCTIONS
    160           */
    161          static void ZDODeviceSetup( void );
    162          #if defined ( MANAGED_SCAN )
    163            static void ZDOManagedScan_Next( void );
    164          #endif
    165          #if defined ( REFLECTOR )
    166            static void ZDO_RemoveEndDeviceBind( void );
    167            static void ZDO_SendEDBindRsp( byte TransSeq, zAddrType_t *dstAddr, byte Status, byte secUse );
    168          #endif
    169          #if ( ZG_BUILD_COORDINATOR_TYPE )
    170            static byte ZDO_CompareClusterLists( byte numList1, uint16 *list1,
    171                                                 byte numList2, uint16 *list2, uint16 *pMatches );
    172            static void ZDO_RemoveMatchMemory( void );
    173            static uint8 ZDO_CopyMatchInfo( ZDEndDeviceBind_t *destReq, ZDEndDeviceBind_t *srcReq );
    174            static void ZDO_EndDeviceBindMatchTimeoutCB( void );
    175          #endif
    176          uint8 *ZDO_ConvertOTAClusters( uint8 cnt, uint8 *inBuf, uint16 *outList );
    177          static void zdoSendStateChangeMsg(uint8 state, uint8 taskId);
    178          
    179          /*********************************************************************
    180           * @fn          ZDO_Init
    181           *
    182           * @brief       ZDObject and ZDProfile initialization.
    183           *
    184           * @param       none
    185           *
    186           * @return      none
    187           */

   \                                 In  segment BANKED_CODE, align 1, keep-with-next
    188          void ZDO_Init( void )
   \                     ZDO_Init:
    189          {
   \   000000   C082         PUSH      DPL
   \   000002   C083         PUSH      DPH
   \   000004                ; Saved register size: 2
   \   000004                ; Auto size: 0
    190            // Initialize ZD items
    191            #if defined ( REFLECTOR )
    192            ZDO_EDBind = NULL;
   \   000004   90....       MOV       DPTR,#ZDO_EDBind
   \   000007   E4           CLR       A
   \   000008   F0           MOVX      @DPTR,A
   \   000009   A3           INC       DPTR
   \   00000A   F0           MOVX      @DPTR,A
    193            #endif
    194          
    195            // Initialize default ZDO_UseExtendedPANID to the APS one.
    196            osal_cpyExtAddr( ZDO_UseExtendedPANID, AIB_apsUseExtendedPANID );
   \   00000B                ; Setup parameters for call to function sAddrExtCpy
   \   00000B   7C..         MOV       R4,#AIB_apsUseExtendedPANID & 0xff
   \   00000D   7D..         MOV       R5,#(AIB_apsUseExtendedPANID >> 8) & 0xff
   \   00000F   7A..         MOV       R2,#ZDO_UseExtendedPANID & 0xff
   \   000011   7B..         MOV       R3,#(ZDO_UseExtendedPANID >> 8) & 0xff
   \   000013   12....       LCALL     `??sAddrExtCpy::?relay`; Banked call to: sAddrExtCpy
    197          
    198            // Setup the device - type of device to create.
    199            ZDODeviceSetup();
   \   000016                ; Setup parameters for call to function NLME_CoordinatorInit
   \   000016   12....       LCALL     `??NLME_CoordinatorInit::?relay`; Banked call to: NLME_CoordinatorInit
   \   000019                ; Setup parameters for call to function APS_ReflectorInit
   \   000019   12....       LCALL     `??APS_ReflectorInit::?relay`; Banked call to: APS_ReflectorInit
    200          }
   \   00001C   02....       LJMP      ?Subroutine0 & 0xFFFF

   \                                 In  segment BANKED_CODE, align 1, keep-with-next
   \                     ?Subroutine0:
   \   000000   D083         POP       DPH
   \   000002   D082         POP       DPL
   \   000004   02....       LJMP      ?BRET
    201          
    202          #if defined ( MANAGED_SCAN )
    203          /*********************************************************************
    204           * @fn      ZDOManagedScan_Next()
    205           *
    206           * @brief   Setup a managed scan.
    207           *
    208           * @param   none
    209           *
    210           * @return  none
    211           */
    212          static void ZDOManagedScan_Next( void )
    213          {
    214            // Is it the first time
    215            if ( managedScanNextChannel == 0 && managedScanTimesPerChannel == 0 )
    216            {
    217              // Setup the defaults
    218              managedScanNextChannel  = 1;
    219          
    220              while( managedScanNextChannel && (runtimeChannel & managedScanNextChannel) == 0 )
    221                managedScanNextChannel <<= 1;
    222          
    223              managedScanChannelMask = managedScanNextChannel;
    224              managedScanTimesPerChannel = MANAGEDSCAN_TIMES_PRE_CHANNEL;
    225            }
    226            else
    227            {
    228              // Do we need to go to the next channel
    229              if ( managedScanTimesPerChannel == 0 )
    230              {
    231                // Find next active channel
    232                managedScanChannelMask  = managedScanNextChannel;
    233                managedScanTimesPerChannel = MANAGEDSCAN_TIMES_PRE_CHANNEL;
    234              }
    235              else
    236              {
    237                managedScanTimesPerChannel--;
    238          
    239                if ( managedScanTimesPerChannel == 0 )
    240                {
    241                  managedScanNextChannel  <<= 1;
    242                  while( managedScanNextChannel && (runtimeChannel & managedScanNextChannel) == 0 )
    243                    managedScanNextChannel <<= 1;
    244          
    245                  if ( managedScanNextChannel == 0 )
    246                    zdoDiscCounter  = NUM_DISC_ATTEMPTS + 1; // Stop
    247                }
    248              }
    249            }
    250          }
    251          #endif // MANAGED_SCAN
    252          
    253          /*********************************************************************
    254           * @fn      ZDODeviceSetup()
    255           *
    256           * @brief   Call set functions depending on the type of device compiled.
    257           *
    258           * @param   none
    259           *
    260           * @return  none
    261           */
    262          static void ZDODeviceSetup( void )
    263          {
    264            if ( ZG_BUILD_COORDINATOR_TYPE )
    265            {
    266              NLME_CoordinatorInit();
    267            }
    268          
    269          #if defined ( REFLECTOR )
    270            APS_ReflectorInit();
    271          #endif
    272          
    273            if ( ZG_BUILD_JOINING_TYPE )
    274            {
    275              NLME_DeviceJoiningInit();
    276            }
    277          }
    278          
    279          
    280          
    281          
    282          /*********************************************************************
    283           * @fn          ZDO_StartDevice
    284           *
    285           * @brief       This function starts a device in a network. Added distributed network for router devices
    286           *
    287           * @param       logicalType     - Device type to start
    288           *              startMode       - indicates mode of device startup
    289           *              beaconOrder     - indicates time betwen beacons
    290           *              superframeOrder - indicates length of active superframe
    291           *              distributed     - indicates if the network will be formed
    292           *
    293           * @return      none
    294           */

   \                                 In  segment BANKED_CODE, align 1, keep-with-next
    295          void ZDO_StartDevice( byte logicalType, devStartModes_t startMode, byte beaconOrder, byte superframeOrder )
   \                     ZDO_StartDevice:
    296          {
   \   000000                REQUIRE ?V0
   \   000000                REQUIRE ?V1
   \   000000                REQUIRE ?V2
   \   000000                REQUIRE ?V3
   \   000000   74F4         MOV       A,#-0xc
   \   000002   12....       LCALL     ?BANKED_ENTER_XDATA
   \   000005                ; Saved register size: 12
   \   000005                ; Auto size: 0
   \   000005   E9           MOV       A,R1
   \   000006   FF           MOV       R7,A
   \   000007   8A..         MOV       ?V0,R2
   \   000009   EB           MOV       A,R3
   \   00000A   FE           MOV       R6,A
   \   00000B   8C..         MOV       ?V1,R4
    297            ZStatus_t ret;
    298          #if defined ( ZIGBEE_FREQ_AGILITY )
    299            static uint8 discRetries = 0;
    300          #endif
    301          #if defined ( ZIGBEE_COMMISSIONING )
    302            static uint8 scanCnt = 0;
    303          #endif
    304          
    305            ret = ZUnsupportedMode;
    306          
    307            if ( ZG_BUILD_COORDINATOR_TYPE && logicalType == NODETYPE_COORDINATOR )
   \   00000D   EF           MOV       A,R7
   \   00000E   7072         JNZ       ??ZDO_StartDevice_0
    308            {
    309              if ( startMode == MODE_HARD )
   \   000010   7402         MOV       A,#0x2
   \   000012   65..         XRL       A,?V0
   \   000014   7049         JNZ       ??ZDO_StartDevice_1
    310              {
    311                ZDApp_ChangeState( DEV_COORD_STARTING );
   \   000016                ; Setup parameters for call to function ZDApp_ChangeState
   \   000016   7908         MOV       R1,#0x8
   \   000018   12....       LCALL     `??ZDApp_ChangeState::?relay`; Banked call to: ZDApp_ChangeState
    312                ret = NLME_NetworkFormationRequest( zgConfigPANID, zgApsUseExtendedPANID, runtimeChannel,
    313                                                    zgDefaultStartingScanDuration, beaconOrder,
    314                                                    superframeOrder, false, false, 0 );
   \   00001B                ; Setup parameters for call to function NLME_NetworkFormationRequest
   \   00001B   E4           CLR       A
   \   00001C   F5..         MOV       ?V2,A
   \   00001E   F5..         MOV       ?V3,A
   \   000020   78..         MOV       R0,#?V2
   \   000022   12....       LCALL     ?PUSH_XSTACK_I_TWO
   \   000025   78..         MOV       R0,#?V2
   \   000027   12....       LCALL     ?PUSH_XSTACK_I_ONE
   \   00002A   78..         MOV       R0,#?V2
   \   00002C   12....       LCALL     ?PUSH_XSTACK_I_ONE
   \   00002F   E5..         MOV       A,?V1
   \   000031   F5..         MOV       ?V2,A
   \   000033   78..         MOV       R0,#?V2
   \   000035   12....       LCALL     ?PUSH_XSTACK_I_ONE
   \   000038   EE           MOV       A,R6
   \   000039   F5..         MOV       ?V2,A
   \   00003B   78..         MOV       R0,#?V2
   \   00003D   12....       LCALL     ?PUSH_XSTACK_I_ONE
   \   000040   90....       MOV       DPTR,#runtimeChannel
   \   000043   12....       LCALL     ?PUSH_XSTACK8_X_FOUR
   \   000046   90....       MOV       DPTR,#bdbAttributes + 13
   \   000049   E0           MOVX      A,@DPTR
   \   00004A   F9           MOV       R1,A
   \   00004B   7C..         MOV       R4,#zgApsUseExtendedPANID & 0xff
   \   00004D   7D..         MOV       R5,#(zgApsUseExtendedPANID >> 8) & 0xff
   \   00004F   90....       MOV       DPTR,#zgConfigPANID
   \   000052   12....       LCALL     ??Subroutine194_0 & 0xFFFF
    315              }
   \                     ??CrossCallReturnLabel_417:
   \   000055   12....       LCALL     `??NLME_NetworkFormationRequest::?relay`; Banked call to: NLME_NetworkFormationRequest
   \   000058   740A         MOV       A,#0xa
   \   00005A   12....       LCALL     ?DEALLOC_XSTACK8
   \   00005D   8013         SJMP      ??ZDO_StartDevice_2
    316              else if ( startMode == MODE_RESUME )
   \                     ??ZDO_StartDevice_1:
   \   00005F   7401         MOV       A,#0x1
   \   000061   65..         XRL       A,?V0
   \   000063   7012         JNZ       ??ZDO_StartDevice_3
    317              {
    318                // Just start the coordinator
    319                ZDApp_ChangeState( DEV_COORD_STARTING );
   \   000065                ; Setup parameters for call to function ZDApp_ChangeState
   \   000065   7908         MOV       R1,#0x8
   \   000067   12....       LCALL     `??ZDApp_ChangeState::?relay`; Banked call to: ZDApp_ChangeState
    320                ret = NLME_StartRouterRequest( beaconOrder, beaconOrder, false );
   \   00006A                ; Setup parameters for call to function NLME_StartRouterRequest
   \   00006A   7B00         MOV       R3,#0x0
   \   00006C   EE           MOV       A,R6
   \   00006D   FA           MOV       R2,A
   \   00006E   F9           MOV       R1,A
   \   00006F   12....       LCALL     `??NLME_StartRouterRequest::?relay`; Banked call to: NLME_StartRouterRequest
   \                     ??ZDO_StartDevice_2:
   \   000072   E9           MOV       A,R1
    321              }
    322              else
    323              {
    324          #if defined( LCD_SUPPORTED )
    325                HalLcdWriteScreen( "StartDevice ERR", "MODE unknown" );
    326          #endif
    327              }
    328            }
    329          
    330            if ( ZG_BUILD_JOINING_TYPE && (logicalType == NODETYPE_ROUTER || logicalType == NODETYPE_DEVICE) )
    331            {
    332              if ( (startMode == MODE_JOIN) || (startMode == MODE_REJOIN) )
    333              {
    334                if(APSME_IsDistributedSecurity() && (startMode != MODE_REJOIN))
    335                {
    336                        ret = NLME_NetworkFormationRequest( zgConfigPANID, zgApsUseExtendedPANID, runtimeChannel,
    337                                                    zgDefaultStartingScanDuration, beaconOrder,
    338                                                    superframeOrder, false, true, osal_rand() );
    339                  
    340                }
    341                else
    342                {
    343                  ZDApp_ChangeState( DEV_NWK_DISC );
    344          
    345                #if defined( MANAGED_SCAN )
    346                  ZDOManagedScan_Next();
    347                  ret = NLME_NetworkDiscoveryRequest( managedScanChannelMask, BEACON_ORDER_15_MSEC );
    348                #else
    349                  ret = NLME_NetworkDiscoveryRequest( runtimeChannel, zgDefaultStartingScanDuration );
    350                  #if defined ( ZIGBEE_FREQ_AGILITY )
    351                  if ( !( ZDO_Config_Node_Descriptor.CapabilityFlags & CAPINFO_RCVR_ON_IDLE ) &&
    352                      ( ret == ZSuccess ) && ( ++discRetries == 4 ) )
    353                  {
    354                    // For devices with RxOnWhenIdle equals to FALSE, any network channel
    355                    // change will not be recieved. On these devices or routers that have
    356                    // lost the network, an active scan shall be conducted on the Default
    357                    // Channel list using the extended PANID to find the network. If the
    358                    // extended PANID isn't found using the Default Channel list, an scan
    359                    // should be completed using all channels.
    360                    runtimeChannel = MAX_CHANNELS_24GHZ;
    361                  }
    362                  #endif // ZIGBEE_FREQ_AGILITY
    363                  #if defined ( ZIGBEE_COMMISSIONING )
    364                  if (startMode == MODE_REJOIN && scanCnt++ >= 5 )
    365                  {
    366                    // When ApsUseExtendedPanID is commissioned to a non zero value via
    367                    // application specific means, the device shall conduct an active scan
    368                    // on the Default Channel list and join the PAN with the same
    369                    // ExtendedPanID. If the PAN is not found, an scan should be completed
    370                    // on all channels.
    371                    // When devices rejoin the network and the PAN is not found from
    372                    runtimeChannel = MAX_CHANNELS_24GHZ;
    373                  }
    374                  #endif // ZIGBEE_COMMISSIONING
    375                #endif
    376                }
    377              }
    378              else if ( startMode == MODE_RESUME )
    379              {
    380                if ( logicalType == NODETYPE_ROUTER )
    381                {
    382                  uint16 panID;
    383                  
    384                  ZDApp_ChangeState( DEV_NWK_ORPHAN );
    385                  
    386                  // Stop the rejoin timeout
    387                  osal_stop_timerEx( NWK_TaskID, NWK_REJOIN_TIMEOUT_EVT );
    388                  ZMacGetReq( ZMacPanId, (uint8 *)&( panID ) );
    389                  
    390                  _NIB.nwkPanId = panID;
    391                  NLME_JoinConfirm(  _NIB.nwkPanId, ZSuccess );
    392          
    393                  ret = ZSuccess;
    394                }
    395                else
    396                {
    397                  ZDApp_ChangeState( DEV_NWK_ORPHAN );
    398                  //set timer for scan and rejoin
    399                  osal_start_timerEx( ZDAppTaskID, ZDO_REJOIN_BACKOFF, zgDefaultRejoinScan );
    400                  ret = NLME_OrphanJoinRequest( runtimeChannel,
    401                                                zgDefaultStartingScanDuration );
    402                }
    403              }
    404              else
    405              {
    406          #if defined( LCD_SUPPORTED )
    407                HalLcdWriteScreen( "StartDevice ERR", "MODE unknown" );
    408          #endif
    409              }
    410            }
    411          
    412            if ( ret != ZSuccess )
   \   000073   700D         JNZ       ??ZDO_StartDevice_0
   \   000075   8022         SJMP      ??ZDO_StartDevice_4
   \                     ??ZDO_StartDevice_3:
   \   000077                ; Setup parameters for call to function HalLcdWriteScreen
   \   000077   7C..         MOV       R4,#`?<Constant "MODE unknown">` & 0xff
   \   000079   7D..         MOV       R5,#(`?<Constant "MODE unknown">` >> 8) & 0xff
   \   00007B   7A..         MOV       R2,#`?<Constant "StartDevice ERR">` & 0xff
   \   00007D   7B..         MOV       R3,#(`?<Constant "StartDevice ERR">` >> 8) & 0xff
   \   00007F   12....       LCALL     `??HalLcdWriteScreen::?relay`; Banked call to: HalLcdWriteScreen
    413            {
    414              osal_start_timerEx(ZDAppTaskID, ZDO_NETWORK_INIT, NWK_RETRY_DELAY );
   \                     ??ZDO_StartDevice_0:
   \   000082                ; Setup parameters for call to function osal_start_timerEx
   \   000082   90....       MOV       DPTR,#__Constant_3e8
   \   000085   12....       LCALL     ?PUSH_XSTACK8_X_FOUR
   \   000088   7A01         MOV       R2,#0x1
   \   00008A   7B00         MOV       R3,#0x0
   \   00008C   90....       MOV       DPTR,#ZDAppTaskID
   \   00008F   E0           MOVX      A,@DPTR
   \   000090   F9           MOV       R1,A
   \   000091   12....       LCALL     `??osal_start_timerEx::?relay`; Banked call to: osal_start_timerEx
   \   000094   7404         MOV       A,#0x4
   \   000096   12....       LCALL     ?DEALLOC_XSTACK8
    415            }
    416          }
   \                     ??ZDO_StartDevice_4:
   \   000099   80..         SJMP      ??Subroutine167_0

   \                                 In  segment BANKED_CODE, align 1, keep-with-next
   \                     ??Subroutine167_0:
   \   000000   7F04         MOV       R7,#0x4
   \   000002   02....       LJMP      ?BANKED_LEAVE_XDATA

   \                                 In  segment BANKED_CODE, align 1, keep-with-next
   \                     ??Subroutine194_0:
   \   000000   12....       LCALL     ??Subroutine205_0 & 0xFFFF
   \                     ??CrossCallReturnLabel_494:
   \   000003   22           RET

   \                                 In  segment BANKED_CODE, align 1, keep-with-next
   \                     ??Subroutine205_0:
   \   000000   E0           MOVX      A,@DPTR
   \   000001   FA           MOV       R2,A
   \   000002   A3           INC       DPTR
   \   000003   E0           MOVX      A,@DPTR
   \   000004   FB           MOV       R3,A
   \   000005   22           RET
    417          
    418          /**************************************************************************************************
    419           * @fn          zdoSendStateChangeMsg
    420           *
    421           * @brief       Helper function for ZDO_UpdateNwkStatus.
    422           *
    423           * input parameters
    424           *
    425           * @param       taskId - The OSAL task identifier to which to send the ZDO_STATE_CHANGE_EVT.
    426           * @param       state - The current device state.
    427           *
    428           * output parameters
    429           *
    430           * None.
    431           *
    432           * @return      None.
    433           **************************************************************************************************
    434           */

   \                                 In  segment BANKED_CODE, align 1, keep-with-next
    435          static void zdoSendStateChangeMsg(uint8 state, uint8 taskId)
   \                     zdoSendStateChangeMsg:
    436          {
   \   000000                REQUIRE ?V0
   \   000000                REQUIRE ?V1
   \   000000   74F6         MOV       A,#-0xa
   \   000002   12....       LCALL     ?BANKED_ENTER_XDATA
   \   000005                ; Saved register size: 10
   \   000005                ; Auto size: 0
   \   000005   E9           MOV       A,R1
   \   000006   FF           MOV       R7,A
   \   000007   EA           MOV       A,R2
   \   000008   FE           MOV       R6,A
    437            osal_event_hdr_t *pMsg = (osal_event_hdr_t *)osal_msg_find(taskId, ZDO_STATE_CHANGE);
   \   000009                ; Setup parameters for call to function osal_msg_find
   \   000009   7AD1         MOV       R2,#-0x2f
   \   00000B   F9           MOV       R1,A
   \   00000C   12....       LCALL     `??osal_msg_find::?relay`; Banked call to: osal_msg_find
   \   00000F   8A82         MOV       DPL,R2
   \   000011   8B83         MOV       DPH,R3
    438          
    439            if (NULL == pMsg)
   \   000013   E582         MOV       A,DPL
   \   000015   4583         ORL       A,DPH
   \   000017   702A         JNZ       ??zdoSendStateChangeMsg_0
    440            {
    441              if (NULL == (pMsg = (osal_event_hdr_t *)osal_msg_allocate(sizeof(osal_event_hdr_t))))
   \   000019                ; Setup parameters for call to function osal_msg_allocate
   \   000019   7A02         MOV       R2,#0x2
   \   00001B   7B00         MOV       R3,#0x0
   \   00001D   12....       LCALL     `??osal_msg_allocate::?relay`; Banked call to: osal_msg_allocate
   \   000020   EA           MOV       A,R2
   \   000021   4B           ORL       A,R3
   \   000022   700E         JNZ       ??zdoSendStateChangeMsg_1
    442              {
    443                // Upon failure to notify any EndPoint of the state change, re-set the ZDO event to
    444                // try again later when more Heap may be available.
    445                osal_set_event(ZDAppTaskID, ZDO_STATE_CHANGE_EVT);
   \   000024                ; Setup parameters for call to function osal_set_event
   \   000024   7A10         MOV       R2,#0x10
   \   000026   7B00         MOV       R3,#0x0
   \   000028   90....       MOV       DPTR,#ZDAppTaskID
   \   00002B   E0           MOVX      A,@DPTR
   \   00002C   F9           MOV       R1,A
   \   00002D   12....       LCALL     `??osal_set_event::?relay`; Banked call to: osal_set_event
   \   000030   8014         SJMP      ??zdoSendStateChangeMsg_2
    446              }
    447              else
    448              {
    449                pMsg->event = ZDO_STATE_CHANGE;
   \                     ??zdoSendStateChangeMsg_1:
   \   000032   8A82         MOV       DPL,R2
   \   000034   8B83         MOV       DPH,R3
   \   000036   74D1         MOV       A,#-0x2f
   \   000038   F0           MOVX      @DPTR,A
    450                pMsg->status = state;
   \   000039   EF           MOV       A,R7
   \   00003A   A3           INC       DPTR
   \   00003B   F0           MOVX      @DPTR,A
    451          
    452                (void)osal_msg_send(taskId, (uint8 *)pMsg);
   \   00003C                ; Setup parameters for call to function osal_msg_send
   \   00003C   EE           MOV       A,R6
   \   00003D   F9           MOV       R1,A
   \   00003E   12....       LCALL     `??osal_msg_send::?relay`; Banked call to: osal_msg_send
   \   000041   8003         SJMP      ??zdoSendStateChangeMsg_2
    453              }
    454            }
    455            else
    456            {
    457              // Modify in place the status of an existing ZDO_STATE_CHANGE message to the EndPoint.
    458              pMsg->status = state;
   \                     ??zdoSendStateChangeMsg_0:
   \   000043   EF           MOV       A,R7
   \   000044   A3           INC       DPTR
   \   000045   F0           MOVX      @DPTR,A
    459            }
    460          }
   \                     ??zdoSendStateChangeMsg_2:
   \   000046   02....       LJMP      ??Subroutine173_0 & 0xFFFF

   \                                 In  segment BANKED_CODE, align 1, keep-with-next
   \                     ??Subroutine173_0:
   \   000000   7F02         MOV       R7,#0x2
   \   000002   02....       LJMP      ?BANKED_LEAVE_XDATA
    461          
    462          /**************************************************************************************************
    463           * @fn          ZDO_UpdateNwkStatus
    464           *
    465           * @brief       This function sends a ZDO_STATE_CHANGE message to the task of every EndPoint
    466           *              registered with AF (except, of course, the ZDO_EP). Even if a single task has more
    467           *              than one registered EndPoint, it will only receive one notification per state
    468           *              change. Although the device may go through a sequence of state changes, the
    469           *              Application task may only receive notification of the final, steady-state state
    470           *              because it has the lowest priority and never even runs to receive the intermediate
    471           *              state change notifications.
    472           *
    473           * input parameters
    474           *
    475           * @param       state - The current device state.
    476           *
    477           * output parameters
    478           *
    479           * None.
    480           *
    481           * @return      None.
    482           **************************************************************************************************
    483           */

   \                                 In  segment BANKED_CODE, align 1, keep-with-next
    484          void ZDO_UpdateNwkStatus(devStates_t state)
   \                     ZDO_UpdateNwkStatus:
    485          {
   \   000000                REQUIRE ?V0
   \   000000   74F7         MOV       A,#-0x9
   \   000002   12....       LCALL     ?BANKED_ENTER_XDATA
   \   000005                ; Saved register size: 9
   \   000005                ; Auto size: 0
   \   000005   89..         MOV       ?V0,R1
    486            epList_t *pItem = epList;
   \   000007   90....       MOV       DPTR,#epList
   \   00000A   E0           MOVX      A,@DPTR
   \   00000B   FE           MOV       R6,A
   \   00000C   A3           INC       DPTR
   \   00000D   E0           MOVX      A,@DPTR
   \   00000E   801A         SJMP      ??CrossCallReturnLabel_157
    487          
    488          #if defined MT_ZDO_CB_FUNC
    489            if ( zdpExternalStateTaskID == -1 )
    490            {
    491              zdpExternalStateTaskID = MT_TaskID;
    492            }
    493          #endif
    494          
    495            while (pItem != NULL)
    496            {
    497              if (pItem->epDesc->endPoint != ZDO_EP)
   \                     ??ZDO_UpdateNwkStatus_0:
   \   000010   8E82         MOV       DPL,R6
   \   000012   8F83         MOV       DPH,R7
   \   000014   12....       LCALL     ?Subroutine76 & 0xFFFF
   \                     ??CrossCallReturnLabel_297:
   \   000017   E0           MOVX      A,@DPTR
   \   000018   6009         JZ        ??ZDO_UpdateNwkStatus_1
    498              {
    499                zdoSendStateChangeMsg(state, *(pItem->epDesc->task_id));
   \   00001A                ; Setup parameters for call to function zdoSendStateChangeMsg
   \   00001A   12....       LCALL     ?Subroutine81 & 0xFFFF
    500              }
   \                     ??CrossCallReturnLabel_286:
   \   00001D   FA           MOV       R2,A
   \   00001E   A9..         MOV       R1,?V0
   \   000020   12....       LCALL     `??zdoSendStateChangeMsg::?relay`; Banked call to: zdoSendStateChangeMsg
    501          
    502              pItem = pItem->nextDesc;
   \                     ??ZDO_UpdateNwkStatus_1:
   \   000023   8E82         MOV       DPL,R6
   \   000025   8F83         MOV       DPH,R7
   \   000027   12....       LCALL     ?Subroutine98 & 0xFFFF
    503            }
   \                     ??CrossCallReturnLabel_157:
   \   00002A   FF           MOV       R7,A
   \   00002B   EE           MOV       A,R6
   \   00002C   4F           ORL       A,R7
   \   00002D   70E1         JNZ       ??ZDO_UpdateNwkStatus_0
    504          
    505            if ( zdpExternalStateTaskID != -1 )
   \   00002F   90....       MOV       DPTR,#zdpExternalStateTaskID
   \   000032   E0           MOVX      A,@DPTR
   \   000033   F4           CPL       A
   \   000034   7003         JNZ       ??ZDO_UpdateNwkStatus_2
   \   000036   A3           INC       DPTR
   \   000037   E0           MOVX      A,@DPTR
   \   000038   F4           CPL       A
   \                     ??ZDO_UpdateNwkStatus_2:
   \   000039   600A         JZ        ??ZDO_UpdateNwkStatus_3
    506            {
    507              zdoSendStateChangeMsg( state, zdpExternalStateTaskID );
   \   00003B                ; Setup parameters for call to function zdoSendStateChangeMsg
   \   00003B   90....       MOV       DPTR,#zdpExternalStateTaskID
   \   00003E   E0           MOVX      A,@DPTR
   \   00003F   FA           MOV       R2,A
   \   000040   A9..         MOV       R1,?V0
   \   000042   12....       LCALL     `??zdoSendStateChangeMsg::?relay`; Banked call to: zdoSendStateChangeMsg
    508            }
    509          
    510            ZDAppNwkAddr.addr.shortAddr = NLME_GetShortAddr();
   \                     ??ZDO_UpdateNwkStatus_3:
   \   000045                ; Setup parameters for call to function NLME_GetShortAddr
   \   000045   12....       LCALL     `??NLME_GetShortAddr::?relay`; Banked call to: NLME_GetShortAddr
   \   000048   90....       MOV       DPTR,#ZDAppNwkAddr
   \   00004B   12....       LCALL     ??Subroutine180_0 & 0xFFFF
    511            (void)NLME_GetExtAddr();  // Load the saveExtAddr pointer.
   \                     ??CrossCallReturnLabel_350:
   \   00004E                ; Setup parameters for call to function NLME_GetExtAddr
   \   00004E   12....       LCALL     `??NLME_GetExtAddr::?relay`; Banked call to: NLME_GetExtAddr
    512          }
   \   000051                REQUIRE ?Subroutine3
   \   000051                ; // Fall through to label ?Subroutine3

   \                                 In  segment BANKED_CODE, align 1, keep-with-next
   \                     ?Subroutine3:
   \   000000   7F01         MOV       R7,#0x1
   \   000002   02....       LJMP      ?BANKED_LEAVE_XDATA

   \                                 In  segment BANKED_CODE, align 1, keep-with-next
   \                     ?Subroutine81:
   \   000000   A3           INC       DPTR
   \   000001   A3           INC       DPTR
   \   000002                REQUIRE ??Subroutine168_0
   \   000002                ; // Fall through to label ??Subroutine168_0

   \                                 In  segment BANKED_CODE, align 1, keep-with-next
   \                     ??Subroutine168_0:
   \   000000   12....       LCALL     ?Subroutine143 & 0xFFFF
   \                     ??CrossCallReturnLabel_291:
   \   000003   22           RET

   \                                 In  segment BANKED_CODE, align 1, keep-with-next
   \                     ?Subroutine143:
   \   000000   12....       LCALL     ?Subroutine161 & 0xFFFF
   \                     ??CrossCallReturnLabel_295:
   \   000003   E0           MOVX      A,@DPTR
   \   000004   22           RET

   \                                 In  segment BANKED_CODE, align 1, keep-with-next
   \                     ?Subroutine161:
   \   000000   E0           MOVX      A,@DPTR
   \   000001   F8           MOV       R0,A
   \   000002   A3           INC       DPTR
   \   000003                REQUIRE ??Subroutine169_0
   \   000003                ; // Fall through to label ??Subroutine169_0

   \                                 In  segment BANKED_CODE, align 1, keep-with-next
   \                     ??Subroutine169_0:
   \   000000   E0           MOVX      A,@DPTR
   \   000001   F583         MOV       DPH,A
   \   000003   8882         MOV       DPL,R0
   \   000005   22           RET

   \                                 In  segment BANKED_CODE, align 1, keep-with-next
   \                     ?Subroutine76:
   \   000000   A3           INC       DPTR
   \   000001   A3           INC       DPTR
   \   000002                REQUIRE ??Subroutine170_0
   \   000002                ; // Fall through to label ??Subroutine170_0

   \                                 In  segment BANKED_CODE, align 1, keep-with-next
   \                     ??Subroutine170_0:
   \   000000   12....       LCALL     ??Subroutine190_0 & 0xFFFF
   \                     ??CrossCallReturnLabel_399:
   \   000003   22           RET

   \                                 In  segment BANKED_CODE, align 1, keep-with-next
   \                     ?Subroutine154:
   \   000000   12....       LCALL     ??Subroutine201_0 & 0xFFFF
   \                     ??CrossCallReturnLabel_506:
   \   000003   F9           MOV       R1,A
   \   000004   22           RET

   \                                 In  segment BANKED_CODE, align 1, keep-with-next
   \                     ??Subroutine180_0:
   \   000000   EA           MOV       A,R2
   \   000001                REQUIRE ??Subroutine181_0
   \   000001                ; // Fall through to label ??Subroutine181_0

   \                                 In  segment BANKED_CODE, align 1, keep-with-next
   \                     ??Subroutine181_0:
   \   000000   F0           MOVX      @DPTR,A
   \   000001   A3           INC       DPTR
   \   000002   EB           MOV       A,R3
   \   000003   F0           MOVX      @DPTR,A
   \   000004   22           RET

   \                                 In  segment BANKED_CODE, align 1, keep-with-next
   \                     ??Subroutine190_0:
   \   000000   E0           MOVX      A,@DPTR
   \   000001                REQUIRE ??Subroutine191_0
   \   000001                ; // Fall through to label ??Subroutine191_0

   \                                 In  segment BANKED_CODE, align 1, keep-with-next
   \                     ??Subroutine191_0:
   \   000000   F8           MOV       R0,A
   \   000001   A3           INC       DPTR
   \   000002   E0           MOVX      A,@DPTR
   \   000003   F9           MOV       R1,A
   \   000004   8882         MOV       DPL,R0
   \   000006   8983         MOV       DPH,R1
   \   000008   22           RET

   \                                 In  segment BANKED_CODE, align 1, keep-with-next
   \                     ??Subroutine201_0:
   \   000000   E0           MOVX      A,@DPTR
   \   000001   F8           MOV       R0,A
   \   000002   A3           INC       DPTR
   \   000003   E0           MOVX      A,@DPTR
   \   000004   22           RET

   \                                 In  segment BANKED_CODE, align 1, keep-with-next
   \                     ?Subroutine98:
   \   000000   12....       LCALL     ?Subroutine154 & 0xFFFF
   \                     ??CrossCallReturnLabel_439:
   \   000003   E8           MOV       A,R0
   \   000004   FE           MOV       R6,A
   \   000005   E9           MOV       A,R1
   \   000006   22           RET
    513          
    514          #if defined ( REFLECTOR )
    515          /*********************************************************************
    516           * @fn          ZDO_RemoveEndDeviceBind
    517           *
    518           * @brief       Remove the end device bind
    519           *
    520           * @param  none
    521           *
    522           * @return      none
    523           */
    524          static void ZDO_RemoveEndDeviceBind( void )
    525          {
    526            if ( ZDO_EDBind != NULL )
    527            {
    528              // Free the RAM
    529              if ( ZDO_EDBind->inClusters != NULL )
    530              {
    531                osal_mem_free( ZDO_EDBind->inClusters );
    532              }
    533              if ( ZDO_EDBind->outClusters != NULL )
    534              {
    535                osal_mem_free( ZDO_EDBind->outClusters );
    536              }
    537              osal_mem_free( ZDO_EDBind );
    538              ZDO_EDBind = NULL;
    539            }
    540          }
    541          #endif // REFLECTOR
    542          
    543          #if defined ( REFLECTOR )
    544          /*********************************************************************
    545           * @fn          ZDO_SendEDBindRsp
    546           *
    547           * @brief       Send the end device bind response
    548           *
    549           * @param  none
    550           *
    551           * @return      none
    552           */
    553          static void ZDO_SendEDBindRsp( byte TransSeq, zAddrType_t *dstAddr, byte Status, byte secUse )
    554          {
    555            ZDP_EndDeviceBindRsp( TransSeq, dstAddr, Status, secUse );
    556          
    557          #if defined( LCD_SUPPORTED )
    558            HalLcdWriteString( "End Device Bind", HAL_LCD_LINE_1 );
    559            if ( Status == ZDP_SUCCESS )
    560            {
    561              HalLcdWriteString( "Success Sent", HAL_LCD_LINE_2 );
    562            }
    563            else
    564            {
    565              HalLcdWriteString( "Timeout", HAL_LCD_LINE_2 );
    566            }
    567          #endif
    568          
    569          }
    570          #endif // REFLECTOR
    571          
    572          #if ( ZG_BUILD_COORDINATOR_TYPE )
    573          /*********************************************************************
    574           * @fn          ZDO_CompareClusterLists
    575           *
    576           * @brief       Compare one list to another list
    577           *
    578           * @param       numList1 - number of items in list 1
    579           * @param       list1 - first list of cluster IDs
    580           * @param       numList2 - number of items in list 2
    581           * @param       list2 - second list of cluster IDs
    582           * @param       pMatches - buffer to put matches
    583           *
    584           * @return      number of matches
    585           */

   \                                 In  segment BANKED_CODE, align 1, keep-with-next
    586          static byte ZDO_CompareClusterLists( byte numList1, uint16 *list1,
   \                     ZDO_CompareClusterLists:
    587                                    byte numList2, uint16 *list2, uint16 *pMatches )
    588          {
   \   000000                REQUIRE ?V0
   \   000000                REQUIRE ?V1
   \   000000                REQUIRE ?V2
   \   000000                REQUIRE ?V3
   \   000000                REQUIRE ?V4
   \   000000                REQUIRE ?V6
   \   000000                REQUIRE ?V7
   \   000000   74F0         MOV       A,#-0x10
   \   000002   12....       LCALL     ?BANKED_ENTER_XDATA
   \   000005                ; Saved register size: 16
   \   000005                ; Auto size: 0
   \   000005   89..         MOV       ?V3,R1
   \   000007   8C..         MOV       ?V4,R4
    589            byte x, y;
    590            uint16 z;
    591            byte numMatches = 0;
   \   000009   75..00       MOV       ?V1,#0x0
    592          
    593            // Check the first in against the seconds out
    594            for ( x = 0; x < numList1; x++ )
   \   00000C   75..00       MOV       ?V0,#0x0
   \   00000F   7410         MOV       A,#0x10
   \   000011   12....       LCALL     ?XSTACK_DISP0_8
   \   000014   12....       LCALL     ??Subroutine177_0 & 0xFFFF
   \                     ??CrossCallReturnLabel_320:
   \   000017   7412         MOV       A,#0x12
   \   000019   12....       LCALL     ?XSTACK_DISP0_8
   \   00001C   12....       LCALL     ??Subroutine192_0 & 0xFFFF
   \                     ??CrossCallReturnLabel_400:
   \   00001F   8046         SJMP      ??ZDO_CompareClusterLists_0
    595            {
    596              for ( y = 0; y < numList2; y++ )
    597              {
    598                z = list2[y];
   \                     ??ZDO_CompareClusterLists_1:
   \   000021   12....       LCALL     ?Subroutine100 & 0xFFFF
   \                     ??CrossCallReturnLabel_159:
   \   000024   12....       LCALL     ?Subroutine91 & 0xFFFF
   \                     ??CrossCallReturnLabel_144:
   \   000027   F5..         MOV       ?V7,A
    599                if ( list1[x] == z )
   \   000029   AE..         MOV       R6,?V0
   \   00002B   EE           MOV       A,R6
   \   00002C   2E           ADD       A,R6
   \   00002D   FE           MOV       R6,A
   \   00002E   E4           CLR       A
   \   00002F   33           RLC       A
   \   000030   FF           MOV       R7,A
   \   000031   EA           MOV       A,R2
   \   000032   2E           ADD       A,R6
   \   000033   F582         MOV       DPL,A
   \   000035   EB           MOV       A,R3
   \   000036   12....       LCALL     ??Subroutine188_0 & 0xFFFF
   \                     ??CrossCallReturnLabel_387:
   \   000039   65..         XRL       A,?V6
   \   00003B   7004         JNZ       ??ZDO_CompareClusterLists_2
   \   00003D   A3           INC       DPTR
   \   00003E   E0           MOVX      A,@DPTR
   \   00003F   65..         XRL       A,?V7
   \                     ??ZDO_CompareClusterLists_2:
   \   000041   7019         JNZ       ??ZDO_CompareClusterLists_3
    600                {
    601                  pMatches[numMatches++] = z;
   \   000043   AE..         MOV       R6,?V1
   \   000045   EE           MOV       A,R6
   \   000046   2E           ADD       A,R6
   \   000047   FE           MOV       R6,A
   \   000048   E4           CLR       A
   \   000049   33           RLC       A
   \   00004A   FF           MOV       R7,A
   \   00004B   EC           MOV       A,R4
   \   00004C   2E           ADD       A,R6
   \   00004D   F582         MOV       DPL,A
   \   00004F   ED           MOV       A,R5
   \   000050   3F           ADDC      A,R7
   \   000051   F583         MOV       DPH,A
   \   000053   E5..         MOV       A,?V6
   \   000055   F0           MOVX      @DPTR,A
   \   000056   A3           INC       DPTR
   \   000057   E5..         MOV       A,?V7
   \   000059   F0           MOVX      @DPTR,A
   \   00005A   05..         INC       ?V1
    602                }
    603              }
   \                     ??ZDO_CompareClusterLists_3:
   \   00005C   05..         INC       ?V2
   \                     ??ZDO_CompareClusterLists_4:
   \   00005E   E5..         MOV       A,?V2
   \   000060   C3           CLR       C
   \   000061   95..         SUBB      A,?V4
   \   000063   40BC         JC        ??ZDO_CompareClusterLists_1
   \   000065   05..         INC       ?V0
   \                     ??ZDO_CompareClusterLists_0:
   \   000067   E5..         MOV       A,?V0
   \   000069   C3           CLR       C
   \   00006A   95..         SUBB      A,?V3
   \   00006C   5005         JNC       ??ZDO_CompareClusterLists_5
   \   00006E   75..00       MOV       ?V2,#0x0
   \   000071   80EB         SJMP      ??ZDO_CompareClusterLists_4
    604            }
    605          
    606            return ( numMatches );
   \                     ??ZDO_CompareClusterLists_5:
   \   000073   A9..         MOV       R1,?V1
   \   000075   02....       LJMP      ??Subroutine189_0 & 0xFFFF
    607          }

   \                                 In  segment BANKED_CODE, align 1, keep-with-next
   \                     ?Subroutine100:
   \   000000   AE..         MOV       R6,?V2
   \   000002   EE           MOV       A,R6
   \   000003   2E           ADD       A,R6
   \   000004   FE           MOV       R6,A
   \   000005   E4           CLR       A
   \   000006   33           RLC       A
   \   000007   FF           MOV       R7,A
   \   000008   E8           MOV       A,R0
   \   000009   2E           ADD       A,R6
   \   00000A   F582         MOV       DPL,A
   \   00000C   E9           MOV       A,R1
   \   00000D   3F           ADDC      A,R7
   \   00000E   F583         MOV       DPH,A
   \   000010   22           RET

   \                                 In  segment BANKED_CODE, align 1, keep-with-next
   \                     ??Subroutine177_0:
   \   000000   12....       LCALL     ?Subroutine154 & 0xFFFF
   \                     ??CrossCallReturnLabel_440:
   \   000003   22           RET

   \                                 In  segment BANKED_CODE, align 1, keep-with-next
   \                     ??Subroutine188_0:
   \   000000   3F           ADDC      A,R7
   \   000001   F583         MOV       DPH,A
   \   000003   E0           MOVX      A,@DPTR
   \   000004   22           RET

   \                                 In  segment BANKED_CODE, align 1, keep-with-next
   \                     ??Subroutine189_0:
   \   000000   7F08         MOV       R7,#0x8
   \   000002   02....       LJMP      ?BANKED_LEAVE_XDATA

   \                                 In  segment BANKED_CODE, align 1, keep-with-next
   \                     ??Subroutine192_0:
   \   000000   E0           MOVX      A,@DPTR
   \   000001   FC           MOV       R4,A
   \   000002   A3           INC       DPTR
   \   000003   E0           MOVX      A,@DPTR
   \   000004   FD           MOV       R5,A
   \   000005   22           RET

   \                                 In  segment BANKED_CODE, align 1, keep-with-next
   \                     ?Subroutine91:
   \   000000   E0           MOVX      A,@DPTR
   \   000001   F5..         MOV       ?V6,A
   \   000003   A3           INC       DPTR
   \   000004   E0           MOVX      A,@DPTR
   \   000005   22           RET
    608          #endif // ZG_BUILD_COORDINATOR_TYPE
    609          
    610          /*********************************************************************
    611           * Utility functions
    612           */
    613          
    614          /*********************************************************************
    615           * @fn          ZDO_CompareByteLists
    616           *
    617           * @brief       Compares two lists for matches.
    618           *
    619           * @param       ACnt  - number of entries in list A
    620           * @param       AList  - List A
    621           * @param       BCnt  - number of entries in list B
    622           * @param       BList  - List B
    623           *
    624           * @return      true if a match is found
    625           */

   \                                 In  segment BANKED_CODE, align 1, keep-with-next
    626          byte ZDO_AnyClusterMatches( byte ACnt, uint16 *AList, byte BCnt, uint16 *BList )
   \                     ZDO_AnyClusterMatches:
    627          {
   \   000000                REQUIRE ?V0
   \   000000                REQUIRE ?V1
   \   000000                REQUIRE ?V2
   \   000000                REQUIRE ?V3
   \   000000   74F4         MOV       A,#-0xc
   \   000002   12....       LCALL     ?BANKED_ENTER_XDATA
   \   000005                ; Saved register size: 12
   \   000005                ; Auto size: 0
   \   000005   89..         MOV       ?V3,R1
    628            byte x, y;
    629          
    630            for ( x = 0; x < ACnt; x++ )
   \   000007   7D00         MOV       R5,#0x0
   \   000009   740C         MOV       A,#0xc
   \   00000B   12....       LCALL     ?XSTACK_DISP0_8
   \   00000E   12....       LCALL     ??Subroutine177_0 & 0xFFFF
   \                     ??CrossCallReturnLabel_321:
   \   000011   8001         SJMP      ??ZDO_AnyClusterMatches_0
   \                     ??ZDO_AnyClusterMatches_1:
   \   000013   0D           INC       R5
   \                     ??ZDO_AnyClusterMatches_0:
   \   000014   ED           MOV       A,R5
   \   000015   C3           CLR       C
   \   000016   95..         SUBB      A,?V3
   \   000018   502F         JNC       ??ZDO_AnyClusterMatches_2
    631            {
    632              for ( y = 0; y < BCnt; y++ )
   \   00001A   75..00       MOV       ?V2,#0x0
   \   00001D   8002         SJMP      ??ZDO_AnyClusterMatches_3
   \                     ??ZDO_AnyClusterMatches_4:
   \   00001F   05..         INC       ?V2
   \                     ??ZDO_AnyClusterMatches_3:
   \   000021   E5..         MOV       A,?V2
   \   000023   C3           CLR       C
   \   000024   9C           SUBB      A,R4
   \   000025   50EC         JNC       ??ZDO_AnyClusterMatches_1
    633              {
    634                if ( AList[x] == BList[y] )
   \   000027   ED           MOV       A,R5
   \   000028   25E0         ADD       A,0xE0 /* A   */
   \   00002A   FE           MOV       R6,A
   \   00002B   E4           CLR       A
   \   00002C   33           RLC       A
   \   00002D   FF           MOV       R7,A
   \   00002E   EA           MOV       A,R2
   \   00002F   2E           ADD       A,R6
   \   000030   F582         MOV       DPL,A
   \   000032   EB           MOV       A,R3
   \   000033   3F           ADDC      A,R7
   \   000034   12....       LCALL     ?Subroutine84 & 0xFFFF
   \                     ??CrossCallReturnLabel_300:
   \   000037   12....       LCALL     ?Subroutine100 & 0xFFFF
   \                     ??CrossCallReturnLabel_160:
   \   00003A   E0           MOVX      A,@DPTR
   \   00003B   65..         XRL       A,?V0
   \   00003D   7004         JNZ       ??ZDO_AnyClusterMatches_5
   \   00003F   A3           INC       DPTR
   \   000040   E0           MOVX      A,@DPTR
   \   000041   65..         XRL       A,?V1
   \                     ??ZDO_AnyClusterMatches_5:
   \   000043   70DA         JNZ       ??ZDO_AnyClusterMatches_4
    635                {
    636                  return true;
   \   000045   7901         MOV       R1,#0x1
   \   000047   8002         SJMP      ??ZDO_AnyClusterMatches_6
    637                }
    638              }
    639            }
    640          
    641            return false;
   \                     ??ZDO_AnyClusterMatches_2:
   \   000049   7900         MOV       R1,#0x0
   \                     ??ZDO_AnyClusterMatches_6:
   \   00004B   02....       LJMP      ??Subroutine167_0 & 0xFFFF
    642          }

   \                                 In  segment BANKED_CODE, align 1, keep-with-next
   \                     ?Subroutine84:
   \   000000   F583         MOV       DPH,A
   \   000002                REQUIRE ??Subroutine171_0
   \   000002                ; // Fall through to label ??Subroutine171_0

   \                                 In  segment BANKED_CODE, align 1, keep-with-next
   \                     ??Subroutine171_0:
   \   000000   12....       LCALL     ?Subroutine152 & 0xFFFF
   \                     ??CrossCallReturnLabel_305:
   \   000003   F5..         MOV       ?V1,A
   \   000005   22           RET

   \                                 In  segment BANKED_CODE, align 1, keep-with-next
   \                     ?Subroutine152:
   \   000000   E0           MOVX      A,@DPTR
   \   000001   F5..         MOV       ?V0,A
   \   000003   A3           INC       DPTR
   \   000004   E0           MOVX      A,@DPTR
   \   000005   22           RET
    643          
    644          /*********************************************************************
    645           * Callback functions from ZDProfile
    646           */
    647          
    648          
    649          /*********************************************************************
    650           * @fn          ZDO_ProcessNodeDescRsp
    651           *
    652           * @brief       This function processes the Node_Desc_rsp and request
    653           *              Update the TC Link key if the TC supports it.
    654           *
    655           * @param       inMsg - incoming message
    656           *
    657           * @return      none
    658           */

   \                                 In  segment BANKED_CODE, align 1, keep-with-next
    659          void ZDO_ProcessNodeDescRsp ( zdoIncomingMsg_t *inMsg )
   \                     ZDO_ProcessNodeDescRsp:
    660          {
   \   000000                ; Saved register size: 0
   \   000000                ; Auto size: 0
    661          }
   \   000000   02....       LJMP      ?BRET
    662          
    663          
    664          
    665          /*********************************************************************
    666           * @fn          ZDO_ProcessNodeDescReq
    667           *
    668           * @brief       This function processes and responds to the
    669           *              Node_Desc_req message.
    670           *
    671           * @param       inMsg - incoming message
    672           *
    673           * @return      none
    674           */

   \                                 In  segment BANKED_CODE, align 1, keep-with-next
    675          void ZDO_ProcessNodeDescReq( zdoIncomingMsg_t *inMsg )
   \                     ZDO_ProcessNodeDescReq:
    676          {
   \   000000                REQUIRE ?V0
   \   000000                REQUIRE ?V1
   \   000000   74F6         MOV       A,#-0xa
   \   000002   12....       LCALL     ?BANKED_ENTER_XDATA
   \   000005                ; Saved register size: 10
   \   000005                ; Auto size: 0
   \   000005   12....       LCALL     ?Subroutine55 & 0xFFFF
    677            uint16 aoi = BUILD_UINT16( inMsg->asdu[0], inMsg->asdu[1] );
    678            NodeDescriptorFormat_t *desc = NULL;
    679          
    680            if ( aoi == ZDAppNwkAddr.addr.shortAddr )
   \                     ??CrossCallReturnLabel_92:
   \   000008   7003         JNZ       ??ZDO_ProcessNodeDescReq_0
   \   00000A   A3           INC       DPTR
   \   00000B   E0           MOVX      A,@DPTR
   \   00000C   6D           XRL       A,R5
   \                     ??ZDO_ProcessNodeDescReq_0:
   \   00000D   7017         JNZ       ??ZDO_ProcessNodeDescReq_1
    681            {
    682              desc = &ZDO_Config_Node_Descriptor;
    683            }
    684          
    685            if ( desc != NULL )
    686            {
    687              ZDP_NodeDescMsg( inMsg, aoi, desc );
   \   00000F                ; Setup parameters for call to function ZDP_NodeDescMsg
   \   00000F   75....       MOV       ?V0,#ZDO_Config_Node_Descriptor & 0xff
   \   000012   75....       MOV       ?V1,#(ZDO_Config_Node_Descriptor >> 8) & 0xff
   \   000015   78..         MOV       R0,#?V0
   \   000017   12....       LCALL     ?PUSH_XSTACK_I_TWO
   \   00001A   EE           MOV       A,R6
   \   00001B   FA           MOV       R2,A
   \   00001C   12....       LCALL     `??ZDP_NodeDescMsg::?relay`; Banked call to: ZDP_NodeDescMsg
   \   00001F   7402         MOV       A,#0x2
   \   000021   12....       LCALL     ?DEALLOC_XSTACK8
   \   000024   801F         SJMP      ??ZDO_ProcessNodeDescReq_2
    688            }
    689            else
    690            {
    691              ZDP_GenericRsp( inMsg->TransSeq, &(inMsg->srcAddr),
    692                        ZDP_INVALID_REQTYPE, aoi, Node_Desc_rsp, inMsg->SecurityUse );
   \                     ??ZDO_ProcessNodeDescReq_1:
   \   000026                ; Setup parameters for call to function ZDP_GenericRsp
   \   000026   75..02       MOV       ?V0,#0x2
   \   000029   75..80       MOV       ?V1,#-0x80
   \   00002C   78..         MOV       R0,#?V0
   \   00002E   12....       LCALL     ?PUSH_XSTACK_I_TWO
   \   000031   8C..         MOV       ?V0,R4
   \   000033   8D..         MOV       ?V1,R5
   \   000035   78..         MOV       R0,#?V0
   \   000037   12....       LCALL     ?PUSH_XSTACK_I_TWO
   \   00003A   12....       LCALL     ?Subroutine60 & 0xFFFF
    693            }
   \                     ??CrossCallReturnLabel_99:
   \   00003D   12....       LCALL     `??ZDP_GenericRsp::?relay`; Banked call to: ZDP_GenericRsp
   \   000040   7404         MOV       A,#0x4
   \   000042   12....       LCALL     ?DEALLOC_XSTACK8
    694          }
   \                     ??ZDO_ProcessNodeDescReq_2:
   \   000045   02....       LJMP      ??Subroutine173_0 & 0xFFFF

   \                                 In  segment BANKED_CODE, align 1, keep-with-next
   \                     ?Subroutine60:
   \   000000   EE           MOV       A,R6
   \   000001   240E         ADD       A,#0xe
   \   000003   F582         MOV       DPL,A
   \   000005   E4           CLR       A
   \   000006   3F           ADDC      A,R7
   \   000007   F583         MOV       DPH,A
   \   000009   E0           MOVX      A,@DPTR
   \   00000A   FD           MOV       R5,A
   \   00000B   7C80         MOV       R4,#-0x80
   \   00000D   EE           MOV       A,R6
   \   00000E   2402         ADD       A,#0x2
   \   000010   FA           MOV       R2,A
   \   000011   E4           CLR       A
   \   000012   3F           ADDC      A,R7
   \   000013   FB           MOV       R3,A
   \   000014   EE           MOV       A,R6
   \   000015   240F         ADD       A,#0xf
   \   000017   F582         MOV       DPL,A
   \   000019   E4           CLR       A
   \   00001A   3F           ADDC      A,R7
   \   00001B   F583         MOV       DPH,A
   \   00001D   E0           MOVX      A,@DPTR
   \   00001E   F9           MOV       R1,A
   \   00001F   22           RET

   \                                 In  segment BANKED_CODE, align 1, keep-with-next
   \                     ?Subroutine55:
   \   000000   12....       LCALL     ?Subroutine144 & 0xFFFF
   \                     ??CrossCallReturnLabel_262:
   \   000003   F8           MOV       R0,A
   \   000004   E4           CLR       A
   \   000005   C8           XCH       A,R0
   \   000006   F9           MOV       R1,A
   \   000007   EA           MOV       A,R2
   \   000008   28           ADD       A,R0
   \   000009   FC           MOV       R4,A
   \   00000A   E4           CLR       A
   \   00000B   39           ADDC      A,R1
   \   00000C   FD           MOV       R5,A
   \   00000D   90....       MOV       DPTR,#ZDAppNwkAddr
   \   000010   E0           MOVX      A,@DPTR
   \   000011   6C           XRL       A,R4
   \   000012   22           RET

   \                                 In  segment BANKED_CODE, align 1, keep-with-next
   \                     ?Subroutine144:
   \   000000   EA           MOV       A,R2
   \   000001   FE           MOV       R6,A
   \   000002   EB           MOV       A,R3
   \   000003   FF           MOV       R7,A
   \   000004   EE           MOV       A,R6
   \   000005   12....       LCALL     ?Subroutine163 & 0xFFFF
   \                     ??CrossCallReturnLabel_281:
   \   000008   12....       LCALL     ??Subroutine201_0 & 0xFFFF
   \                     ??CrossCallReturnLabel_503:
   \   00000B   F9           MOV       R1,A
   \   00000C   8882         MOV       DPL,R0
   \   00000E   8983         MOV       DPH,R1
   \   000010   E0           MOVX      A,@DPTR
   \   000011   FA           MOV       R2,A
   \   000012   A3           INC       DPTR
   \   000013   E0           MOVX      A,@DPTR
   \   000014   22           RET

   \                                 In  segment BANKED_CODE, align 1, keep-with-next
   \                     ?Subroutine163:
   \   000000   2413         ADD       A,#0x13
   \   000002   F582         MOV       DPL,A
   \   000004   E4           CLR       A
   \   000005   3F           ADDC      A,R7
   \   000006   F583         MOV       DPH,A
   \   000008   22           RET
    695          
    696          /*********************************************************************
    697           * @fn          ZDO_ProcessPowerDescReq
    698           *
    699           * @brief       This function processes and responds to the
    700           *              Node_Power_req message.
    701           *
    702           * @param       inMsg  - incoming request
    703           *
    704           * @return      none
    705           */

   \                                 In  segment BANKED_CODE, align 1, keep-with-next
    706          void ZDO_ProcessPowerDescReq( zdoIncomingMsg_t *inMsg )
   \                     ZDO_ProcessPowerDescReq:
    707          {
   \   000000                REQUIRE ?V0
   \   000000                REQUIRE ?V1
   \   000000   74F6         MOV       A,#-0xa
   \   000002   12....       LCALL     ?BANKED_ENTER_XDATA
   \   000005                ; Saved register size: 10
   \   000005                ; Auto size: 0
   \   000005   12....       LCALL     ?Subroutine55 & 0xFFFF
    708            uint16 aoi = BUILD_UINT16( inMsg->asdu[0], inMsg->asdu[1] );
    709            NodePowerDescriptorFormat_t *desc = NULL;
    710          
    711            if ( aoi == ZDAppNwkAddr.addr.shortAddr )
   \                     ??CrossCallReturnLabel_93:
   \   000008   7003         JNZ       ??ZDO_ProcessPowerDescReq_0
   \   00000A   A3           INC       DPTR
   \   00000B   E0           MOVX      A,@DPTR
   \   00000C   6D           XRL       A,R5
   \                     ??ZDO_ProcessPowerDescReq_0:
   \   00000D   7017         JNZ       ??ZDO_ProcessPowerDescReq_1
    712            {
    713              desc = &ZDO_Config_Power_Descriptor;
    714            }
    715          
    716            if ( desc != NULL )
    717            {
    718              ZDP_PowerDescMsg( inMsg, aoi, desc );
   \   00000F                ; Setup parameters for call to function ZDP_PowerDescMsg
   \   00000F   75....       MOV       ?V0,#ZDO_Config_Power_Descriptor & 0xff
   \   000012   75....       MOV       ?V1,#(ZDO_Config_Power_Descriptor >> 8) & 0xff
   \   000015   78..         MOV       R0,#?V0
   \   000017   12....       LCALL     ?PUSH_XSTACK_I_TWO
   \   00001A   EE           MOV       A,R6
   \   00001B   FA           MOV       R2,A
   \   00001C   12....       LCALL     `??ZDP_PowerDescMsg::?relay`; Banked call to: ZDP_PowerDescMsg
   \   00001F   7402         MOV       A,#0x2
   \   000021   12....       LCALL     ?DEALLOC_XSTACK8
   \   000024   801F         SJMP      ??ZDO_ProcessPowerDescReq_2
    719            }
    720            else
    721            {
    722              ZDP_GenericRsp( inMsg->TransSeq, &(inMsg->srcAddr),
    723                        ZDP_INVALID_REQTYPE, aoi, Power_Desc_rsp, inMsg->SecurityUse );
   \                     ??ZDO_ProcessPowerDescReq_1:
   \   000026                ; Setup parameters for call to function ZDP_GenericRsp
   \   000026   75..03       MOV       ?V0,#0x3
   \   000029   75..80       MOV       ?V1,#-0x80
   \   00002C   78..         MOV       R0,#?V0
   \   00002E   12....       LCALL     ?PUSH_XSTACK_I_TWO
   \   000031   8C..         MOV       ?V0,R4
   \   000033   8D..         MOV       ?V1,R5
   \   000035   78..         MOV       R0,#?V0
   \   000037   12....       LCALL     ?PUSH_XSTACK_I_TWO
   \   00003A   12....       LCALL     ?Subroutine60 & 0xFFFF
    724            }
   \                     ??CrossCallReturnLabel_100:
   \   00003D   12....       LCALL     `??ZDP_GenericRsp::?relay`; Banked call to: ZDP_GenericRsp
   \   000040   7404         MOV       A,#0x4
   \   000042   12....       LCALL     ?DEALLOC_XSTACK8
    725          }
   \                     ??ZDO_ProcessPowerDescReq_2:
   \   000045   80..         SJMP      ??Subroutine173_0
    726          
    727          /*********************************************************************
    728           * @fn          ZDO_ProcessSimpleDescReq
    729           *
    730           * @brief       This function processes and responds to the
    731           *              Simple_Desc_req message.
    732           *
    733           * @param       inMsg - incoming message (request)
    734           *
    735           * @return      none
    736           */

   \                                 In  segment BANKED_CODE, align 1, keep-with-next
   \                     ?Subroutine2:
   \   000000   7402         MOV       A,#0x2
   \   000002                REQUIRE ??Subroutine172_0
   \   000002                ; // Fall through to label ??Subroutine172_0

   \                                 In  segment BANKED_CODE, align 1, keep-with-next
   \                     ??Subroutine172_0:
   \   000000   12....       LCALL     ?DEALLOC_XSTACK8
   \   000003                REQUIRE ??Subroutine173_0
   \   000003                ; // Fall through to label ??Subroutine173_0

   \                                 In  segment BANKED_CODE, align 1, keep-with-next
    737          void ZDO_ProcessSimpleDescReq( zdoIncomingMsg_t *inMsg )
   \                     ZDO_ProcessSimpleDescReq:
    738          {
   \   000000                REQUIRE ?V0
   \   000000                REQUIRE ?V1
   \   000000   74F6         MOV       A,#-0xa
   \   000002   12....       LCALL     ?BANKED_ENTER_XDATA
   \   000005                ; Saved register size: 10
   \   000005                ; Auto size: 2
   \   000005   74FE         MOV       A,#-0x2
   \   000007   12....       LCALL     ?ALLOC_XSTACK8
   \   00000A   EA           MOV       A,R2
   \   00000B   FE           MOV       R6,A
   \   00000C   EB           MOV       A,R3
   \   00000D   FF           MOV       R7,A
    739            SimpleDescriptionFormat_t *sDesc = NULL;
   \   00000E   85..82       MOV       DPL,?XSP + 0
   \   000011   85..83       MOV       DPH,?XSP + 1
   \   000014   E4           CLR       A
   \   000015   F0           MOVX      @DPTR,A
   \   000016   A3           INC       DPTR
   \   000017   F0           MOVX      @DPTR,A
    740            uint16 aoi = BUILD_UINT16( inMsg->asdu[0], inMsg->asdu[1] );
   \   000018   12....       LCALL     ?Subroutine110 & 0xFFFF
   \                     ??CrossCallReturnLabel_182:
   \   00001B   12....       LCALL     ?Subroutine73 & 0xFFFF
   \                     ??CrossCallReturnLabel_121:
   \   00001E   FB           MOV       R3,A
   \   00001F   EC           MOV       A,R4
   \   000020   FA           MOV       R2,A
    741            byte endPoint = inMsg->asdu[2];
   \   000021   8882         MOV       DPL,R0
   \   000023   8983         MOV       DPH,R1
   \   000025   A3           INC       DPTR
   \   000026   A3           INC       DPTR
   \   000027   E0           MOVX      A,@DPTR
   \   000028   F9           MOV       R1,A
    742            byte free = false;
   \   000029   75..00       MOV       ?V1,#0x0
    743            byte stat = ZDP_SUCCESS;
   \   00002C   75..00       MOV       ?V0,#0x0
    744          
    745            if ( (endPoint == ZDO_EP) || (endPoint > MAX_ENDPOINTS) )
   \   00002F   6005         JZ        ??ZDO_ProcessSimpleDescReq_0
   \   000031   74FF         MOV       A,#-0x1
   \   000033   69           XRL       A,R1
   \   000034   7005         JNZ       ??ZDO_ProcessSimpleDescReq_1
    746            {
    747              stat = ZDP_INVALID_EP;
   \                     ??ZDO_ProcessSimpleDescReq_0:
   \   000036   75..82       MOV       ?V0,#-0x7e
   \   000039   802F         SJMP      ??ZDO_ProcessSimpleDescReq_2
    748            }
    749            else if ( aoi == ZDAppNwkAddr.addr.shortAddr )
   \                     ??ZDO_ProcessSimpleDescReq_1:
   \   00003B   90....       MOV       DPTR,#ZDAppNwkAddr
   \   00003E   E0           MOVX      A,@DPTR
   \   00003F   6A           XRL       A,R2
   \   000040   7003         JNZ       ??ZDO_ProcessSimpleDescReq_3
   \   000042   A3           INC       DPTR
   \   000043   E0           MOVX      A,@DPTR
   \   000044   6B           XRL       A,R3
   \                     ??ZDO_ProcessSimpleDescReq_3:
   \   000045   7015         JNZ       ??ZDO_ProcessSimpleDescReq_4
    750            {
    751              free = afFindSimpleDesc( &sDesc, endPoint );
   \   000047                ; Setup parameters for call to function afFindSimpleDesc
   \   000047   AA..         MOV       R2,?XSP + 0
   \   000049   AB..         MOV       R3,?XSP + 1
   \   00004B   12....       LCALL     `??afFindSimpleDesc::?relay`; Banked call to: afFindSimpleDesc
   \   00004E   E9           MOV       A,R1
   \   00004F   FA           MOV       R2,A
    752              if ( sDesc == NULL )
   \   000050   12....       LCALL     ?Subroutine50 & 0xFFFF
   \                     ??CrossCallReturnLabel_415:
   \   000053   7003         JNZ       ??ZDO_ProcessSimpleDescReq_5
    753              {
    754                stat = ZDP_NOT_ACTIVE;
   \   000055   75..83       MOV       ?V0,#-0x7d
   \                     ??ZDO_ProcessSimpleDescReq_5:
   \   000058   8A..         MOV       ?V1,R2
   \   00005A   800E         SJMP      ??ZDO_ProcessSimpleDescReq_2
    755              }
    756            }
    757            else
    758            {
    759              if ( ZSTACK_ROUTER_BUILD )
    760              {
    761                //If child found, then no descriptor
    762                if(AssocIsChild(aoi))
   \                     ??ZDO_ProcessSimpleDescReq_4:
   \   00005C                ; Setup parameters for call to function AssocIsChild
   \   00005C   12....       LCALL     `??AssocIsChild::?relay`; Banked call to: AssocIsChild
   \   00005F   E9           MOV       A,R1
   \   000060   6005         JZ        ??ZDO_ProcessSimpleDescReq_6
    763                {
    764                  stat = ZDP_NO_DESCRIPTOR;
   \   000062   75..89       MOV       ?V0,#-0x77
   \   000065   8003         SJMP      ??ZDO_ProcessSimpleDescReq_2
    765                }
    766                //Otherwise no device found
    767                else
    768                {
    769                  stat = ZDP_DEVICE_NOT_FOUND;
   \                     ??ZDO_ProcessSimpleDescReq_6:
   \   000067   75..81       MOV       ?V0,#-0x7f
    770                }
    771              }
    772              else if ( ZSTACK_END_DEVICE_BUILD )
    773              {
    774                stat = ZDP_INVALID_REQTYPE;
    775              }
    776            }
    777          
    778            ZDP_SimpleDescMsg( inMsg, stat, sDesc );
   \                     ??ZDO_ProcessSimpleDescReq_2:
   \   00006A                ; Setup parameters for call to function ZDP_SimpleDescMsg
   \   00006A   12....       LCALL     ?Subroutine90 & 0xFFFF
   \                     ??CrossCallReturnLabel_402:
   \   00006D   A9..         MOV       R1,?V0
   \   00006F   EE           MOV       A,R6
   \   000070   FA           MOV       R2,A
   \   000071   EF           MOV       A,R7
   \   000072   FB           MOV       R3,A
   \   000073   12....       LCALL     `??ZDP_SimpleDescMsg::?relay`; Banked call to: ZDP_SimpleDescMsg
    779          
    780            if ( free && sDesc )
   \   000076   E5..         MOV       A,?V1
   \   000078   600B         JZ        ??ZDO_ProcessSimpleDescReq_7
   \   00007A   12....       LCALL     ?Subroutine50 & 0xFFFF
   \                     ??CrossCallReturnLabel_416:
   \   00007D   6006         JZ        ??ZDO_ProcessSimpleDescReq_7
    781            {
    782              osal_mem_free( sDesc );
   \   00007F                ; Setup parameters for call to function osal_mem_free
   \   00007F   12....       LCALL     ?Subroutine88 & 0xFFFF
    783            }
   \                     ??CrossCallReturnLabel_429:
   \   000082   12....       LCALL     `??osal_mem_free::?relay`; Banked call to: osal_mem_free
    784          }
   \                     ??ZDO_ProcessSimpleDescReq_7:
   \   000085   02....       LJMP      ?Subroutine2 & 0xFFFF

   \                                 In  segment BANKED_CODE, align 1, keep-with-next
   \                     ?Subroutine110:
   \   000000   EE           MOV       A,R6
   \   000001   12....       LCALL     ??Subroutine208_0 & 0xFFFF
   \                     ??CrossCallReturnLabel_510:
   \   000004   3F           ADDC      A,R7
   \   000005   22           RET

   \                                 In  segment BANKED_CODE, align 1, keep-with-next
   \                     ?Subroutine73:
   \   000000   12....       LCALL     ?Subroutine146 & 0xFFFF
   \                     ??CrossCallReturnLabel_396:
   \   000003   E0           MOVX      A,@DPTR
   \   000004   FC           MOV       R4,A
   \   000005   A3           INC       DPTR
   \   000006   E0           MOVX      A,@DPTR
   \   000007   22           RET

   \                                 In  segment BANKED_CODE, align 1, keep-with-next
   \                     ?Subroutine146:
   \   000000   F583         MOV       DPH,A
   \   000002                REQUIRE ??Subroutine190_0
   \   000002                ; // Fall through to label ??Subroutine190_0

   \                                 In  segment BANKED_CODE, align 1, keep-with-next
   \                     ?Subroutine90:
   \   000000   85..82       MOV       DPL,?XSP + 0
   \   000003   85..83       MOV       DPH,?XSP + 1
   \   000006                REQUIRE ??Subroutine192_0
   \   000006                ; // Fall through to label ??Subroutine192_0

   \                                 In  segment BANKED_CODE, align 1, keep-with-next
   \                     ?Subroutine50:
   \   000000   85..82       MOV       DPL,?XSP + 0
   \   000003   85..83       MOV       DPH,?XSP + 1
   \   000006                REQUIRE ??Subroutine193_0
   \   000006                ; // Fall through to label ??Subroutine193_0

   \                                 In  segment BANKED_CODE, align 1, keep-with-next
   \                     ??Subroutine193_0:
   \   000000   12....       LCALL     ?Subroutine154 & 0xFFFF
   \                     ??CrossCallReturnLabel_441:
   \   000003   E8           MOV       A,R0
   \   000004   49           ORL       A,R1
   \   000005   22           RET

   \                                 In  segment BANKED_CODE, align 1, keep-with-next
   \                     ?Subroutine88:
   \   000000   85..82       MOV       DPL,?XSP + 0
   \   000003   85..83       MOV       DPH,?XSP + 1
   \   000006                REQUIRE ??Subroutine194_0
   \   000006                ; // Fall through to label ??Subroutine194_0

   \                                 In  segment BANKED_CODE, align 1, keep-with-next
   \                     ??Subroutine208_0:
   \   000000   2413         ADD       A,#0x13
   \   000002   F582         MOV       DPL,A
   \   000004   E4           CLR       A
   \   000005   22           RET
    785          
    786          /*********************************************************************
    787           * @fn          ZDO_ProcessSimpleDescRsp
    788           *
    789           * @brief       This function processes and responds to the
    790           *              Simple_Desc_rsp message.
    791           *
    792           * @param       inMsg - incoming message (request)
    793           *
    794           * @return      none
    795           */

   \                                 In  segment BANKED_CODE, align 1, keep-with-next
    796          void ZDO_ProcessSimpleDescRsp( zdoIncomingMsg_t *inMsg )
   \                     ZDO_ProcessSimpleDescRsp:
    797          {
   \   000000                ; Saved register size: 0
   \   000000                ; Auto size: 0
    798          
    799          }
   \   000000   02....       LJMP      ?BRET
    800          
    801          /*********************************************************************
    802           * @fn          ZDO_ProcessActiveEPReq
    803           *
    804           * @brief       This function processes and responds to the
    805           *              Active_EP_req message.
    806           *
    807           * @param       inMsg  - incoming message (request)
    808           *
    809           * @return      none
    810           */

   \                                 In  segment BANKED_CODE, align 1, keep-with-next
    811          void ZDO_ProcessActiveEPReq( zdoIncomingMsg_t *inMsg )
   \                     ZDO_ProcessActiveEPReq:
    812          {
   \   000000                REQUIRE ?V0
   \   000000                REQUIRE ?V1
   \   000000                REQUIRE ?V2
   \   000000                REQUIRE ?V3
   \   000000                REQUIRE ?V4
   \   000000                REQUIRE ?V5
   \   000000   74F2         MOV       A,#-0xe
   \   000002   12....       LCALL     ?BANKED_ENTER_XDATA
   \   000005                ; Saved register size: 14
   \   000005                ; Auto size: 0
   \   000005   EA           MOV       A,R2
   \   000006   FE           MOV       R6,A
   \   000007   EB           MOV       A,R3
   \   000008   FF           MOV       R7,A
    813            byte cnt = 0;
   \   000009   75..00       MOV       ?V0,#0x0
    814            uint16 aoi;
    815            byte stat = ZDP_SUCCESS;
   \   00000C   75..00       MOV       ?V1,#0x0
    816          
    817            aoi = BUILD_UINT16( inMsg->asdu[0], inMsg->asdu[1] );
   \   00000F   12....       LCALL     ?Subroutine110 & 0xFFFF
   \                     ??CrossCallReturnLabel_183:
   \   000012   F583         MOV       DPH,A
   \   000014   12....       LCALL     ??Subroutine170_0 & 0xFFFF
   \                     ??CrossCallReturnLabel_296:
   \   000017   12....       LCALL     ?Subroutine59 & 0xFFFF
    818          
    819            if ( aoi == NLME_GetShortAddr() )
   \                     ??CrossCallReturnLabel_307:
   \   00001A                ; Setup parameters for call to function NLME_GetShortAddr
   \   00001A   12....       LCALL     `??NLME_GetShortAddr::?relay`; Banked call to: NLME_GetShortAddr
   \   00001D   EA           MOV       A,R2
   \   00001E   65..         XRL       A,?V2
   \   000020   7003         JNZ       ??ZDO_ProcessActiveEPReq_0
   \   000022   EB           MOV       A,R3
   \   000023   65..         XRL       A,?V3
   \                     ??ZDO_ProcessActiveEPReq_0:
   \   000025   7012         JNZ       ??ZDO_ProcessActiveEPReq_1
    820            {
    821              cnt = afNumEndPoints() - 1;  // -1 for ZDO endpoint descriptor
   \   000027                ; Setup parameters for call to function afNumEndPoints
   \   000027   12....       LCALL     `??afNumEndPoints::?relay`; Banked call to: afNumEndPoints
   \   00002A   E9           MOV       A,R1
   \   00002B   14           DEC       A
   \   00002C   F5..         MOV       ?V0,A
    822              afEndPoints( (uint8 *)ZDOBuildBuf, true );
   \   00002E                ; Setup parameters for call to function afEndPoints
   \   00002E   7901         MOV       R1,#0x1
   \   000030   7A..         MOV       R2,#ZDOBuildBuf & 0xff
   \   000032   7B..         MOV       R3,#(ZDOBuildBuf >> 8) & 0xff
   \   000034   12....       LCALL     `??afEndPoints::?relay`; Banked call to: afEndPoints
   \   000037   8003         SJMP      ??ZDO_ProcessActiveEPReq_2
    823            }
    824            else
    825            {
    826              if(ZG_BUILD_ENDDEVICE_TYPE)
    827              {
    828                stat = ZDP_INVALID_REQTYPE;
    829              }
    830              else
    831              {
    832                stat = ZDP_DEVICE_NOT_FOUND;
   \                     ??ZDO_ProcessActiveEPReq_1:
   \   000039   75..81       MOV       ?V1,#-0x7f
    833              }
    834            }
    835          
    836            ZDP_ActiveEPRsp( inMsg->TransSeq, &(inMsg->srcAddr), stat,
    837                            aoi, cnt, (uint8 *)ZDOBuildBuf, inMsg->SecurityUse );
   \                     ??ZDO_ProcessActiveEPReq_2:
   \   00003C                ; Setup parameters for call to function ZDP_EPRsp
   \   00003C   12....       LCALL     ?Subroutine101 & 0xFFFF
   \                     ??CrossCallReturnLabel_393:
   \   00003F   F5..         MOV       ?V4,A
   \   000041   78..         MOV       R0,#?V4
   \   000043   12....       LCALL     ?PUSH_XSTACK_I_ONE
   \   000046   75....       MOV       ?V4,#ZDOBuildBuf & 0xff
   \   000049   75....       MOV       ?V5,#(ZDOBuildBuf >> 8) & 0xff
   \   00004C   78..         MOV       R0,#?V4
   \   00004E   12....       LCALL     ?PUSH_XSTACK_I_TWO
   \   000051   78..         MOV       R0,#?V0
   \   000053   12....       LCALL     ?PUSH_XSTACK_I_ONE
   \   000056   78..         MOV       R0,#?V2
   \   000058   12....       LCALL     ?PUSH_XSTACK_I_TWO
   \   00005B   E5..         MOV       A,?V1
   \   00005D   F5..         MOV       ?V0,A
   \   00005F   78..         MOV       R0,#?V0
   \   000061   12....       LCALL     ?PUSH_XSTACK_I_ONE
   \   000064   12....       LCALL     ?Subroutine117 & 0xFFFF
   \                     ??CrossCallReturnLabel_200:
   \   000067   12....       LCALL     ??Subroutine187_0 & 0xFFFF
   \                     ??CrossCallReturnLabel_388:
   \   00006A   F9           MOV       R1,A
   \   00006B   7A05         MOV       R2,#0x5
   \   00006D   7B80         MOV       R3,#-0x80
   \   00006F   12....       LCALL     `??ZDP_EPRsp::?relay`; Banked call to: ZDP_EPRsp
   \   000072   7407         MOV       A,#0x7
   \   000074   12....       LCALL     ?DEALLOC_XSTACK8
    838          }
   \   000077   02....       LJMP      ?Subroutine5 & 0xFFFF

   \                                 In  segment BANKED_CODE, align 1, keep-with-next
   \                     ?Subroutine59:
   \   000000   E0           MOVX      A,@DPTR
   \   000001                REQUIRE ??Subroutine174_0
   \   000001                ; // Fall through to label ??Subroutine174_0

   \                                 In  segment BANKED_CODE, align 1, keep-with-next
   \                     ??Subroutine174_0:
   \   000000   FA           MOV       R2,A
   \   000001   A3           INC       DPTR
   \   000002   E0           MOVX      A,@DPTR
   \   000003   F8           MOV       R0,A
   \   000004   E4           CLR       A
   \   000005   C8           XCH       A,R0
   \   000006   F9           MOV       R1,A
   \   000007   EA           MOV       A,R2
   \   000008   28           ADD       A,R0
   \   000009   F5..         MOV       ?V2,A
   \   00000B   E4           CLR       A
   \   00000C   39           ADDC      A,R1
   \   00000D   F5..         MOV       ?V3,A
   \   00000F   22           RET

   \                                 In  segment BANKED_CODE, align 1, keep-with-next
   \                     ?Subroutine117:
   \   000000   EE           MOV       A,R6
   \   000001   2402         ADD       A,#0x2
   \   000003   FC           MOV       R4,A
   \   000004   E4           CLR       A
   \   000005   3F           ADDC      A,R7
   \   000006   FD           MOV       R5,A
   \   000007   EE           MOV       A,R6
   \   000008   240F         ADD       A,#0xf
   \   00000A   22           RET

   \                                 In  segment BANKED_CODE, align 1, keep-with-next
   \                     ?Subroutine101:
   \   000000   EE           MOV       A,R6
   \   000001   240E         ADD       A,#0xe
   \   000003                REQUIRE ??Subroutine187_0
   \   000003                ; // Fall through to label ??Subroutine187_0

   \                                 In  segment BANKED_CODE, align 1, keep-with-next
   \                     ??Subroutine187_0:
   \   000000   F582         MOV       DPL,A
   \   000002   E4           CLR       A
   \   000003                REQUIRE ??Subroutine188_0
   \   000003                ; // Fall through to label ??Subroutine188_0

   \                                 In  segment BANKED_CODE, align 1, keep-with-next
   \                     ?Subroutine5:
   \   000000   7F06         MOV       R7,#0x6
   \   000002   02....       LJMP      ?BANKED_LEAVE_XDATA
    839          
    840          /*********************************************************************
    841           * @fn          ZDO_ConvertOTAClusters
    842           *
    843           * @brief       This function will convert the over-the-air cluster list
    844           *              format to an internal format.
    845           *
    846           * @param       inMsg  - incoming message (request)
    847           *
    848           * @return      pointer to incremented inBuf
    849           */

   \                                 In  segment BANKED_CODE, align 1, keep-with-next
    850          uint8 *ZDO_ConvertOTAClusters( uint8 cnt, uint8 *inBuf, uint16 *outList )
   \                     ZDO_ConvertOTAClusters:
    851          {
   \   000000                REQUIRE ?V0
   \   000000                REQUIRE ?V1
   \   000000   74F6         MOV       A,#-0xa
   \   000002   12....       LCALL     ?BANKED_ENTER_XDATA
   \   000005                ; Saved register size: 10
   \   000005                ; Auto size: 0
   \   000005   E9           MOV       A,R1
   \   000006   FF           MOV       R7,A
    852            uint8 x;
    853          
    854            for ( x = 0; x < cnt; x++ )
   \   000007   7E00         MOV       R6,#0x0
   \   000009   8030         SJMP      ??ZDO_ConvertOTAClusters_0
    855            {
    856              // convert ota format to internal
    857              outList[x] = BUILD_UINT16( inBuf[0], inBuf[1] );
   \                     ??ZDO_ConvertOTAClusters_1:
   \   00000B   8A82         MOV       DPL,R2
   \   00000D   8B83         MOV       DPH,R3
   \   00000F   12....       LCALL     ?Subroutine152 & 0xFFFF
   \                     ??CrossCallReturnLabel_302:
   \   000012   F8           MOV       R0,A
   \   000013   E4           CLR       A
   \   000014   C8           XCH       A,R0
   \   000015   F9           MOV       R1,A
   \   000016   E5..         MOV       A,?V0
   \   000018   28           ADD       A,R0
   \   000019   E4           CLR       A
   \   00001A   39           ADDC      A,R1
   \   00001B   F5..         MOV       ?V1,A
   \   00001D   EE           MOV       A,R6
   \   00001E   25E0         ADD       A,0xE0 /* A   */
   \   000020   F8           MOV       R0,A
   \   000021   E4           CLR       A
   \   000022   33           RLC       A
   \   000023   F9           MOV       R1,A
   \   000024   EC           MOV       A,R4
   \   000025   28           ADD       A,R0
   \   000026   F582         MOV       DPL,A
   \   000028   ED           MOV       A,R5
   \   000029   39           ADDC      A,R1
   \   00002A   F583         MOV       DPH,A
   \   00002C   E5..         MOV       A,?V0
   \   00002E   F0           MOVX      @DPTR,A
   \   00002F   A3           INC       DPTR
   \   000030   E5..         MOV       A,?V1
   \   000032   F0           MOVX      @DPTR,A
    858              inBuf += sizeof( uint16 );
   \   000033   EA           MOV       A,R2
   \   000034   2402         ADD       A,#0x2
   \   000036   FA           MOV       R2,A
   \   000037   5001         JNC       ??ZDO_ConvertOTAClusters_2
   \   000039   0B           INC       R3
    859            }
   \                     ??ZDO_ConvertOTAClusters_2:
   \   00003A   0E           INC       R6
   \                     ??ZDO_ConvertOTAClusters_0:
   \   00003B   EE           MOV       A,R6
   \   00003C   C3           CLR       C
   \   00003D   9F           SUBB      A,R7
   \   00003E   40CB         JC        ??ZDO_ConvertOTAClusters_1
    860            return ( inBuf );
   \   000040   02....       LJMP      ??Subroutine173_0 & 0xFFFF
    861          }
    862          
    863          /*********************************************************************
    864           * @fn          ZDO_ProcessMatchDescReq
    865           *
    866           * @brief       This function processes and responds to the
    867           *              Match_Desc_req message.
    868           *
    869           * @param       inMsg  - incoming message (request)
    870           *
    871           * @return      none
    872           */

   \                                 In  segment BANKED_CODE, align 1, keep-with-next
    873          void ZDO_ProcessMatchDescReq( zdoIncomingMsg_t *inMsg )
   \                     ZDO_ProcessMatchDescReq:
    874          {
   \   000000                REQUIRE ?V0
   \   000000                REQUIRE ?V1
   \   000000                REQUIRE ?V2
   \   000000                REQUIRE ?V3
   \   000000                REQUIRE ?V4
   \   000000                REQUIRE ?V5
   \   000000                REQUIRE ?V6
   \   000000                REQUIRE ?V7
   \   000000                REQUIRE ?V8
   \   000000                REQUIRE ?V9
   \   000000                REQUIRE ?V10
   \   000000                REQUIRE ?V11
   \   000000                REQUIRE ?V12
   \   000000                REQUIRE ?V13
   \   000000                REQUIRE ?V14
   \   000000                REQUIRE ?V15
   \   000000   74E8         MOV       A,#-0x18
   \   000002   12....       LCALL     ?BANKED_ENTER_XDATA
   \   000005                ; Saved register size: 24
   \   000005                ; Auto size: 8
   \   000005   74F8         MOV       A,#-0x8
   \   000007   12....       LCALL     ?ALLOC_XSTACK8
   \   00000A   7402         MOV       A,#0x2
   \   00000C   12....       LCALL     ?XSTACK_DISP0_8
   \   00000F   12....       LCALL     ??Subroutine180_0 & 0xFFFF
    875            uint8 epCnt = 0;
   \                     ??CrossCallReturnLabel_351:
   \   000012   75..00       MOV       ?V7,#0x0
    876            uint8 numInClusters;
    877            uint16 *inClusters = NULL;
   \   000015   75..00       MOV       ?V14,#0x0
   \   000018   75..00       MOV       ?V15,#0x0
    878            uint8 numOutClusters;
    879            uint16 *outClusters = NULL;
   \   00001B   75..00       MOV       ?V12,#0x0
   \   00001E   75..00       MOV       ?V13,#0x0
    880            epList_t *epDesc;
    881            SimpleDescriptionFormat_t *sDesc = NULL;
    882            uint8 allocated;
    883            uint8 *msg;
    884            uint16 aoi;
    885            uint16 profileID;
    886          
    887            // Parse the incoming message
    888            msg = inMsg->asdu;
   \   000021   7402         MOV       A,#0x2
   \   000023   12....       LCALL     ?XSTACK_DISP0_8
   \   000026   12....       LCALL     ??Subroutine204_0 & 0xFFFF
   \                     ??CrossCallReturnLabel_466:
   \   000029   12....       LCALL     ??Subroutine186_0 & 0xFFFF
   \                     ??CrossCallReturnLabel_382:
   \   00002C   38           ADDC      A,R0
   \   00002D   12....       LCALL     ??Subroutine211_0 & 0xFFFF
    889            aoi = BUILD_UINT16( msg[0], msg[1] );
   \                     ??CrossCallReturnLabel_528:
   \   000030   12....       LCALL     ??Subroutine174_0 & 0xFFFF
    890            profileID = BUILD_UINT16( msg[2], msg[3] );
   \                     ??CrossCallReturnLabel_306:
   \   000033   8E82         MOV       DPL,R6
   \   000035   8F83         MOV       DPH,R7
   \   000037   A3           INC       DPTR
   \   000038   A3           INC       DPTR
   \   000039   E0           MOVX      A,@DPTR
   \   00003A   FA           MOV       R2,A
   \   00003B   8E82         MOV       DPL,R6
   \   00003D   8F83         MOV       DPH,R7
   \   00003F   A3           INC       DPTR
   \   000040   A3           INC       DPTR
   \   000041   A3           INC       DPTR
   \   000042   E0           MOVX      A,@DPTR
   \   000043   F9           MOV       R1,A
   \   000044   EA           MOV       A,R2
   \   000045   F5..         MOV       ?V0,A
   \   000047   E4           CLR       A
   \   000048   39           ADDC      A,R1
   \   000049   F5..         MOV       ?V1,A
    891            msg += 4;
    892          
    893            if ( ADDR_BCAST_NOT_ME == NLME_IsAddressBroadcast(aoi) )
   \   00004B   7402         MOV       A,#0x2
   \   00004D   12....       LCALL     ?XSTACK_DISP0_8
   \   000050   E0           MOVX      A,@DPTR
   \   000051   240F         ADD       A,#0xf
   \   000053   F8           MOV       R0,A
   \   000054   A3           INC       DPTR
   \   000055   E0           MOVX      A,@DPTR
   \   000056   3400         ADDC      A,#0x0
   \   000058   F9           MOV       R1,A
   \   000059   7406         MOV       A,#0x6
   \   00005B   12....       LCALL     ?XSTACK_DISP0_8
   \   00005E   12....       LCALL     ??Subroutine178_0 & 0xFFFF
   \                     ??CrossCallReturnLabel_336:
   \   000061   7402         MOV       A,#0x2
   \   000063   12....       LCALL     ?XSTACK_DISP0_8
   \   000066   E0           MOVX      A,@DPTR
   \   000067   2402         ADD       A,#0x2
   \   000069   F8           MOV       R0,A
   \   00006A   A3           INC       DPTR
   \   00006B   E0           MOVX      A,@DPTR
   \   00006C   3400         ADDC      A,#0x0
   \   00006E   12....       LCALL     ?Subroutine37 & 0xFFFF
   \                     ??CrossCallReturnLabel_347:
   \   000071   7402         MOV       A,#0x2
   \   000073   12....       LCALL     ?XSTACK_DISP0_8
   \   000076   E0           MOVX      A,@DPTR
   \   000077   240E         ADD       A,#0xe
   \   000079   F8           MOV       R0,A
   \   00007A   A3           INC       DPTR
   \   00007B   E0           MOVX      A,@DPTR
   \   00007C   3400         ADDC      A,#0x0
   \   00007E   F9           MOV       R1,A
   \   00007F   7404         MOV       A,#0x4
   \   000081   12....       LCALL     ?XSTACK_DISP0_8
   \   000084   12....       LCALL     ??Subroutine178_0 & 0xFFFF
   \                     ??CrossCallReturnLabel_337:
   \   000087                ; Setup parameters for call to function NLME_IsAddressBroadcast
   \   000087   AA..         MOV       R2,?V2
   \   000089   AB..         MOV       R3,?V3
   \   00008B   12....       LCALL     `??NLME_IsAddressBroadcast::?relay`; Banked call to: NLME_IsAddressBroadcast
   \   00008E   E9           MOV       A,R1
   \   00008F   6401         XRL       A,#0x1
   \   000091   7040         JNZ       ??ZDO_ProcessMatchDescReq_0
    894            {
    895              ZDP_MatchDescRsp( inMsg->TransSeq, &(inMsg->srcAddr), ZDP_INVALID_REQTYPE,
    896                                    aoi, 0, NULL, inMsg->SecurityUse );
   \   000093                ; Setup parameters for call to function ZDP_EPRsp
   \   000093   7404         MOV       A,#0x4
   \   000095   12....       LCALL     ?XSTACK_DISP0_8
   \   000098   12....       LCALL     ?Subroutine53 & 0xFFFF
   \                     ??CrossCallReturnLabel_88:
   \   00009B   12....       LCALL     ?PUSH_XSTACK_I_ONE
   \   00009E   E4           CLR       A
   \   00009F   F5..         MOV       ?V0,A
   \   0000A1   F5..         MOV       ?V1,A
   \   0000A3   78..         MOV       R0,#?V0
   \   0000A5   12....       LCALL     ?PUSH_XSTACK_I_TWO
   \   0000A8   78..         MOV       R0,#?V0
   \   0000AA   12....       LCALL     ?PUSH_XSTACK_I_ONE
   \   0000AD   78..         MOV       R0,#?V2
   \   0000AF   12....       LCALL     ?PUSH_XSTACK_I_TWO
   \   0000B2   75..80       MOV       ?V0,#-0x80
   \   0000B5   78..         MOV       R0,#?V0
   \   0000B7   12....       LCALL     ?PUSH_XSTACK_I_ONE
   \   0000BA   7407         MOV       A,#0x7
   \   0000BC   12....       LCALL     ?XSTACK_DISP0_8
   \   0000BF   12....       LCALL     ?Subroutine67 & 0xFFFF
   \                     ??CrossCallReturnLabel_111:
   \   0000C2   12....       LCALL     ?XSTACK_DISP0_8
   \   0000C5   12....       LCALL     ?Subroutine52 & 0xFFFF
   \                     ??CrossCallReturnLabel_84:
   \   0000C8   12....       LCALL     `??ZDP_EPRsp::?relay`; Banked call to: ZDP_EPRsp
   \   0000CB   7407         MOV       A,#0x7
   \   0000CD   12....       LCALL     ?DEALLOC_XSTACK8
    897              return;
   \   0000D0   02....       LJMP      ??ZDO_ProcessMatchDescReq_1 & 0xFFFF
    898            }
    899            else if ( (ADDR_NOT_BCAST == NLME_IsAddressBroadcast(aoi)) && (aoi != ZDAppNwkAddr.addr.shortAddr) )
   \                     ??ZDO_ProcessMatchDescReq_0:
   \   0000D3                ; Setup parameters for call to function NLME_IsAddressBroadcast
   \   0000D3   AA..         MOV       R2,?V2
   \   0000D5   AB..         MOV       R3,?V3
   \   0000D7   12....       LCALL     `??NLME_IsAddressBroadcast::?relay`; Banked call to: NLME_IsAddressBroadcast
   \   0000DA   E9           MOV       A,R1
   \   0000DB   7058         JNZ       ??ZDO_ProcessMatchDescReq_2
   \   0000DD   90....       MOV       DPTR,#ZDAppNwkAddr
   \   0000E0   E0           MOVX      A,@DPTR
   \   0000E1   65..         XRL       A,?V2
   \   0000E3   7004         JNZ       ??ZDO_ProcessMatchDescReq_3
   \   0000E5   A3           INC       DPTR
   \   0000E6   E0           MOVX      A,@DPTR
   \   0000E7   65..         XRL       A,?V3
   \                     ??ZDO_ProcessMatchDescReq_3:
   \   0000E9   604A         JZ        ??ZDO_ProcessMatchDescReq_2
    900            {
    901          #if (ZG_BUILD_ENDDEVICE_TYPE)
    902              if(ZG_DEVICE_ENDDEVICE_TYPE)
    903              {    
    904              ZDP_MatchDescRsp( inMsg->TransSeq, &(inMsg->srcAddr), ZDP_INVALID_REQTYPE,
    905                                       aoi, 0, NULL, inMsg->SecurityUse );
    906              }
    907          #else 
    908              if (ZG_DEVICE_RTR_TYPE)
   \   0000EB   90....       MOV       DPTR,#zgDeviceLogicalType
   \   0000EE   E0           MOVX      A,@DPTR
   \   0000EF   6004         JZ        ??ZDO_ProcessMatchDescReq_4
   \   0000F1   6401         XRL       A,#0x1
   \   0000F3   703D         JNZ       ??ZDO_ProcessMatchDescReq_5
    909              {
    910              ZDP_MatchDescRsp( inMsg->TransSeq, &(inMsg->srcAddr), ZDP_DEVICE_NOT_FOUND,
    911                                       aoi, 0, NULL, inMsg->SecurityUse );
   \                     ??ZDO_ProcessMatchDescReq_4:
   \   0000F5                ; Setup parameters for call to function ZDP_EPRsp
   \   0000F5   7404         MOV       A,#0x4
   \   0000F7   12....       LCALL     ?XSTACK_DISP0_8
   \   0000FA   12....       LCALL     ?Subroutine53 & 0xFFFF
    912              }
   \                     ??CrossCallReturnLabel_89:
   \   0000FD   12....       LCALL     ?PUSH_XSTACK_I_ONE
   \   000100   E4           CLR       A
   \   000101   F5..         MOV       ?V0,A
   \   000103   F5..         MOV       ?V1,A
   \   000105   78..         MOV       R0,#?V0
   \   000107   12....       LCALL     ?PUSH_XSTACK_I_TWO
   \   00010A   78..         MOV       R0,#?V0
   \   00010C   12....       LCALL     ?PUSH_XSTACK_I_ONE
   \   00010F   78..         MOV       R0,#?V2
   \   000111   12....       LCALL     ?PUSH_XSTACK_I_TWO
   \   000114   75..81       MOV       ?V0,#-0x7f
   \   000117   78..         MOV       R0,#?V0
   \   000119   12....       LCALL     ?PUSH_XSTACK_I_ONE
   \   00011C   7407         MOV       A,#0x7
   \   00011E   12....       LCALL     ?XSTACK_DISP0_8
   \   000121   12....       LCALL     ?Subroutine67 & 0xFFFF
   \                     ??CrossCallReturnLabel_112:
   \   000124   12....       LCALL     ?XSTACK_DISP0_8
   \   000127   12....       LCALL     ?Subroutine52 & 0xFFFF
   \                     ??CrossCallReturnLabel_85:
   \   00012A   12....       LCALL     `??ZDP_EPRsp::?relay`; Banked call to: ZDP_EPRsp
   \   00012D   7407         MOV       A,#0x7
   \   00012F   12....       LCALL     ?DEALLOC_XSTACK8
    913          #endif
    914              return;
   \                     ??ZDO_ProcessMatchDescReq_5:
   \   000132   02....       LJMP      ??ZDO_ProcessMatchDescReq_1 & 0xFFFF
    915            }
    916          
    917            if ((numInClusters = *msg++) &&
    918                (inClusters = (uint16*)osal_mem_alloc( numInClusters * sizeof( uint16 ) )))
   \                     ??ZDO_ProcessMatchDescReq_2:
   \   000135   8E82         MOV       DPL,R6
   \   000137   8F83         MOV       DPH,R7
   \   000139   A3           INC       DPTR
   \   00013A   A3           INC       DPTR
   \   00013B   A3           INC       DPTR
   \   00013C   A3           INC       DPTR
   \   00013D   E0           MOVX      A,@DPTR
   \   00013E   F5..         MOV       ?V3,A
   \   000140   EE           MOV       A,R6
   \   000141   2405         ADD       A,#0x5
   \   000143   FE           MOV       R6,A
   \   000144   5001         JNC       ??ZDO_ProcessMatchDescReq_6
   \   000146   0F           INC       R7
   \                     ??ZDO_ProcessMatchDescReq_6:
   \   000147   E5..         MOV       A,?V3
   \   000149   6026         JZ        ??ZDO_ProcessMatchDescReq_7
   \   00014B                ; Setup parameters for call to function osal_mem_alloc
   \   00014B   12....       LCALL     ?Subroutine104 & 0xFFFF
   \                     ??CrossCallReturnLabel_165:
   \   00014E   12....       LCALL     `??osal_mem_alloc::?relay`; Banked call to: osal_mem_alloc
   \   000151   8A..         MOV       ?V14,R2
   \   000153   8B..         MOV       ?V15,R3
   \   000155   EA           MOV       A,R2
   \   000156   45..         ORL       A,?V15
   \   000158   6017         JZ        ??ZDO_ProcessMatchDescReq_7
    919            {
    920              msg = ZDO_ConvertOTAClusters( numInClusters, msg, inClusters );
   \   00015A                ; Setup parameters for call to function ZDO_ConvertOTAClusters
   \   00015A   AC..         MOV       R4,?V14
   \   00015C   AD..         MOV       R5,?V15
   \   00015E   EE           MOV       A,R6
   \   00015F   FA           MOV       R2,A
   \   000160   EF           MOV       A,R7
   \   000161   FB           MOV       R3,A
   \   000162   A9..         MOV       R1,?V3
   \   000164   12....       LCALL     `??ZDO_ConvertOTAClusters::?relay`; Banked call to: ZDO_ConvertOTAClusters
   \   000167   8A..         MOV       ?V4,R2
   \   000169   8B..         MOV       ?V5,R3
   \   00016B   AE..         MOV       R6,?V4
   \   00016D   AF..         MOV       R7,?V5
   \   00016F   8003         SJMP      ??ZDO_ProcessMatchDescReq_8
    921            }
    922            else
    923            {
    924              numInClusters = 0;
   \                     ??ZDO_ProcessMatchDescReq_7:
   \   000171   75..00       MOV       ?V3,#0x0
    925            }
    926          
    927            if ((numOutClusters = *msg++) &&
    928                (outClusters = (uint16 *)osal_mem_alloc( numOutClusters * sizeof( uint16 ) )))
   \                     ??ZDO_ProcessMatchDescReq_8:
   \   000174   8E82         MOV       DPL,R6
   \   000176   8F83         MOV       DPH,R7
   \   000178   E0           MOVX      A,@DPTR
   \   000179   F5..         MOV       ?V2,A
   \   00017B   A3           INC       DPTR
   \   00017C   AE82         MOV       R6,DPL
   \   00017E   AF83         MOV       R7,DPH
   \   000180   601E         JZ        ??ZDO_ProcessMatchDescReq_9
   \   000182                ; Setup parameters for call to function osal_mem_alloc
   \   000182   12....       LCALL     ?Subroutine104 & 0xFFFF
   \                     ??CrossCallReturnLabel_166:
   \   000185   12....       LCALL     `??osal_mem_alloc::?relay`; Banked call to: osal_mem_alloc
   \   000188   8A..         MOV       ?V12,R2
   \   00018A   8B..         MOV       ?V13,R3
   \   00018C   EA           MOV       A,R2
   \   00018D   45..         ORL       A,?V13
   \   00018F   600F         JZ        ??ZDO_ProcessMatchDescReq_9
    929            {
    930              msg = ZDO_ConvertOTAClusters( numOutClusters, msg, outClusters );
   \   000191                ; Setup parameters for call to function ZDO_ConvertOTAClusters
   \   000191   AC..         MOV       R4,?V12
   \   000193   AD..         MOV       R5,?V13
   \   000195   EE           MOV       A,R6
   \   000196   FA           MOV       R2,A
   \   000197   EF           MOV       A,R7
   \   000198   FB           MOV       R3,A
   \   000199   A9..         MOV       R1,?V2
   \   00019B   12....       LCALL     `??ZDO_ConvertOTAClusters::?relay`; Banked call to: ZDO_ConvertOTAClusters
   \   00019E   8003         SJMP      ??ZDO_ProcessMatchDescReq_10
    931            }
    932            else
    933            {
    934              numOutClusters = 0;
   \                     ??ZDO_ProcessMatchDescReq_9:
   \   0001A0   75..00       MOV       ?V2,#0x0
    935            }
    936          
    937            // First count the number of endpoints that match.
    938            epDesc = epList;
   \                     ??ZDO_ProcessMatchDescReq_10:
   \   0001A3   90....       MOV       DPTR,#epList
   \   0001A6   8045         SJMP      ??ZDO_ProcessMatchDescReq_11
    939            while ( epDesc )
    940            {
    941              // Don't search endpoint 0 and check if response is allowed
    942              if ( epDesc->epDesc->endPoint != ZDO_EP && (epDesc->flags&eEP_AllowMatch) )
    943              {
    944                if ( epDesc->pfnDescCB )
    945                {
    946                  sDesc = (SimpleDescriptionFormat_t *)epDesc->pfnDescCB( AF_DESCRIPTOR_SIMPLE, epDesc->epDesc->endPoint );
    947                  allocated = TRUE;
    948                }
    949                else
    950                {
    951                  sDesc = epDesc->epDesc->simpleDesc;
    952                  allocated = FALSE;
    953                }
    954          
    955                // Allow specific ProfileId or Wildcard ProfileID
    956                if ( sDesc && ( ( sDesc->AppProfId == profileID ) || ( profileID == ZDO_WILDCARD_PROFILE_ID ) ) )
    957                {
    958                  uint8 *uint8Buf = (uint8 *)ZDOBuildBuf;
    959          
    960                  // Are there matching input clusters?
    961                  if ((ZDO_AnyClusterMatches( numInClusters, inClusters,
    962                             sDesc->AppNumInClusters, sDesc->pAppInClusterList )) ||
    963                      // Are there matching output clusters?
    964                      (ZDO_AnyClusterMatches( numOutClusters, outClusters,
    965                             sDesc->AppNumOutClusters, sDesc->pAppOutClusterList )))
    966                  {
    967                    // Notify the endpoint of the match.
    968                    uint8 bufLen = sizeof( ZDO_MatchDescRspSent_t ) + (numOutClusters + numInClusters) * sizeof(uint16);
    969                    ZDO_MatchDescRspSent_t *pRspSent = (ZDO_MatchDescRspSent_t *) osal_msg_allocate( bufLen );
    970          
    971                    if (pRspSent)
    972                    {
    973                      pRspSent->hdr.event = ZDO_MATCH_DESC_RSP_SENT;
    974                      pRspSent->nwkAddr = inMsg->srcAddr.addr.shortAddr;
    975                      pRspSent->numInClusters = numInClusters;
    976                      pRspSent->numOutClusters = numOutClusters;
    977          
    978                      if (numInClusters)
    979                      {
    980                        pRspSent->pInClusters = (uint16*) (pRspSent + 1);
    981                        osal_memcpy(pRspSent->pInClusters, inClusters, numInClusters * sizeof(uint16));
    982                      }
    983                      else
    984                      {
    985                        pRspSent->pInClusters = NULL;
    986                      }
    987          
    988                      if (numOutClusters)
    989                      {
    990                        pRspSent->pOutClusters = (uint16*)(pRspSent + 1) + numInClusters;
    991                        osal_memcpy(pRspSent->pOutClusters, outClusters, numOutClusters * sizeof(uint16));
    992                      }
    993                      else
    994                      {
    995                        pRspSent->pOutClusters = NULL;
   \                     ??ZDO_ProcessMatchDescReq_12:
   \   0001A8   E4           CLR       A
   \   0001A9   F0           MOVX      @DPTR,A
   \   0001AA   A3           INC       DPTR
   \   0001AB   F0           MOVX      @DPTR,A
    996                      }
    997          
    998                      osal_msg_send( *epDesc->epDesc->task_id, (uint8 *)pRspSent );
   \                     ??ZDO_ProcessMatchDescReq_13:
   \   0001AC                ; Setup parameters for call to function osal_msg_send
   \   0001AC   EE           MOV       A,R6
   \   0001AD   FA           MOV       R2,A
   \   0001AE   EF           MOV       A,R7
   \   0001AF   FB           MOV       R3,A
   \   0001B0   85..82       MOV       DPL,?V10
   \   0001B3   85..83       MOV       DPH,?V11
   \   0001B6   A3           INC       DPTR
   \   0001B7   A3           INC       DPTR
   \   0001B8   12....       LCALL     ?Subroutine161 & 0xFFFF
   \                     ??CrossCallReturnLabel_294:
   \   0001BB   12....       LCALL     ?Subroutine81 & 0xFFFF
   \                     ??CrossCallReturnLabel_287:
   \   0001BE   F9           MOV       R1,A
   \   0001BF   12....       LCALL     `??osal_msg_send::?relay`; Banked call to: osal_msg_send
    999                    }
   1000          
   1001                    uint8Buf[epCnt++] = sDesc->EndPoint;
   \                     ??ZDO_ProcessMatchDescReq_14:
   \   0001C2   85..82       MOV       DPL,?V8
   \   0001C5   85..83       MOV       DPH,?V9
   \   0001C8   E0           MOVX      A,@DPTR
   \   0001C9   C0E0         PUSH      A
   \   0001CB   A8..         MOV       R0,?V7
   \   0001CD   74..         MOV       A,#ZDOBuildBuf & 0xff
   \   0001CF   28           ADD       A,R0
   \   0001D0   F582         MOV       DPL,A
   \   0001D2   E4           CLR       A
   \   0001D3   34..         ADDC      A,#(ZDOBuildBuf >> 8) & 0xff
   \   0001D5   F583         MOV       DPH,A
   \   0001D7   D0E0         POP       A
   \   0001D9   F0           MOVX      @DPTR,A
   \   0001DA   05..         INC       ?V7
   1002                  }
   1003                }
   1004          
   1005                if ( allocated )
   \                     ??ZDO_ProcessMatchDescReq_15:
   \   0001DC   A2..         MOV       C,?VB.0
   \   0001DE   5007         JNC       ??ZDO_ProcessMatchDescReq_16
   1006                {
   1007                  osal_mem_free( sDesc );
   \   0001E0                ; Setup parameters for call to function osal_mem_free
   \   0001E0   AA..         MOV       R2,?V8
   \   0001E2   AB..         MOV       R3,?V9
   \   0001E4   12....       LCALL     `??osal_mem_free::?relay`; Banked call to: osal_mem_free
   1008                }
   1009              }
   1010              epDesc = epDesc->nextDesc;
   \                     ??ZDO_ProcessMatchDescReq_16:
   \   0001E7   85..82       MOV       DPL,?V10
   \   0001EA   85..83       MOV       DPH,?V11
   \                     ??ZDO_ProcessMatchDescReq_11:
   \   0001ED   E0           MOVX      A,@DPTR
   \   0001EE   F5..         MOV       ?V10,A
   \   0001F0   A3           INC       DPTR
   \   0001F1   E0           MOVX      A,@DPTR
   \   0001F2   F5..         MOV       ?V11,A
   \   0001F4   E5..         MOV       A,?V10
   \   0001F6   45..         ORL       A,?V11
   \   0001F8   7003         JNZ       $+5
   \   0001FA   02....       LJMP      ??ZDO_ProcessMatchDescReq_17 & 0xFFFF
   \   0001FD   85..82       MOV       DPL,?V10
   \   000200   85..83       MOV       DPH,?V11
   \   000203   A3           INC       DPTR
   \   000204   A3           INC       DPTR
   \   000205   12....       LCALL     ??Subroutine177_0 & 0xFFFF
   \                     ??CrossCallReturnLabel_322:
   \   000208   E8           MOV       A,R0
   \   000209   FA           MOV       R2,A
   \   00020A   E9           MOV       A,R1
   \   00020B   FB           MOV       R3,A
   \   00020C   8A82         MOV       DPL,R2
   \   00020E   8B83         MOV       DPH,R3
   \   000210   E0           MOVX      A,@DPTR
   \   000211   FC           MOV       R4,A
   \   000212   60D3         JZ        ??ZDO_ProcessMatchDescReq_16
   \   000214   85..82       MOV       DPL,?V10
   \   000217   85..83       MOV       DPH,?V11
   \   00021A   A3           INC       DPTR
   \   00021B   A3           INC       DPTR
   \   00021C   A3           INC       DPTR
   \   00021D   A3           INC       DPTR
   \   00021E   A3           INC       DPTR
   \   00021F   A3           INC       DPTR
   \   000220   A3           INC       DPTR
   \   000221   A3           INC       DPTR
   \   000222   E0           MOVX      A,@DPTR
   \   000223   A2E0         MOV       C,0xE0 /* A   */.0
   \   000225   50C0         JNC       ??ZDO_ProcessMatchDescReq_16
   \   000227   85..82       MOV       DPL,?V10
   \   00022A   85..83       MOV       DPH,?V11
   \   00022D   A3           INC       DPTR
   \   00022E   A3           INC       DPTR
   \   00022F   12....       LCALL     ?Subroutine76 & 0xFFFF
   \                     ??CrossCallReturnLabel_298:
   \   000232   E582         MOV       A,DPL
   \   000234   4583         ORL       A,DPH
   \   000236   600F         JZ        ??ZDO_ProcessMatchDescReq_18
   \   000238                ; Setup parameters for indirect call
   \   000238   EC           MOV       A,R4
   \   000239   FA           MOV       R2,A
   \   00023A   7901         MOV       R1,#0x1
   \   00023C   12....       LCALL     ?CALL_IND
   \   00023F   8A..         MOV       ?V8,R2
   \   000241   8B..         MOV       ?V9,R3
   \   000243   D2..         SETB      ?VB.0
   \   000245   8011         SJMP      ??ZDO_ProcessMatchDescReq_19
   \                     ??ZDO_ProcessMatchDescReq_18:
   \   000247   8A82         MOV       DPL,R2
   \   000249   8B83         MOV       DPH,R3
   \   00024B   A3           INC       DPTR
   \   00024C   A3           INC       DPTR
   \   00024D   A3           INC       DPTR
   \   00024E   A3           INC       DPTR
   \   00024F   E0           MOVX      A,@DPTR
   \   000250   F5..         MOV       ?V8,A
   \   000252   A3           INC       DPTR
   \   000253   E0           MOVX      A,@DPTR
   \   000254   F5..         MOV       ?V9,A
   \   000256   C2..         CLR       ?VB.0
   \                     ??ZDO_ProcessMatchDescReq_19:
   \   000258   E5..         MOV       A,?V8
   \   00025A   45..         ORL       A,?V9
   \   00025C   7003         JNZ       $+5
   \   00025E   02....       LJMP      ??ZDO_ProcessMatchDescReq_15 & 0xFFFF
   \   000261   85..82       MOV       DPL,?V8
   \   000264   85..83       MOV       DPH,?V9
   \   000267   A3           INC       DPTR
   \   000268   E0           MOVX      A,@DPTR
   \   000269   65..         XRL       A,?V0
   \   00026B   7004         JNZ       ??ZDO_ProcessMatchDescReq_20
   \   00026D   A3           INC       DPTR
   \   00026E   E0           MOVX      A,@DPTR
   \   00026F   65..         XRL       A,?V1
   \                     ??ZDO_ProcessMatchDescReq_20:
   \   000271   600F         JZ        ??ZDO_ProcessMatchDescReq_21
   \   000273   74FF         MOV       A,#-0x1
   \   000275   65..         XRL       A,?V0
   \   000277   7004         JNZ       ??ZDO_ProcessMatchDescReq_22
   \   000279   74FF         MOV       A,#-0x1
   \   00027B   65..         XRL       A,?V1
   \                     ??ZDO_ProcessMatchDescReq_22:
   \   00027D   6003         JZ        $+5
   \   00027F   02....       LJMP      ??ZDO_ProcessMatchDescReq_15 & 0xFFFF
   \                     ??ZDO_ProcessMatchDescReq_21:
   \   000282                ; Setup parameters for call to function ZDO_AnyClusterMatches
   \   000282   85..82       MOV       DPL,?V8
   \   000285   85..83       MOV       DPH,?V9
   \   000288   A3           INC       DPTR
   \   000289   A3           INC       DPTR
   \   00028A   A3           INC       DPTR
   \   00028B   A3           INC       DPTR
   \   00028C   A3           INC       DPTR
   \   00028D   A3           INC       DPTR
   \   00028E   A3           INC       DPTR
   \   00028F   12....       LCALL     ?PUSH_XSTACK8_X_TWO
   \   000292   85..82       MOV       DPL,?V8
   \   000295   85..83       MOV       DPH,?V9
   \   000298   A3           INC       DPTR
   \   000299   A3           INC       DPTR
   \   00029A   A3           INC       DPTR
   \   00029B   A3           INC       DPTR
   \   00029C   A3           INC       DPTR
   \   00029D   A3           INC       DPTR
   \   00029E   E0           MOVX      A,@DPTR
   \   00029F   FC           MOV       R4,A
   \   0002A0   AA..         MOV       R2,?V14
   \   0002A2   AB..         MOV       R3,?V15
   \   0002A4   A9..         MOV       R1,?V3
   \   0002A6   12....       LCALL     `??ZDO_AnyClusterMatches::?relay`; Banked call to: ZDO_AnyClusterMatches
   \   0002A9   7402         MOV       A,#0x2
   \   0002AB   12....       LCALL     ?DEALLOC_XSTACK8
   \   0002AE   E9           MOV       A,R1
   \   0002AF   7038         JNZ       ??ZDO_ProcessMatchDescReq_23
   \   0002B1                ; Setup parameters for call to function ZDO_AnyClusterMatches
   \   0002B1   85..82       MOV       DPL,?V8
   \   0002B4   85..83       MOV       DPH,?V9
   \   0002B7   A3           INC       DPTR
   \   0002B8   A3           INC       DPTR
   \   0002B9   A3           INC       DPTR
   \   0002BA   A3           INC       DPTR
   \   0002BB   A3           INC       DPTR
   \   0002BC   A3           INC       DPTR
   \   0002BD   A3           INC       DPTR
   \   0002BE   A3           INC       DPTR
   \   0002BF   A3           INC       DPTR
   \   0002C0   A3           INC       DPTR
   \   0002C1   12....       LCALL     ?PUSH_XSTACK8_X_TWO
   \   0002C4   85..82       MOV       DPL,?V8
   \   0002C7   85..83       MOV       DPH,?V9
   \   0002CA   A3           INC       DPTR
   \   0002CB   A3           INC       DPTR
   \   0002CC   A3           INC       DPTR
   \   0002CD   A3           INC       DPTR
   \   0002CE   A3           INC       DPTR
   \   0002CF   A3           INC       DPTR
   \   0002D0   A3           INC       DPTR
   \   0002D1   A3           INC       DPTR
   \   0002D2   A3           INC       DPTR
   \   0002D3   E0           MOVX      A,@DPTR
   \   0002D4   FC           MOV       R4,A
   \   0002D5   AA..         MOV       R2,?V12
   \   0002D7   AB..         MOV       R3,?V13
   \   0002D9   A9..         MOV       R1,?V2
   \   0002DB   12....       LCALL     `??ZDO_AnyClusterMatches::?relay`; Banked call to: ZDO_AnyClusterMatches
   \   0002DE   7402         MOV       A,#0x2
   \   0002E0   12....       LCALL     ?DEALLOC_XSTACK8
   \   0002E3   E9           MOV       A,R1
   \   0002E4   7003         JNZ       $+5
   \   0002E6   02....       LJMP      ??ZDO_ProcessMatchDescReq_15 & 0xFFFF
   \                     ??ZDO_ProcessMatchDescReq_23:
   \   0002E9                ; Setup parameters for call to function osal_msg_allocate
   \   0002E9   E5..         MOV       A,?V2
   \   0002EB   25..         ADD       A,?V3
   \   0002ED   C3           CLR       C
   \   0002EE   33           RLC       A
   \   0002EF   240A         ADD       A,#0xa
   \   0002F1   FA           MOV       R2,A
   \   0002F2   7B00         MOV       R3,#0x0
   \   0002F4   12....       LCALL     `??osal_msg_allocate::?relay`; Banked call to: osal_msg_allocate
   \   0002F7   8A..         MOV       ?V4,R2
   \   0002F9   8B..         MOV       ?V5,R3
   \   0002FB   AE..         MOV       R6,?V4
   \   0002FD   AF..         MOV       R7,?V5
   \   0002FF   EE           MOV       A,R6
   \   000300   4F           ORL       A,R7
   \   000301   7003         JNZ       $+5
   \   000303   02....       LJMP      ??ZDO_ProcessMatchDescReq_14 & 0xFFFF
   \   000306   8E82         MOV       DPL,R6
   \   000308   8F83         MOV       DPH,R7
   \   00030A   74D2         MOV       A,#-0x2e
   \   00030C   12....       LCALL     ?Subroutine31 & 0xFFFF
   \                     ??CrossCallReturnLabel_39:
   \   00030F   F583         MOV       DPH,A
   \   000311   8882         MOV       DPL,R0
   \   000313   12....       LCALL     ?Subroutine82 & 0xFFFF
   \                     ??CrossCallReturnLabel_132:
   \   000316   E8           MOV       A,R0
   \   000317   12....       LCALL     ?Subroutine29 & 0xFFFF
   \                     ??CrossCallReturnLabel_37:
   \   00031A   A3           INC       DPTR
   \   00031B   E5..         MOV       A,?V3
   \   00031D   12....       LCALL     ?Subroutine41 & 0xFFFF
   \                     ??CrossCallReturnLabel_60:
   \   000320   A3           INC       DPTR
   \   000321   A3           INC       DPTR
   \   000322   A3           INC       DPTR
   \   000323   E5..         MOV       A,?V2
   \   000325   F0           MOVX      @DPTR,A
   \   000326   EE           MOV       A,R6
   \   000327   2405         ADD       A,#0x5
   \   000329   F582         MOV       DPL,A
   \   00032B   E4           CLR       A
   \   00032C   3F           ADDC      A,R7
   \   00032D   F583         MOV       DPH,A
   \   00032F   E5..         MOV       A,?V3
   \   000331   6027         JZ        ??ZDO_ProcessMatchDescReq_24
   \   000333   12....       LCALL     ?Subroutine127 & 0xFFFF
   \                     ??CrossCallReturnLabel_573:
   \   000336   3F           ADDC      A,R7
   \   000337   12....       LCALL     ?Subroutine23 & 0xFFFF
   \                     ??CrossCallReturnLabel_357:
   \   00033A                ; Setup parameters for call to function osal_memcpy
   \   00033A   85....       MOV       ?V4,?V14
   \   00033D   85....       MOV       ?V5,?V15
   \   000340   75..00       MOV       ?V6,#0x0
   \   000343   78..         MOV       R0,#?V4
   \   000345   12....       LCALL     ?PUSH_XSTACK_I_THREE
   \   000348   AC..         MOV       R4,?V3
   \   00034A   EC           MOV       A,R4
   \   00034B   2C           ADD       A,R4
   \   00034C   FC           MOV       R4,A
   \   00034D   E4           CLR       A
   \   00034E   33           RLC       A
   \   00034F   FD           MOV       R5,A
   \   000350   12....       LCALL     `??osal_memcpy::?relay`; Banked call to: osal_memcpy
   \   000353   7403         MOV       A,#0x3
   \   000355   12....       LCALL     ?DEALLOC_XSTACK8
   \   000358   8004         SJMP      ??ZDO_ProcessMatchDescReq_25
   \                     ??ZDO_ProcessMatchDescReq_24:
   \   00035A   E4           CLR       A
   \   00035B   F0           MOVX      @DPTR,A
   \   00035C   A3           INC       DPTR
   \   00035D   F0           MOVX      @DPTR,A
   \                     ??ZDO_ProcessMatchDescReq_25:
   \   00035E   EE           MOV       A,R6
   \   00035F   2408         ADD       A,#0x8
   \   000361   F582         MOV       DPL,A
   \   000363   E4           CLR       A
   \   000364   3F           ADDC      A,R7
   \   000365   F583         MOV       DPH,A
   \   000367   E5..         MOV       A,?V2
   \   000369   7003         JNZ       $+5
   \   00036B   02....       LJMP      ??ZDO_ProcessMatchDescReq_12 & 0xFFFF
   \   00036E   A8..         MOV       R0,?V3
   \   000370   E8           MOV       A,R0
   \   000371   28           ADD       A,R0
   \   000372   F8           MOV       R0,A
   \   000373   E4           CLR       A
   \   000374   33           RLC       A
   \   000375   F9           MOV       R1,A
   \   000376   EE           MOV       A,R6
   \   000377   28           ADD       A,R0
   \   000378   F8           MOV       R0,A
   \   000379   EF           MOV       A,R7
   \   00037A   39           ADDC      A,R1
   \   00037B   F9           MOV       R1,A
   \   00037C   E8           MOV       A,R0
   \   00037D   12....       LCALL     ??Subroutine220_0 & 0xFFFF
   \                     ??CrossCallReturnLabel_570:
   \   000380   39           ADDC      A,R1
   \   000381   12....       LCALL     ?Subroutine23 & 0xFFFF
   \                     ??CrossCallReturnLabel_358:
   \   000384                ; Setup parameters for call to function osal_memcpy
   \   000384   85....       MOV       ?V4,?V12
   \   000387   85....       MOV       ?V5,?V13
   \   00038A   75..00       MOV       ?V6,#0x0
   \   00038D   78..         MOV       R0,#?V4
   \   00038F   12....       LCALL     ?PUSH_XSTACK_I_THREE
   \   000392   AC..         MOV       R4,?V2
   \   000394   EC           MOV       A,R4
   \   000395   2C           ADD       A,R4
   \   000396   FC           MOV       R4,A
   \   000397   E4           CLR       A
   \   000398   33           RLC       A
   \   000399   FD           MOV       R5,A
   \   00039A   12....       LCALL     `??osal_memcpy::?relay`; Banked call to: osal_memcpy
   \   00039D   7403         MOV       A,#0x3
   \   00039F   12....       LCALL     ?DEALLOC_XSTACK8
   \   0003A2   02....       LJMP      ??ZDO_ProcessMatchDescReq_13 & 0xFFFF
   1011            }
   1012          
   1013            if ( epCnt )
   \                     ??ZDO_ProcessMatchDescReq_17:
   \   0003A5   E5..         MOV       A,?V7
   \   0003A7   604C         JZ        ??ZDO_ProcessMatchDescReq_26
   1014            {
   1015              // Send the message if at least one match found.
   1016              if ( ZSuccess == ZDP_MatchDescRsp( inMsg->TransSeq, &(inMsg->srcAddr), ZDP_SUCCESS,
   1017                        ZDAppNwkAddr.addr.shortAddr, epCnt, (uint8 *)ZDOBuildBuf, inMsg->SecurityUse ) )
   \   0003A9                ; Setup parameters for call to function ZDP_EPRsp
   \   0003A9   7404         MOV       A,#0x4
   \   0003AB   12....       LCALL     ?XSTACK_DISP0_8
   \   0003AE   12....       LCALL     ?Subroutine53 & 0xFFFF
   \                     ??CrossCallReturnLabel_90:
   \   0003B1   12....       LCALL     ?PUSH_XSTACK_I_ONE
   \   0003B4   75....       MOV       ?V0,#ZDOBuildBuf & 0xff
   \   0003B7   75....       MOV       ?V1,#(ZDOBuildBuf >> 8) & 0xff
   \   0003BA   78..         MOV       R0,#?V0
   \   0003BC   12....       LCALL     ?PUSH_XSTACK_I_TWO
   \   0003BF   E5..         MOV       A,?V7
   \   0003C1   F5..         MOV       ?V0,A
   \   0003C3   78..         MOV       R0,#?V0
   \   0003C5   12....       LCALL     ?PUSH_XSTACK_I_ONE
   \   0003C8   90....       MOV       DPTR,#ZDAppNwkAddr
   \   0003CB   12....       LCALL     ?PUSH_XSTACK8_X_TWO
   \   0003CE   75..00       MOV       ?V0,#0x0
   \   0003D1   78..         MOV       R0,#?V0
   \   0003D3   12....       LCALL     ?PUSH_XSTACK_I_ONE
   \   0003D6   7407         MOV       A,#0x7
   \   0003D8   12....       LCALL     ?XSTACK_DISP0_8
   \   0003DB   12....       LCALL     ?Subroutine67 & 0xFFFF
   \                     ??CrossCallReturnLabel_113:
   \   0003DE   12....       LCALL     ?XSTACK_DISP0_8
   \   0003E1   12....       LCALL     ?Subroutine52 & 0xFFFF
   \                     ??CrossCallReturnLabel_86:
   \   0003E4   12....       LCALL     `??ZDP_EPRsp::?relay`; Banked call to: ZDP_EPRsp
   \   0003E7   7407         MOV       A,#0x7
   \   0003E9   12....       LCALL     ?DEALLOC_XSTACK8
   \   0003EC   E9           MOV       A,R1
   \   0003ED   7060         JNZ       ??ZDO_ProcessMatchDescReq_27
   1018              {
   1019          #if defined( LCD_SUPPORTED )
   1020                HalLcdWriteScreen( "Match Desc Req", "Rsp Sent" );
   \   0003EF                ; Setup parameters for call to function HalLcdWriteScreen
   \   0003EF   7C..         MOV       R4,#`?<Constant "Rsp Sent">` & 0xff
   \   0003F1   7D..         MOV       R5,#(`?<Constant "Rsp Sent">` >> 8) & 0xff
   \   0003F3   8053         SJMP      ??ZDO_ProcessMatchDescReq_28
   1021          #endif
   1022              }
   1023            }
   1024            else
   1025            {
   1026              if (!inMsg->wasBroadcast)
   \                     ??ZDO_ProcessMatchDescReq_26:
   \   0003F5   7402         MOV       A,#0x2
   \   0003F7   12....       LCALL     ?XSTACK_DISP0_8
   \   0003FA   12....       LCALL     ?Subroutine70 & 0xFFFF
   \                     ??CrossCallReturnLabel_118:
   \   0003FD   7045         JNZ       ??ZDO_ProcessMatchDescReq_29
   1027              {
   1028                // send response message with match length = 0
   1029                ZDP_MatchDescRsp( inMsg->TransSeq, &(inMsg->srcAddr), ZDP_SUCCESS,
   1030                                  ZDAppNwkAddr.addr.shortAddr, 0, (uint8 *)ZDOBuildBuf, inMsg->SecurityUse );
   \   0003FF                ; Setup parameters for call to function ZDP_EPRsp
   \   0003FF   7404         MOV       A,#0x4
   \   000401   12....       LCALL     ?XSTACK_DISP0_8
   \   000404   12....       LCALL     ?Subroutine53 & 0xFFFF
   \                     ??CrossCallReturnLabel_91:
   \   000407   12....       LCALL     ?PUSH_XSTACK_I_ONE
   \   00040A   75....       MOV       ?V0,#ZDOBuildBuf & 0xff
   \   00040D   75....       MOV       ?V1,#(ZDOBuildBuf >> 8) & 0xff
   \   000410   78..         MOV       R0,#?V0
   \   000412   12....       LCALL     ?PUSH_XSTACK_I_TWO
   \   000415   75..00       MOV       ?V0,#0x0
   \   000418   78..         MOV       R0,#?V0
   \   00041A   12....       LCALL     ?PUSH_XSTACK_I_ONE
   \   00041D   90....       MOV       DPTR,#ZDAppNwkAddr
   \   000420   12....       LCALL     ?PUSH_XSTACK8_X_TWO
   \   000423   78..         MOV       R0,#?V0
   \   000425   12....       LCALL     ?PUSH_XSTACK_I_ONE
   \   000428   7407         MOV       A,#0x7
   \   00042A   12....       LCALL     ?XSTACK_DISP0_8
   \   00042D   12....       LCALL     ?Subroutine67 & 0xFFFF
   \                     ??CrossCallReturnLabel_114:
   \   000430   12....       LCALL     ?XSTACK_DISP0_8
   \   000433   12....       LCALL     ?Subroutine52 & 0xFFFF
   \                     ??CrossCallReturnLabel_87:
   \   000436   12....       LCALL     `??ZDP_EPRsp::?relay`; Banked call to: ZDP_EPRsp
   \   000439   7407         MOV       A,#0x7
   \   00043B   12....       LCALL     ?DEALLOC_XSTACK8
   1031          #if defined( LCD_SUPPORTED )
   1032                HalLcdWriteScreen( "Match Desc Req", "Rsp Non Matched" );
   \   00043E                ; Setup parameters for call to function HalLcdWriteScreen
   \   00043E   7C..         MOV       R4,#`?<Constant "Rsp Non Matched">` & 0xff
   \   000440   7D..         MOV       R5,#(`?<Constant "Rsp Non Matched">` >> 8) & 0xff
   \   000442   8004         SJMP      ??ZDO_ProcessMatchDescReq_28
   1033          #endif
   1034              }
   1035              else
   1036              {
   1037                // no response mesage for broadcast message
   1038          #if defined( LCD_SUPPORTED )
   1039                HalLcdWriteScreen( "Match Desc Req", "Non Matched" );
   \                     ??ZDO_ProcessMatchDescReq_29:
   \   000444                ; Setup parameters for call to function HalLcdWriteScreen
   \   000444   7C..         MOV       R4,#`?<Constant "Non Matched">` & 0xff
   \   000446   7D..         MOV       R5,#(`?<Constant "Non Matched">` >> 8) & 0xff
   \                     ??ZDO_ProcessMatchDescReq_28:
   \   000448   7A..         MOV       R2,#`?<Constant "Match Desc Req">` & 0xff
   \   00044A   7B..         MOV       R3,#(`?<Constant "Match Desc Req">` >> 8) & 0xff
   \   00044C   12....       LCALL     `??HalLcdWriteScreen::?relay`; Banked call to: HalLcdWriteScreen
   1040          #endif
   1041              }
   1042            }
   1043          
   1044            if ( inClusters != NULL )
   \                     ??ZDO_ProcessMatchDescReq_27:
   \   00044F   E5..         MOV       A,?V14
   \   000451   45..         ORL       A,?V15
   \   000453   6007         JZ        ??ZDO_ProcessMatchDescReq_30
   1045            {
   1046              osal_mem_free( inClusters );
   \   000455                ; Setup parameters for call to function osal_mem_free
   \   000455   AA..         MOV       R2,?V14
   \   000457   AB..         MOV       R3,?V15
   \   000459   12....       LCALL     `??osal_mem_free::?relay`; Banked call to: osal_mem_free
   1047            }
   1048          
   1049            if ( outClusters != NULL )
   \                     ??ZDO_ProcessMatchDescReq_30:
   \   00045C   E5..         MOV       A,?V12
   \   00045E   45..         ORL       A,?V13
   \   000460   6007         JZ        ??ZDO_ProcessMatchDescReq_1
   1050            {
   1051              osal_mem_free( outClusters );
   \   000462                ; Setup parameters for call to function osal_mem_free
   \   000462   AA..         MOV       R2,?V12
   \   000464   AB..         MOV       R3,?V13
   \   000466   12....       LCALL     `??osal_mem_free::?relay`; Banked call to: osal_mem_free
   1052            }
   1053          }
   \                     ??ZDO_ProcessMatchDescReq_1:
   \   000469   7408         MOV       A,#0x8
   \   00046B                REQUIRE ?Subroutine6
   \   00046B                ; // Fall through to label ?Subroutine6

   \                                 In  segment BANKED_CODE, align 1, keep-with-next
   \                     ?Subroutine6:
   \   000000   12....       LCALL     ?DEALLOC_XSTACK8
   \   000003                REQUIRE ??Subroutine175_0
   \   000003                ; // Fall through to label ??Subroutine175_0

   \                                 In  segment BANKED_CODE, align 1, keep-with-next
   \                     ??Subroutine175_0:
   \   000000   7F10         MOV       R7,#0x10
   \   000002   02....       LJMP      ?BANKED_LEAVE_XDATA

   \                                 In  segment BANKED_CODE, align 1, keep-with-next
   \                     ?Subroutine67:
   \   000000   E0           MOVX      A,@DPTR
   \   000001   FC           MOV       R4,A
   \   000002   A3           INC       DPTR
   \   000003   E0           MOVX      A,@DPTR
   \   000004   FD           MOV       R5,A
   \   000005   740D         MOV       A,#0xd
   \   000007   22           RET

   \                                 In  segment BANKED_CODE, align 1, keep-with-next
   \                     ?Subroutine53:
   \   000000   12....       LCALL     ?Subroutine143 & 0xFFFF
   \                     ??CrossCallReturnLabel_289:
   \   000003   F5..         MOV       ?V0,A
   \   000005   78..         MOV       R0,#?V0
   \   000007   22           RET

   \                                 In  segment BANKED_CODE, align 1, keep-with-next
   \                     ?Subroutine52:
   \   000000   12....       LCALL     ?Subroutine143 & 0xFFFF
   \                     ??CrossCallReturnLabel_288:
   \   000003   F9           MOV       R1,A
   \   000004   7A06         MOV       R2,#0x6
   \   000006   7B80         MOV       R3,#-0x80
   \   000008   22           RET

   \                                 In  segment BANKED_CODE, align 1, keep-with-next
   \                     ?Subroutine37:
   \   000000   F9           MOV       R1,A
   \   000001   85..82       MOV       DPL,?XSP + 0
   \   000004   85..83       MOV       DPH,?XSP + 1
   \   000007                REQUIRE ??Subroutine178_0
   \   000007                ; // Fall through to label ??Subroutine178_0

   \                                 In  segment BANKED_CODE, align 1, keep-with-next
   \                     ??Subroutine178_0:
   \   000000   E8           MOV       A,R0
   \   000001                REQUIRE ??Subroutine179_0
   \   000001                ; // Fall through to label ??Subroutine179_0

   \                                 In  segment BANKED_CODE, align 1, keep-with-next
   \                     ??Subroutine179_0:
   \   000000   F0           MOVX      @DPTR,A
   \   000001   A3           INC       DPTR
   \   000002   E9           MOV       A,R1
   \   000003   F0           MOVX      @DPTR,A
   \   000004   22           RET

   \                                 In  segment BANKED_CODE, align 1, keep-with-next
   \                     ?Subroutine23:
   \   000000   FB           MOV       R3,A
   \   000001                REQUIRE ??Subroutine180_0
   \   000001                ; // Fall through to label ??Subroutine180_0

   \                                 In  segment BANKED_CODE, align 1, keep-with-next
   \                     ??Subroutine186_0:
   \   000000   12....       LCALL     ??Subroutine208_0 & 0xFFFF
   \                     ??CrossCallReturnLabel_513:
   \   000003   22           RET

   \                                 In  segment BANKED_CODE, align 1, keep-with-next
   \                     ?Subroutine31:
   \   000000   F0           MOVX      @DPTR,A
   \   000001   85..82       MOV       DPL,?XSP + 0
   \   000004   85..83       MOV       DPH,?XSP + 1
   \   000007   12....       LCALL     ??Subroutine201_0 & 0xFFFF
   \                     ??CrossCallReturnLabel_501:
   \   00000A   22           RET

   \                                 In  segment BANKED_CODE, align 1, keep-with-next
   \                     ?Subroutine104:
   \   000000   25E0         ADD       A,0xE0 /* A   */
   \   000002   FA           MOV       R2,A
   \   000003   E4           CLR       A
   \   000004   33           RLC       A
   \   000005   FB           MOV       R3,A
   \   000006   22           RET

   \                                 In  segment BANKED_CODE, align 1, keep-with-next
   \                     ??Subroutine204_0:
   \   000000   12....       LCALL     ??Subroutine207_0 & 0xFFFF
   \                     ??CrossCallReturnLabel_499:
   \   000003   22           RET

   \                                 In  segment BANKED_CODE, align 1, keep-with-next
   \                     ?Subroutine157:
   \   000000   F582         MOV       DPL,A
   \   000002   E4           CLR       A
   \   000003   38           ADDC      A,R0
   \   000004   F583         MOV       DPH,A
   \   000006   E0           MOVX      A,@DPTR
   \   000007   22           RET

   \                                 In  segment BANKED_CODE, align 1, keep-with-next
   \                     ?Subroutine82:
   \   000000   12....       LCALL     ?Subroutine153 & 0xFFFF
   \                     ??CrossCallReturnLabel_269:
   \   000003   A3           INC       DPTR
   \   000004   A3           INC       DPTR
   \   000005   22           RET

   \                                 In  segment BANKED_CODE, align 1, keep-with-next
   \                     ?Subroutine153:
   \   000000   12....       LCALL     ??Subroutine201_0 & 0xFFFF
   \                     ??CrossCallReturnLabel_505:
   \   000003   F9           MOV       R1,A
   \   000004   8E82         MOV       DPL,R6
   \   000006   8F83         MOV       DPH,R7
   \   000008   22           RET

   \                                 In  segment BANKED_CODE, align 1, keep-with-next
   \                     ?Subroutine70:
   \   000000   12....       LCALL     ??Subroutine207_0 & 0xFFFF
   \                     ??CrossCallReturnLabel_495:
   \   000003   240B         ADD       A,#0xb
   \   000005   12....       LCALL     ?Subroutine157 & 0xFFFF
   \                     ??CrossCallReturnLabel_448:
   \   000008   22           RET

   \                                 In  segment BANKED_CODE, align 1, keep-with-next
   \                     ??Subroutine207_0:
   \   000000   12....       LCALL     ??Subroutine201_0 & 0xFFFF
   \                     ??CrossCallReturnLabel_509:
   \   000003   C8           XCH       A,R0
   \   000004   22           RET

   \                                 In  segment BANKED_CODE, align 1, keep-with-next
   \                     ?Subroutine29:
   \   000000   F0           MOVX      @DPTR,A
   \   000001   A3           INC       DPTR
   \   000002   E9           MOV       A,R1
   \   000003   12....       LCALL     ?Subroutine138 & 0xFFFF
   \                     ??CrossCallReturnLabel_248:
   \   000006   22           RET

   \                                 In  segment BANKED_CODE, align 1, keep-with-next
   \                     ?Subroutine138:
   \   000000   12....       LCALL     ?Subroutine160 & 0xFFFF
   \                     ??CrossCallReturnLabel_278:
   \   000003   22           RET

   \                                 In  segment BANKED_CODE, align 1, keep-with-next
   \                     ?Subroutine160:
   \   000000   12....       LCALL     ?Subroutine166 & 0xFFFF
   \                     ??CrossCallReturnLabel_537:
   \   000003   A3           INC       DPTR
   \   000004   A3           INC       DPTR
   \   000005   22           RET

   \                                 In  segment BANKED_CODE, align 1, keep-with-next
   \                     ??Subroutine211_0:
   \   000000   F583         MOV       DPH,A
   \   000002                REQUIRE ??Subroutine212_0
   \   000002                ; // Fall through to label ??Subroutine212_0

   \                                 In  segment BANKED_CODE, align 1, keep-with-next
   \                     ??Subroutine212_0:
   \   000000   12....       LCALL     ?Subroutine149 & 0xFFFF
   \                     ??CrossCallReturnLabel_533:
   \   000003   8E82         MOV       DPL,R6
   \   000005   8F83         MOV       DPH,R7
   \   000007   E0           MOVX      A,@DPTR
   \   000008   22           RET

   \                                 In  segment BANKED_CODE, align 1, keep-with-next
   \                     ?Subroutine149:
   \   000000   E0           MOVX      A,@DPTR
   \   000001   FE           MOV       R6,A
   \   000002   A3           INC       DPTR
   \   000003   E0           MOVX      A,@DPTR
   \   000004   FF           MOV       R7,A
   \   000005   22           RET

   \                                 In  segment BANKED_CODE, align 1, keep-with-next
   \                     ?Subroutine41:
   \   000000   12....       LCALL     ?Subroutine138 & 0xFFFF
   \                     ??CrossCallReturnLabel_249:
   \   000003   A3           INC       DPTR
   \   000004   22           RET

   \                                 In  segment BANKED_CODE, align 1, keep-with-next
   \                     ?Subroutine166:
   \   000000   F0           MOVX      @DPTR,A
   \   000001   8E82         MOV       DPL,R6
   \   000003   8F83         MOV       DPH,R7
   \   000005   A3           INC       DPTR
   \   000006   22           RET

   \                                 In  segment BANKED_CODE, align 1, keep-with-next
   \                     ?Subroutine127:
   \   000000   EE           MOV       A,R6
   \   000001                REQUIRE ??Subroutine220_0
   \   000001                ; // Fall through to label ??Subroutine220_0

   \                                 In  segment BANKED_CODE, align 1, keep-with-next
   \                     ??Subroutine220_0:
   \   000000   240A         ADD       A,#0xa
   \   000002   FA           MOV       R2,A
   \   000003   E4           CLR       A
   \   000004   22           RET
   1054          
   1055          #if defined ( REFLECTOR )
   1056          /*********************************************************************
   1057           * @fn      ZDO_ProcessBindUnbindReq()
   1058           *
   1059           * @brief   Called to process a Bind or Unbind Request message.
   1060           *
   1061           * @param   inMsg  - incoming message (request)
   1062           * @param   pReq - place to put parsed information
   1063           *
   1064           * @return  none
   1065           */

   \                                 In  segment BANKED_CODE, align 1, keep-with-next
   1066          void ZDO_ProcessBindUnbindReq( zdoIncomingMsg_t *inMsg, ZDO_BindUnbindReq_t *pReq )
   \                     ZDO_ProcessBindUnbindReq:
   1067          {
   \   000000                REQUIRE ?V0
   \   000000                REQUIRE ?V1
   \   000000                REQUIRE ?V2
   \   000000                REQUIRE ?V3
   \   000000                REQUIRE ?V4
   \   000000                REQUIRE ?V5
   \   000000                REQUIRE ?V6
   \   000000                REQUIRE ?V7
   \   000000                REQUIRE ?V8
   \   000000   74EF         MOV       A,#-0x11
   \   000002   12....       LCALL     ?BANKED_ENTER_XDATA
   \   000005                ; Saved register size: 17
   \   000005                ; Auto size: 12
   \   000005   74F4         MOV       A,#-0xc
   \   000007   12....       LCALL     ?ALLOC_XSTACK8
   \   00000A   8A..         MOV       ?V0,R2
   \   00000C   8B..         MOV       ?V1,R3
   \   00000E   EC           MOV       A,R4
   \   00000F   FE           MOV       R6,A
   \   000010   ED           MOV       A,R5
   \   000011   FF           MOV       R7,A
   1068            zAddrType_t SourceAddr;       // Binding Source addres
   1069            byte bindStat;
   1070          
   1071            SourceAddr.addrMode = Addr64Bit;
   \   000012   740B         MOV       A,#0xb
   \   000014   12....       LCALL     ?XSTACK_DISP0_8
   \   000017   7403         MOV       A,#0x3
   \   000019   F0           MOVX      @DPTR,A
   1072            osal_cpyExtAddr( SourceAddr.addr.extAddr, pReq->srcAddress );
   \   00001A                ; Setup parameters for call to function sAddrExtCpy
   \   00001A   12....       LCALL     ?XSTACK_DISP101_8
   \   00001D   12....       LCALL     `??sAddrExtCpy::?relay`; Banked call to: sAddrExtCpy
   1073          
   1074            // If the local device is not the primary binding cache
   1075            // check the src address of the bind request.
   1076            // If it is not the local device's extended address
   1077            // discard the request.
   1078            if ( !osal_ExtAddrEqual( SourceAddr.addr.extAddr, NLME_GetExtAddr()) ||
   1079                  (pReq->dstAddress.addrMode != Addr64Bit &&
   1080                   pReq->dstAddress.addrMode != AddrGroup) )
   \   000020                ; Setup parameters for call to function NLME_GetExtAddr
   \   000020   12....       LCALL     `??NLME_GetExtAddr::?relay`; Banked call to: NLME_GetExtAddr
   \   000023   8A..         MOV       ?V2,R2
   \   000025   8B..         MOV       ?V3,R3
   \   000027   AC..         MOV       R4,?V2
   \   000029   AD..         MOV       R5,?V3
   \   00002B   E5..         MOV       A,?V0
   \   00002D   240C         ADD       A,#0xc
   \   00002F   F5..         MOV       ?V4,A
   \   000031   E4           CLR       A
   \   000032   35..         ADDC      A,?V1
   \   000034   F5..         MOV       ?V5,A
   \   000036                ; Setup parameters for call to function sAddrExtCmp
   \   000036   7403         MOV       A,#0x3
   \   000038   12....       LCALL     ?XSTACK_DISP101_8
   \   00003B   12....       LCALL     `??sAddrExtCmp::?relay`; Banked call to: sAddrExtCmp
   \   00003E   E9           MOV       A,R1
   \   00003F   601D         JZ        ??ZDO_ProcessBindUnbindReq_0
   \   000041   EE           MOV       A,R6
   \   000042   2413         ADD       A,#0x13
   \   000044   F5..         MOV       ?V2,A
   \   000046   E4           CLR       A
   \   000047   3F           ADDC      A,R7
   \   000048   F5..         MOV       ?V3,A
   \   00004A   85..82       MOV       DPL,?V2
   \   00004D   F583         MOV       DPH,A
   \   00004F   E0           MOVX      A,@DPTR
   \   000050   F5..         MOV       ?V8,A
   \   000052   7403         MOV       A,#0x3
   \   000054   65..         XRL       A,?V8
   \   000056   6011         JZ        ??ZDO_ProcessBindUnbindReq_1
   \   000058   7401         MOV       A,#0x1
   \   00005A   65..         XRL       A,?V8
   \   00005C   600B         JZ        ??ZDO_ProcessBindUnbindReq_1
   1081            {
   1082              bindStat = ZDP_NOT_SUPPORTED;
   \                     ??ZDO_ProcessBindUnbindReq_0:
   \   00005E   85..82       MOV       DPL,?XSP + 0
   \   000061   85..83       MOV       DPH,?XSP + 1
   \   000064   7484         MOV       A,#-0x7c
   \   000066   02....       LJMP      ??ZDO_ProcessBindUnbindReq_2 & 0xFFFF
   1083            }
   1084            else
   1085            {
   1086              // Check source & destination endpoints
   1087              if ( (pReq->srcEndpoint == 0 || pReq->srcEndpoint > MAX_ENDPOINTS)
   1088                  || (( pReq->dstAddress.addrMode == Addr64Bit ) &&
   1089                      (pReq->dstEndpoint == 0 || pReq->dstEndpoint > MAX_ENDPOINTS)) )
   \                     ??ZDO_ProcessBindUnbindReq_1:
   \   000069   EE           MOV       A,R6
   \   00006A   2408         ADD       A,#0x8
   \   00006C   F8           MOV       R0,A
   \   00006D   E4           CLR       A
   \   00006E   3F           ADDC      A,R7
   \   00006F   F9           MOV       R1,A
   \   000070   88..         MOV       ?V6,R0
   \   000072   89..         MOV       ?V7,R1
   \   000074   8882         MOV       DPL,R0
   \   000076   F583         MOV       DPH,A
   \   000078   E0           MOVX      A,@DPTR
   \   000079   F9           MOV       R1,A
   \   00007A   6023         JZ        ??ZDO_ProcessBindUnbindReq_3
   \   00007C   74FF         MOV       A,#-0x1
   \   00007E   69           XRL       A,R1
   \   00007F   601E         JZ        ??ZDO_ProcessBindUnbindReq_3
   \   000081   EE           MOV       A,R6
   \   000082   2414         ADD       A,#0x14
   \   000084   FA           MOV       R2,A
   \   000085   E4           CLR       A
   \   000086   3F           ADDC      A,R7
   \   000087   FB           MOV       R3,A
   \   000088   EA           MOV       A,R2
   \   000089   FC           MOV       R4,A
   \   00008A   EB           MOV       A,R3
   \   00008B   FD           MOV       R5,A
   \   00008C   7403         MOV       A,#0x3
   \   00008E   65..         XRL       A,?V8
   \   000090   7018         JNZ       ??ZDO_ProcessBindUnbindReq_4
   \   000092   8C82         MOV       DPL,R4
   \   000094   8D83         MOV       DPH,R5
   \   000096   E0           MOVX      A,@DPTR
   \   000097   F8           MOV       R0,A
   \   000098   6005         JZ        ??ZDO_ProcessBindUnbindReq_3
   \   00009A   74FF         MOV       A,#-0x1
   \   00009C   68           XRL       A,R0
   \   00009D   700B         JNZ       ??ZDO_ProcessBindUnbindReq_4
   1090              {
   1091                bindStat = ZDP_INVALID_EP;
   \                     ??ZDO_ProcessBindUnbindReq_3:
   \   00009F   85..82       MOV       DPL,?XSP + 0
   \   0000A2   85..83       MOV       DPH,?XSP + 1
   \   0000A5   7482         MOV       A,#-0x7e
   \   0000A7   02....       LJMP      ??ZDO_ProcessBindUnbindReq_2 & 0xFFFF
   1092              }
   1093              else
   1094              {
   1095                if ( inMsg->clusterID == Bind_req )
   \                     ??ZDO_ProcessBindUnbindReq_4:
   \   0000AA   EE           MOV       A,R6
   \   0000AB   2409         ADD       A,#0x9
   \   0000AD   FA           MOV       R2,A
   \   0000AE   E4           CLR       A
   \   0000AF   3F           ADDC      A,R7
   \   0000B0   FB           MOV       R3,A
   \   0000B1   EE           MOV       A,R6
   \   0000B2   240B         ADD       A,#0xb
   \   0000B4   FE           MOV       R6,A
   \   0000B5   5001         JNC       ??ZDO_ProcessBindUnbindReq_5
   \   0000B7   0F           INC       R7
   \                     ??ZDO_ProcessBindUnbindReq_5:
   \   0000B8   85..82       MOV       DPL,?V4
   \   0000BB   85..83       MOV       DPH,?V5
   \   0000BE   E0           MOVX      A,@DPTR
   \   0000BF   6421         XRL       A,#0x21
   \   0000C1   7002         JNZ       ??ZDO_ProcessBindUnbindReq_6
   \   0000C3   A3           INC       DPTR
   \   0000C4   E0           MOVX      A,@DPTR
   \                     ??ZDO_ProcessBindUnbindReq_6:
   \   0000C5   7065         JNZ       ??ZDO_ProcessBindUnbindReq_7
   1096                {
   1097                  // Assume the table is full
   1098                  bindStat = ZDP_TABLE_FULL;
   \   0000C7   85..82       MOV       DPL,?XSP + 0
   \   0000CA   85..83       MOV       DPH,?XSP + 1
   \   0000CD   748C         MOV       A,#-0x74
   \   0000CF   12....       LCALL     ?Subroutine15 & 0xFFFF
   1099          
   1100          #if defined( APP_TP ) || defined( APP_TP2 )
   1101                  // For ZigBee Conformance Testing
   1102                  if ( bindNumOfEntries() < gNWK_MAX_BINDING_ENTRIES )
   1103          #endif
   1104                  {
   1105          #if defined ( ZDP_BIND_VALIDATION )
   1106                    uint16 nwkAddr;
   1107          
   1108                    // Verifies that a valid NWK address exists for the device
   1109                    // before creating a Binding entry. If NWK address does not
   1110                    // exist the request is sent out and the BindReq is saved, to
   1111                    // create the Bind Entry once the NwkAddrRsp is received
   1112                    if ( ( pReq->dstAddress.addrMode == Addr64Bit ) &&
   1113                         ( APSME_LookupNwkAddr( pReq->dstAddress.addr.extAddr, &nwkAddr ) == FALSE ) )
   1114                    {
   1115                      // find an empty bind slot in the pending Bind Req list
   1116                      ZDO_PendingBindReq_t *pPendingBind;
   1117          
   1118                      if ( ( pPendingBind = ZDApp_GetEmptyPendingBindReq() ) != NULL )
   1119                      {
   1120                        // copy the received request into the empty slot and all required info
   1121                        osal_memcpy( &(pPendingBind->bindReq), pReq, sizeof( ZDO_BindUnbindReq_t ) );
   1122          
   1123                        pPendingBind->srcAddr = inMsg->srcAddr;
   1124                        pPendingBind->securityUse = inMsg->SecurityUse;
   1125                        pPendingBind->transSeq = inMsg->TransSeq;
   1126                        pPendingBind->age = MAX_TIME_ADDR_REQ;
   1127          
   1128                        // create an entry in Address Manager
   1129                        ( void )bindAddrIndexGet( &(pReq->dstAddress) );
   1130          
   1131                        ZDP_NwkAddrReq( pReq->dstAddress.addr.extAddr, ZDP_ADDR_REQTYPE_SINGLE, 0, 0 );
   1132          
   1133                        osal_start_timerEx( ZDAppTaskID, ZDO_PENDING_BIND_REQ_EVT,
   1134                                            AGE_OUT_PEND_BIND_REQ_DELAY );
   1135                        return;
   1136                      }
   1137                    }
   1138                    // Add Bind entry
   1139                    else if ( APSME_BindRequest( pReq->srcEndpoint, pReq->clusterID,
   1140                                                 &(pReq->dstAddress), pReq->dstEndpoint ) == ZSuccess )
   1141                    {
   1142                      // valid entry
   1143                      bindStat = ZDP_SUCCESS;
   1144          
   1145                      // Notify to save info into NV
   1146                      ZDApp_NVUpdate();
   1147                    }
   1148          #else // ZDP_BIND_VALIDATION  is not Defined
   1149                    // Create binding entry first independently of existance of  valid NWK addres
   1150                    // if NWK address does not exist a request is sent out
   1151                    if ( APSME_BindRequest( pReq->srcEndpoint, pReq->clusterID,
   1152                                   &(pReq->dstAddress), pReq->dstEndpoint ) == ZSuccess )
   \                     ??CrossCallReturnLabel_13:
   \   0000D2   E0           MOVX      A,@DPTR
   \   0000D3   F5..         MOV       ?V8,A
   \   0000D5   78..         MOV       R0,#?V8
   \   0000D7   12....       LCALL     ?PUSH_XSTACK_I_ONE
   \   0000DA   EE           MOV       A,R6
   \   0000DB   FC           MOV       R4,A
   \   0000DC   EF           MOV       A,R7
   \   0000DD   FD           MOV       R5,A
   \   0000DE   8A82         MOV       DPL,R2
   \   0000E0   8B83         MOV       DPH,R3
   \   0000E2   12....       LCALL     ??Subroutine194_0 & 0xFFFF
   \                     ??CrossCallReturnLabel_418:
   \   0000E5   85..82       MOV       DPL,?V6
   \   0000E8   85..83       MOV       DPH,?V7
   \   0000EB   E0           MOVX      A,@DPTR
   \   0000EC   F9           MOV       R1,A
   \   0000ED   12....       LCALL     `??APSME_BindRequest::?relay`; Banked call to: APSME_BindRequest
   \   0000F0   7401         MOV       A,#0x1
   \   0000F2   12....       LCALL     ?DEALLOC_XSTACK8
   \   0000F5   E9           MOV       A,R1
   \   0000F6   7066         JNZ       ??ZDO_ProcessBindUnbindReq_8
   1153                    {
   1154                      uint16 nwkAddr;
   1155          
   1156                      // valid entry
   1157                      bindStat = ZDP_SUCCESS;
   \   0000F8   85..82       MOV       DPL,?XSP + 0
   \   0000FB   85..83       MOV       DPH,?XSP + 1
   \   0000FE   E4           CLR       A
   \   0000FF   F0           MOVX      @DPTR,A
   1158          
   1159                      // Notify to save info into NV
   1160                      ZDApp_NVUpdate();
   \   000100                ; Setup parameters for call to function ZDApp_NVUpdate
   \   000100   12....       LCALL     `??ZDApp_NVUpdate::?relay`; Banked call to: ZDApp_NVUpdate
   1161          
   1162                      // Check for the destination address
   1163                      if ( pReq->dstAddress.addrMode == Addr64Bit )
   \   000103   85..82       MOV       DPL,?V2
   \   000106   85..83       MOV       DPH,?V3
   \   000109   E0           MOVX      A,@DPTR
   \   00010A   6403         XRL       A,#0x3
   \   00010C   7050         JNZ       ??ZDO_ProcessBindUnbindReq_8
   1164                      {
   1165                        if ( APSME_LookupNwkAddr( pReq->dstAddress.addr.extAddr, &nwkAddr ) == FALSE )
   \   00010E                ; Setup parameters for call to function APSME_LookupNwkAddr
   \   00010E   7401         MOV       A,#0x1
   \   000110   12....       LCALL     ?XSTACK_DISP102_8
   \   000113   EE           MOV       A,R6
   \   000114   FA           MOV       R2,A
   \   000115   EF           MOV       A,R7
   \   000116   FB           MOV       R3,A
   \   000117   12....       LCALL     `??APSME_LookupNwkAddr::?relay`; Banked call to: APSME_LookupNwkAddr
   \   00011A   E9           MOV       A,R1
   \   00011B   7041         JNZ       ??ZDO_ProcessBindUnbindReq_8
   1166                        {
   1167                          ZDP_NwkAddrReq( pReq->dstAddress.addr.extAddr, ZDP_ADDR_REQTYPE_SINGLE, 0, 0 );
   \   00011D                ; Setup parameters for call to function ZDP_NwkAddrReq
   \   00011D   7D00         MOV       R5,#0x0
   \   00011F   7C00         MOV       R4,#0x0
   \   000121   7900         MOV       R1,#0x0
   \   000123   EE           MOV       A,R6
   \   000124   FA           MOV       R2,A
   \   000125   EF           MOV       A,R7
   \   000126   FB           MOV       R3,A
   \   000127   12....       LCALL     `??ZDP_NwkAddrReq::?relay`; Banked call to: ZDP_NwkAddrReq
   \   00012A   8032         SJMP      ??ZDO_ProcessBindUnbindReq_8
   1168                        }
   1169                      }
   1170                    }
   1171          #endif
   1172                  }
   1173                }
   1174                else // Unbind_req
   1175                {
   1176                  if ( APSME_UnBindRequest( pReq->srcEndpoint, pReq->clusterID,
   1177                                 &(pReq->dstAddress), pReq->dstEndpoint ) == ZSuccess )
   \                     ??ZDO_ProcessBindUnbindReq_7:
   \   00012C                ; Setup parameters for call to function APSME_UnBindRequest
   \   00012C   8C82         MOV       DPL,R4
   \   00012E   8D83         MOV       DPH,R5
   \   000130   E0           MOVX      A,@DPTR
   \   000131   F5..         MOV       ?V2,A
   \   000133   78..         MOV       R0,#?V2
   \   000135   12....       LCALL     ?PUSH_XSTACK_I_ONE
   \   000138   EE           MOV       A,R6
   \   000139   FC           MOV       R4,A
   \   00013A   EF           MOV       A,R7
   \   00013B   FD           MOV       R5,A
   \   00013C   8A82         MOV       DPL,R2
   \   00013E   8B83         MOV       DPH,R3
   \   000140   12....       LCALL     ??Subroutine194_0 & 0xFFFF
   \                     ??CrossCallReturnLabel_419:
   \   000143   12....       LCALL     `??APSME_UnBindRequest::?relay`; Banked call to: APSME_UnBindRequest
   \   000146   7401         MOV       A,#0x1
   \   000148   12....       LCALL     ?DEALLOC_XSTACK8
   \   00014B   E9           MOV       A,R1
   \   00014C   85..82       MOV       DPL,?XSP + 0
   \   00014F   85..83       MOV       DPH,?XSP + 1
   \   000152   7007         JNZ       ??ZDO_ProcessBindUnbindReq_9
   1178                  {
   1179                    bindStat = ZDP_SUCCESS;
   \   000154   E4           CLR       A
   \   000155   F0           MOVX      @DPTR,A
   1180          
   1181                    // Notify to save info into NV
   1182                    ZDApp_NVUpdate();
   \   000156                ; Setup parameters for call to function ZDApp_NVUpdate
   \   000156   12....       LCALL     `??ZDApp_NVUpdate::?relay`; Banked call to: ZDApp_NVUpdate
   \   000159   8003         SJMP      ??ZDO_ProcessBindUnbindReq_8
   1183                  }
   1184                  else
   1185                    bindStat = ZDP_NO_ENTRY;
   \                     ??ZDO_ProcessBindUnbindReq_9:
   \   00015B   7488         MOV       A,#-0x78
   \                     ??ZDO_ProcessBindUnbindReq_2:
   \   00015D   F0           MOVX      @DPTR,A
   1186                }
   1187              }
   1188            }
   1189          
   1190            // Send back a response message
   1191            ZDP_SendData( &(inMsg->TransSeq), &(inMsg->srcAddr),
   1192                         (inMsg->clusterID | ZDO_RESPONSE_BIT), 1, &bindStat,
   1193                         inMsg->SecurityUse );
   \                     ??ZDO_ProcessBindUnbindReq_8:
   \   00015E                ; Setup parameters for call to function ZDP_SendData
   \   00015E   12....       LCALL     ?Subroutine115 & 0xFFFF
   \                     ??CrossCallReturnLabel_193:
   \   000161   F5..         MOV       ?V2,A
   \   000163   78..         MOV       R0,#?V2
   \   000165   12....       LCALL     ?PUSH_XSTACK_I_ONE
   \   000168   7401         MOV       A,#0x1
   \   00016A   12....       LCALL     ?XSTACK_DISP100_8
   \   00016D   88..         MOV       ?V2,R0
   \   00016F   89..         MOV       ?V3,R1
   \   000171   78..         MOV       R0,#?V2
   \   000173   12....       LCALL     ?PUSH_XSTACK_I_TWO
   \   000176   85..82       MOV       DPL,?V4
   \   000179   85..83       MOV       DPH,?V5
   \   00017C   E0           MOVX      A,@DPTR
   \   00017D   F5..         MOV       ?V2,A
   \   00017F   A3           INC       DPTR
   \   000180   E0           MOVX      A,@DPTR
   \   000181   4480         ORL       A,#0x80
   \   000183   F5..         MOV       ?V3,A
   \   000185   78..         MOV       R0,#?V2
   \   000187   12....       LCALL     ?PUSH_XSTACK_I_TWO
   \   00018A   12....       LCALL     ?Subroutine114 & 0xFFFF
   \                     ??CrossCallReturnLabel_191:
   \   00018D   12....       LCALL     `??ZDP_SendData::?relay`; Banked call to: ZDP_SendData
   \   000190   7405         MOV       A,#0x5
   \   000192   12....       LCALL     ?DEALLOC_XSTACK8
   1194          }
   \   000195   740C         MOV       A,#0xc
   \   000197   12....       LCALL     ?DEALLOC_XSTACK8
   \   00019A   7F09         MOV       R7,#0x9
   \   00019C   02....       LJMP      ?BANKED_LEAVE_XDATA

   \                                 In  segment BANKED_CODE, align 1, keep-with-next
   \                     ?Subroutine114:
   \   000000   7901         MOV       R1,#0x1
   \   000002   E5..         MOV       A,?V0
   \   000004   2402         ADD       A,#0x2
   \   000006   FC           MOV       R4,A
   \   000007   E4           CLR       A
   \   000008   35..         ADDC      A,?V1
   \   00000A   FD           MOV       R5,A
   \   00000B   E5..         MOV       A,?V0
   \   00000D   240F         ADD       A,#0xf
   \   00000F   FA           MOV       R2,A
   \   000010   E4           CLR       A
   \   000011   35..         ADDC      A,?V1
   \   000013   FB           MOV       R3,A
   \   000014   22           RET

   \                                 In  segment BANKED_CODE, align 1, keep-with-next
   \                     ?Subroutine15:
   \   000000   F0           MOVX      @DPTR,A
   \   000001                ; Setup parameters for call to function APSME_BindRequest
   \   000001   8C82         MOV       DPL,R4
   \   000003   8D83         MOV       DPH,R5
   \   000005   22           RET

   \                                 In  segment BANKED_CODE, align 1, keep-with-next
   \                     ?Subroutine115:
   \   000000   E5..         MOV       A,?V0
   \   000002   240E         ADD       A,#0xe
   \   000004   F582         MOV       DPL,A
   \   000006   E4           CLR       A
   \   000007   35..         ADDC      A,?V1
   \   000009   F583         MOV       DPH,A
   \   00000B   E0           MOVX      A,@DPTR
   \   00000C   22           RET
   1195          #endif // REFLECTOR
   1196          
   1197          /*********************************************************************
   1198           * @fn      ZDO_UpdateAddrManager
   1199           *
   1200           * @brief   Update the Address Manager.
   1201           *
   1202           * @param   nwkAddr - network address
   1203           * @param   extAddr - extended address
   1204           *
   1205           * @return  none
   1206           */

   \                                 In  segment BANKED_CODE, align 1, keep-with-next
   1207          void ZDO_UpdateAddrManager( uint16 nwkAddr, uint8 *extAddr )
   \                     ZDO_UpdateAddrManager:
   1208          {
   \   000000   C082         PUSH      DPL
   \   000002   C083         PUSH      DPH
   \   000004                ; Saved register size: 2
   \   000004                ; Auto size: 13
   \   000004   74F3         MOV       A,#-0xd
   \   000006   12....       LCALL     ?ALLOC_XSTACK8
   1209            AddrMgrEntry_t addrEntry;
   1210          
   1211            // Update the address manager
   1212            addrEntry.user = ADDRMGR_USER_DEFAULT;
   \   000009   85..82       MOV       DPL,?XSP + 0
   \   00000C   85..83       MOV       DPH,?XSP + 1
   \   00000F   E4           CLR       A
   \   000010   F0           MOVX      @DPTR,A
   1213            addrEntry.nwkAddr = nwkAddr;
   \   000011   04           INC       A
   \   000012   12....       LCALL     ?XSTACK_DISP0_8
   \   000015   12....       LCALL     ??Subroutine180_0 & 0xFFFF
   1214            AddrMgrExtAddrSet( addrEntry.extAddr, extAddr );
   \                     ??CrossCallReturnLabel_352:
   \   000018                ; Setup parameters for call to function AddrMgrExtAddrSet
   \   000018   7403         MOV       A,#0x3
   \   00001A   12....       LCALL     ?XSTACK_DISP0_8
   \   00001D   AA82         MOV       R2,DPL
   \   00001F   AB83         MOV       R3,DPH
   \   000021   12....       LCALL     `??AddrMgrExtAddrSet::?relay`; Banked call to: AddrMgrExtAddrSet
   1215            AddrMgrEntryUpdate( &addrEntry );
   \   000024                ; Setup parameters for call to function AddrMgrEntryUpdate
   \   000024   AA..         MOV       R2,?XSP + 0
   \   000026   AB..         MOV       R3,?XSP + 1
   \   000028   12....       LCALL     `??AddrMgrEntryUpdate::?relay`; Banked call to: AddrMgrEntryUpdate
   1216          }
   \   00002B   740D         MOV       A,#0xd
   \   00002D   12....       LCALL     ?DEALLOC_XSTACK8
   \   000030   02....       LJMP      ?Subroutine0 & 0xFFFF
   1217          
   1218          /*********************************************************************
   1219           * @fn      ZDO_ProcessServerDiscReq
   1220           *
   1221           * @brief   Process the Server_Discovery_req message.
   1222           *
   1223           * @param   inMsg  - incoming message (request)
   1224           *
   1225           * @return  none
   1226           */

   \                                 In  segment BANKED_CODE, align 1, keep-with-next
   1227          void ZDO_ProcessServerDiscReq( zdoIncomingMsg_t *inMsg )
   \                     ZDO_ProcessServerDiscReq:
   1228          {
   \   000000                REQUIRE ?V0
   \   000000                REQUIRE ?V1
   \   000000   74F6         MOV       A,#-0xa
   \   000002   12....       LCALL     ?BANKED_ENTER_XDATA
   \   000005                ; Saved register size: 10
   \   000005                ; Auto size: 0
   \   000005   12....       LCALL     ?Subroutine74 & 0xFFFF
   1229            uint16 serverMask = BUILD_UINT16( inMsg->asdu[0], inMsg->asdu[1] );
   1230            uint16 matchMask = serverMask & ZDO_Config_Node_Descriptor.ServerMask;
   \                     ??CrossCallReturnLabel_122:
   \   000008   F9           MOV       R1,A
   \   000009   EA           MOV       A,R2
   \   00000A   F8           MOV       R0,A
   \   00000B   90....       MOV       DPTR,#ZDO_Config_Node_Descriptor + 8
   \   00000E   E0           MOVX      A,@DPTR
   \   00000F   58           ANL       A,R0
   \   000010   F5..         MOV       ?V0,A
   \   000012   A3           INC       DPTR
   \   000013   E0           MOVX      A,@DPTR
   \   000014   59           ANL       A,R1
   \   000015   F5..         MOV       ?V1,A
   1231          
   1232            if ( matchMask )
   \   000017   E5..         MOV       A,?V0
   \   000019   45..         ORL       A,?V1
   \   00001B   6026         JZ        ??ZDO_ProcessServerDiscReq_0
   1233            {
   1234              ZDP_ServerDiscRsp( inMsg->TransSeq, &(inMsg->srcAddr), ZSUCCESS,
   1235                          ZDAppNwkAddr.addr.shortAddr, matchMask, inMsg->SecurityUse );
   \   00001D                ; Setup parameters for call to function ZDP_ServerDiscRsp
   \   00001D   78..         MOV       R0,#?V0
   \   00001F   12....       LCALL     ?PUSH_XSTACK_I_TWO
   \   000022   90....       MOV       DPTR,#ZDAppNwkAddr
   \   000025   12....       LCALL     ?PUSH_XSTACK8_X_TWO
   \   000028   12....       LCALL     ?Subroutine101 & 0xFFFF
   1236            }
   \                     ??CrossCallReturnLabel_394:
   \   00002B   FD           MOV       R5,A
   \   00002C   7C00         MOV       R4,#0x0
   \   00002E   EE           MOV       A,R6
   \   00002F   12....       LCALL     ??Subroutine184_0 & 0xFFFF
   \                     ??CrossCallReturnLabel_373:
   \   000032   3F           ADDC      A,R7
   \   000033   FB           MOV       R3,A
   \   000034   EE           MOV       A,R6
   \   000035   240F         ADD       A,#0xf
   \   000037   12....       LCALL     ??Subroutine187_0 & 0xFFFF
   \                     ??CrossCallReturnLabel_389:
   \   00003A   F9           MOV       R1,A
   \   00003B   12....       LCALL     `??ZDP_ServerDiscRsp::?relay`; Banked call to: ZDP_ServerDiscRsp
   \   00003E   7404         MOV       A,#0x4
   \   000040   12....       LCALL     ?DEALLOC_XSTACK8
   1237          }
   \                     ??ZDO_ProcessServerDiscReq_0:
   \   000043   02....       LJMP      ??Subroutine173_0 & 0xFFFF

   \                                 In  segment BANKED_CODE, align 1, keep-with-next
   \                     ??Subroutine184_0:
   \   000000   2402         ADD       A,#0x2
   \   000002   FA           MOV       R2,A
   \   000003   E4           CLR       A
   \   000004   22           RET

   \                                 In  segment BANKED_CODE, align 1, keep-with-next
   \                     ?Subroutine74:
   \   000000   12....       LCALL     ?Subroutine144 & 0xFFFF
   \                     ??CrossCallReturnLabel_263:
   \   000003   22           RET
   1238          
   1239          /*********************************************************************
   1240           * Call Back Functions from APS  - API
   1241           */
   1242          
   1243          /*********************************************************************
   1244           * @fn          ZDO_EndDeviceTimeoutCB
   1245           *
   1246           * @brief       This function handles the binding timer for the End
   1247           *              Device Bind command.
   1248           *
   1249           * @param       none
   1250           *
   1251           * @return      none
   1252           */

   \                                 In  segment BANKED_CODE, align 1, keep-with-next
   1253          void ZDO_EndDeviceTimeoutCB( void )
   \                     ZDO_EndDeviceTimeoutCB:
   1254          {
   \   000000                REQUIRE ?V0
   \   000000                REQUIRE ?V1
   \   000000   74F6         MOV       A,#-0xa
   \   000002   12....       LCALL     ?BANKED_ENTER_XDATA
   \   000005                ; Saved register size: 10
   \   000005                ; Auto size: 2
   \   000005   74FE         MOV       A,#-0x2
   \   000007   12....       LCALL     ?ALLOC_XSTACK8
   1255          #if defined ( REFLECTOR )
   1256            byte stat;
   1257            if ( ZDO_EDBind )
   \   00000A   90....       MOV       DPTR,#ZDO_EDBind
   \   00000D   12....       LCALL     ??Subroutine193_0 & 0xFFFF
   \                     ??CrossCallReturnLabel_404:
   \   000010   7003         JNZ       $+5
   \   000012   02....       LJMP      ??ZDO_EndDeviceTimeoutCB_0 & 0xFFFF
   1258            {
   1259              stat = ZDO_EDBind->status;
   1260          
   1261              // Send the response message to the first sent
   1262              ZDO_SendEDBindRsp( ZDO_EDBind->SrcTransSeq, &(ZDO_EDBind->SrcAddr),
   1263                                  stat, ZDO_EDBind->SecurityUse );
   \   000015   E0           MOVX      A,@DPTR
   \   000016   C8           XCH       A,R0
   \   000017   2416         ADD       A,#0x16
   \   000019   12....       LCALL     ?Subroutine123 & 0xFFFF
   \                     ??CrossCallReturnLabel_214:
   \   00001C   85..82       MOV       DPL,?XSP + 0
   \   00001F   85..83       MOV       DPH,?XSP + 1
   \   000022   12....       LCALL     ?Subroutine45 & 0xFFFF
   \                     ??CrossCallReturnLabel_72:
   \   000025   F583         MOV       DPH,A
   \   000027   8882         MOV       DPL,R0
   \   000029   E0           MOVX      A,@DPTR
   \   00002A   C0E0         PUSH      A
   \   00002C   7401         MOV       A,#0x1
   \   00002E   12....       LCALL     ?XSTACK_DISP0_8
   \   000031   D0E0         POP       A
   \   000033   12....       LCALL     ?Subroutine45 & 0xFFFF
   \                     ??CrossCallReturnLabel_71:
   \   000036   C8           XCH       A,R0
   \   000037   2415         ADD       A,#0x15
   \   000039   12....       LCALL     ?Subroutine122 & 0xFFFF
   \                     ??CrossCallReturnLabel_212:
   \   00003C   12....       LCALL     ?PUSH_XSTACK_I_ONE
   \   00003F   7401         MOV       A,#0x1
   \   000041   12....       LCALL     ?XSTACK_DISP100_8
   \   000044   88..         MOV       ?V0,R0
   \   000046   89..         MOV       ?V1,R1
   \   000048   78..         MOV       R0,#?V0
   \   00004A   12....       LCALL     ?PUSH_XSTACK_I_TWO
   \   00004D   75..20       MOV       ?V0,#0x20
   \   000050   75..80       MOV       ?V1,#-0x80
   \   000053   78..         MOV       R0,#?V0
   \   000055   12....       LCALL     ?PUSH_XSTACK_I_TWO
   \   000058   7901         MOV       R1,#0x1
   \   00005A   90....       MOV       DPTR,#ZDO_EDBind
   \   00005D   E0           MOVX      A,@DPTR
   \   00005E   29           ADD       A,R1
   \   00005F   FC           MOV       R4,A
   \   000060   A3           INC       DPTR
   \   000061   E0           MOVX      A,@DPTR
   \   000062   3400         ADDC      A,#0x0
   \   000064   FD           MOV       R5,A
   \   000065   7406         MOV       A,#0x6
   \   000067   12....       LCALL     ?XSTACK_DISP101_8
   \   00006A   12....       LCALL     `??ZDP_SendData::?relay`; Banked call to: ZDP_SendData
   \   00006D   7405         MOV       A,#0x5
   \   00006F   12....       LCALL     ?DEALLOC_XSTACK8
   \   000072                ; Setup parameters for call to function HalLcdWriteString
   \   000072   7901         MOV       R1,#0x1
   \   000074   7A..         MOV       R2,#`?<Constant "End Device Bind">` & 0xff
   \   000076   7B..         MOV       R3,#(`?<Constant "End Device Bind">` >> 8) & 0xff
   \   000078   12....       LCALL     `??HalLcdWriteString::?relay`; Banked call to: HalLcdWriteString
   \   00007B   85..82       MOV       DPL,?XSP + 0
   \   00007E   85..83       MOV       DPH,?XSP + 1
   \   000081   E0           MOVX      A,@DPTR
   \   000082   7902         MOV       R1,#0x2
   \   000084   7006         JNZ       ??ZDO_EndDeviceTimeoutCB_1
   \   000086                ; Setup parameters for call to function HalLcdWriteString
   \   000086   7A..         MOV       R2,#`?<Constant "Success Sent">` & 0xff
   \   000088   7B..         MOV       R3,#(`?<Constant "Success Sent">` >> 8) & 0xff
   \   00008A   8004         SJMP      ??ZDO_EndDeviceTimeoutCB_2
   \                     ??ZDO_EndDeviceTimeoutCB_1:
   \   00008C                ; Setup parameters for call to function HalLcdWriteString
   \   00008C   7A..         MOV       R2,#`?<Constant "Timeout">` & 0xff
   \   00008E   7B..         MOV       R3,#(`?<Constant "Timeout">` >> 8) & 0xff
   \                     ??ZDO_EndDeviceTimeoutCB_2:
   \   000090   12....       LCALL     `??HalLcdWriteString::?relay`; Banked call to: HalLcdWriteString
   1264          
   1265              ZDO_RemoveEndDeviceBind();
   \   000093   90....       MOV       DPTR,#ZDO_EDBind
   \   000096   12....       LCALL     ??Subroutine193_0 & 0xFFFF
   \                     ??CrossCallReturnLabel_405:
   \   000099   602C         JZ        ??ZDO_EndDeviceTimeoutCB_0
   \   00009B   E0           MOVX      A,@DPTR
   \   00009C   C8           XCH       A,R0
   \   00009D   2410         ADD       A,#0x10
   \   00009F   12....       LCALL     ?Subroutine51 & 0xFFFF
   \                     ??CrossCallReturnLabel_312:
   \   0000A2   6003         JZ        ??ZDO_EndDeviceTimeoutCB_3
   \   0000A4                ; Setup parameters for call to function osal_mem_free
   \   0000A4   12....       LCALL     `??osal_mem_free::?relay`; Banked call to: osal_mem_free
   \                     ??ZDO_EndDeviceTimeoutCB_3:
   \   0000A7   90....       MOV       DPTR,#ZDO_EDBind
   \   0000AA   12....       LCALL     ??Subroutine204_0 & 0xFFFF
   \                     ??CrossCallReturnLabel_467:
   \   0000AD   2413         ADD       A,#0x13
   \   0000AF   12....       LCALL     ?Subroutine51 & 0xFFFF
   \                     ??CrossCallReturnLabel_313:
   \   0000B2   6003         JZ        ??ZDO_EndDeviceTimeoutCB_4
   \   0000B4                ; Setup parameters for call to function osal_mem_free
   \   0000B4   12....       LCALL     `??osal_mem_free::?relay`; Banked call to: osal_mem_free
   \                     ??ZDO_EndDeviceTimeoutCB_4:
   \   0000B7                ; Setup parameters for call to function osal_mem_free
   \   0000B7   90....       MOV       DPTR,#ZDO_EDBind
   \   0000BA   12....       LCALL     ??Subroutine194_0 & 0xFFFF
   \                     ??CrossCallReturnLabel_420:
   \   0000BD   12....       LCALL     `??osal_mem_free::?relay`; Banked call to: osal_mem_free
   \   0000C0   90....       MOV       DPTR,#ZDO_EDBind
   \   0000C3   E4           CLR       A
   \   0000C4   F0           MOVX      @DPTR,A
   \   0000C5   A3           INC       DPTR
   \   0000C6   F0           MOVX      @DPTR,A
   1266            }
   1267          #endif  // REFLECTOR
   1268          }
   \                     ??ZDO_EndDeviceTimeoutCB_0:
   \   0000C7   02....       LJMP      ?Subroutine2 & 0xFFFF

   \                                 In  segment BANKED_CODE, align 1, keep-with-next
   \                     ?Subroutine51:
   \   000000   F582         MOV       DPL,A
   \   000002   E4           CLR       A
   \   000003   38           ADDC      A,R0
   \   000004   F583         MOV       DPH,A
   \   000006                REQUIRE ??Subroutine176_0
   \   000006                ; // Fall through to label ??Subroutine176_0

   \                                 In  segment BANKED_CODE, align 1, keep-with-next
   \                     ??Subroutine176_0:
   \   000000   12....       LCALL     ??Subroutine205_0 & 0xFFFF
   \                     ??CrossCallReturnLabel_493:
   \   000003   EA           MOV       A,R2
   \   000004   4B           ORL       A,R3
   \   000005   22           RET

   \                                 In  segment BANKED_CODE, align 1, keep-with-next
   \                     ?Subroutine45:
   \   000000   F0           MOVX      @DPTR,A
   \   000001                ; Setup parameters for call to function ZDP_SendData
   \   000001   90....       MOV       DPTR,#ZDO_EDBind
   \   000004   12....       LCALL     ??Subroutine201_0 & 0xFFFF
   \                     ??CrossCallReturnLabel_502:
   \   000007   22           RET

   \                                 In  segment BANKED_CODE, align 1, keep-with-next
   \                     ?Subroutine123:
   \   000000   12....       LCALL     ?Subroutine157 & 0xFFFF
   \                     ??CrossCallReturnLabel_450:
   \   000003   22           RET
   1269          
   1270          /*********************************************************************
   1271           * Optional Management Messages
   1272           */
   1273          
   1274          /*********************************************************************
   1275           * @fn          ZDO_ProcessMgmtLqiReq
   1276           *
   1277           * @brief       This function handles parsing the incoming Management
   1278           *              LQI request and generate the response.
   1279           *
   1280           *   Note:      This function will limit the number of items returned
   1281           *              to ZDO_MAX_LQI_ITEMS items.
   1282           *
   1283           * @param       inMsg - incoming message (request)
   1284           *
   1285           * @return      none
   1286           */

   \                                 In  segment BANKED_CODE, align 1, keep-with-next
   1287          void ZDO_ProcessMgmtLqiReq( zdoIncomingMsg_t *inMsg )
   \                     ZDO_ProcessMgmtLqiReq:
   1288          {
   \   000000                REQUIRE ?V0
   \   000000                REQUIRE ?V1
   \   000000                REQUIRE ?V2
   \   000000                REQUIRE ?V3
   \   000000                REQUIRE ?V4
   \   000000                REQUIRE ?V5
   \   000000                REQUIRE ?V6
   \   000000                REQUIRE ?V7
   \   000000                REQUIRE ?V8
   \   000000                REQUIRE ?V9
   \   000000                REQUIRE ?V10
   \   000000                REQUIRE ?V11
   \   000000                REQUIRE ?V12
   \   000000                REQUIRE ?V13
   \   000000                REQUIRE ?V14
   \   000000                REQUIRE ?V15
   \   000000   74E8         MOV       A,#-0x18
   \   000002   12....       LCALL     ?BANKED_ENTER_XDATA
   \   000005                ; Saved register size: 24
   \   000005                ; Auto size: 37
   \   000005   74DB         MOV       A,#-0x25
   \   000007   12....       LCALL     ?ALLOC_XSTACK8
   \   00000A   8A..         MOV       ?V14,R2
   \   00000C   8B..         MOV       ?V15,R3
   1289            byte x;
   1290            byte index;
   1291            byte numItems;
   1292            byte maxItems;
   1293            ZDP_MgmtLqiItem_t* table = NULL;
   \   00000E   75..00       MOV       ?V12,#0x0
   \   000011   75..00       MOV       ?V13,#0x0
   1294            ZDP_MgmtLqiItem_t* item;
   1295            neighborEntry_t    entry;
   1296            byte aItems = 0;
   \   000014   75..00       MOV       ?V2,#0x0
   1297            associated_devices_t *aDevice;
   1298            AddrMgrEntry_t  nwkEntry;
   1299            uint8 StartIndex = inMsg->asdu[0];
   \   000017   12....       LCALL     ??Subroutine185_0 & 0xFFFF
   \                     ??CrossCallReturnLabel_383:
   \   00001A   35..         ADDC      A,?V15
   \   00001C   F583         MOV       DPH,A
   \   00001E   12....       LCALL     ??Subroutine168_0 & 0xFFFF
   \                     ??CrossCallReturnLabel_284:
   \   000021   F5..         MOV       ?V6,A
   1300          
   1301            // Get the number of neighbor items
   1302            NLME_GetRequest( nwkNumNeighborTableEntries, 0, &maxItems );
   \   000023                ; Setup parameters for call to function NLME_GetRequest
   \   000023   AC..         MOV       R4,?XSP + 0
   \   000025   AD..         MOV       R5,?XSP + 1
   \   000027   7A00         MOV       R2,#0x0
   \   000029   7B00         MOV       R3,#0x0
   \   00002B   799C         MOV       R1,#-0x64
   \   00002D   12....       LCALL     `??NLME_GetRequest::?relay`; Banked call to: NLME_GetRequest
   1303          
   1304            //Routing devices uses assoc table, end devices don't
   1305            if ( ZG_DEVICE_RTR_TYPE )
   \   000030   90....       MOV       DPTR,#zgDeviceLogicalType
   \   000033   E0           MOVX      A,@DPTR
   \   000034   6004         JZ        ??ZDO_ProcessMgmtLqiReq_0
   \   000036   6401         XRL       A,#0x1
   \   000038   7014         JNZ       ??ZDO_ProcessMgmtLqiReq_1
   1306            {
   1307              // Get the number of associated items
   1308              aItems = (uint8)AssocCount( PARENT, CHILD_FFD_RX_IDLE );
   \                     ??ZDO_ProcessMgmtLqiReq_0:
   \   00003A                ; Setup parameters for call to function AssocCount
   \   00003A   7A04         MOV       R2,#0x4
   \   00003C   7900         MOV       R1,#0x0
   \   00003E   12....       LCALL     `??AssocCount::?relay`; Banked call to: AssocCount
   \   000041   EA           MOV       A,R2
   \   000042   F5..         MOV       ?V2,A
   1309              // Total number of items
   1310              maxItems += aItems;
   \   000044   85..82       MOV       DPL,?XSP + 0
   \   000047   85..83       MOV       DPH,?XSP + 1
   \   00004A   E0           MOVX      A,@DPTR
   \   00004B   2A           ADD       A,R2
   \   00004C   8008         SJMP      ??ZDO_ProcessMgmtLqiReq_2
   1311            }
   1312            else
   1313            {
   1314              maxItems = 1;
   \                     ??ZDO_ProcessMgmtLqiReq_1:
   \   00004E   85..82       MOV       DPL,?XSP + 0
   \   000051   85..83       MOV       DPH,?XSP + 1
   \   000054   7401         MOV       A,#0x1
   \                     ??ZDO_ProcessMgmtLqiReq_2:
   \   000056   F0           MOVX      @DPTR,A
   1315            }
   1316          
   1317            // Start with the supplied index
   1318            if ( maxItems > StartIndex )
   \   000057   E0           MOVX      A,@DPTR
   \   000058   F8           MOV       R0,A
   \   000059   E5..         MOV       A,?V6
   \   00005B   C3           CLR       C
   \   00005C   98           SUBB      A,R0
   \   00005D   4003         JC        $+5
   \   00005F   02....       LJMP      ??ZDO_ProcessMgmtLqiReq_3 & 0xFFFF
   1319            {
   1320              numItems = maxItems - StartIndex;
   \   000062   E0           MOVX      A,@DPTR
   \   000063   C3           CLR       C
   \   000064   95..         SUBB      A,?V6
   \   000066   F5..         MOV       ?V1,A
   1321          
   1322              // limit the size of the list
   1323              if ( numItems > ZDO_MAX_LQI_ITEMS )
   \   000068   C3           CLR       C
   \   000069   9404         SUBB      A,#0x4
   \   00006B   4003         JC        ??ZDO_ProcessMgmtLqiReq_4
   1324              {
   1325                numItems = ZDO_MAX_LQI_ITEMS;
   \   00006D   75..03       MOV       ?V1,#0x3
   1326              }
   1327              
   1328              // Allocate the memory to build the table
   1329              table = (ZDP_MgmtLqiItem_t*)osal_mem_alloc( (short)
   1330                        ( numItems * sizeof( ZDP_MgmtLqiItem_t ) ) );
   \                     ??ZDO_ProcessMgmtLqiReq_4:
   \   000070                ; Setup parameters for call to function osal_mem_alloc
   \   000070   E5..         MOV       A,?V1
   \   000072   75F01A       MOV       B,#0x1a
   \   000075   A4           MUL       AB
   \   000076   FA           MOV       R2,A
   \   000077   ABF0         MOV       R3,B
   \   000079   12....       LCALL     `??osal_mem_alloc::?relay`; Banked call to: osal_mem_alloc
   \   00007C   8A..         MOV       ?V12,R2
   \   00007E   8B..         MOV       ?V13,R3
   1331          
   1332              if ( table != NULL )
   \   000080   EA           MOV       A,R2
   \   000081   45..         ORL       A,?V13
   \   000083   7003         JNZ       $+5
   \   000085   02....       LJMP      ??ZDO_ProcessMgmtLqiReq_5 & 0xFFFF
   1333              {
   1334                x = 0;
   \   000088   75..00       MOV       ?V3,#0x0
   1335                item = table;
   \   00008B   AE..         MOV       R6,?V12
   \   00008D   AF..         MOV       R7,?V13
   1336                index = StartIndex;
   \   00008F   85....       MOV       ?V0,?V6
   \   000092   02....       LJMP      ??ZDO_ProcessMgmtLqiReq_6 & 0xFFFF
   1337          
   1338                // Loop through associated items and build list
   1339                for ( ; x < numItems; x++ )
   1340                {
   1341                  if ( index < aItems )
   1342                  {
   1343                    // get next associated device
   1344                    aDevice = AssocFindDevice( index++ );
   1345          
   1346                    // set basic fields
   1347                    item->panID   = _NIB.nwkPanId;
   1348                    osal_cpyExtAddr( item->extPanID, _NIB.extendedPANID );
   1349                    item->nwkAddr = aDevice->shortAddr;
   1350                    item->permit  = ZDP_MGMT_BOOL_UNKNOWN;
   1351                    item->depth   = 0xFF;
   1352                    item->lqi     = aDevice->linkInfo.rxLqi;
   1353          
   1354                    // set extented address
   1355                    nwkEntry.user    = ADDRMGR_USER_DEFAULT;
   1356                    nwkEntry.nwkAddr = aDevice->shortAddr;
   1357          
   1358                    if ( AddrMgrEntryLookupNwk( &nwkEntry ) == TRUE )
   1359                    {
   1360                      osal_cpyExtAddr( item->extAddr, nwkEntry.extAddr );
   1361                    }
   1362                    else
   1363                    {
   1364                      osal_memset( item->extAddr, 0xFF, Z_EXTADDR_LEN );
   \                     ??ZDO_ProcessMgmtLqiReq_7:
   \   000095                ; Setup parameters for call to function osal_memset
   \   000095   7C08         MOV       R4,#0x8
   \   000097   7D00         MOV       R5,#0x0
   \   000099   79FF         MOV       R1,#-0x1
   \   00009B   AA..         MOV       R2,?V10
   \   00009D   AB..         MOV       R3,?V11
   \   00009F   12....       LCALL     `??osal_memset::?relay`; Banked call to: osal_memset
   1365                    }
   1366          
   1367                    // use association info to set other fields
   1368                    if ( aDevice->nodeRelation == PARENT )
   \                     ??ZDO_ProcessMgmtLqiReq_8:
   \   0000A2   E5..         MOV       A,?V4
   \   0000A4   2404         ADD       A,#0x4
   \   0000A6   F8           MOV       R0,A
   \   0000A7   E4           CLR       A
   \   0000A8   35..         ADDC      A,?V5
   \   0000AA   F9           MOV       R1,A
   \   0000AB   EE           MOV       A,R6
   \   0000AC   2416         ADD       A,#0x16
   \   0000AE   FA           MOV       R2,A
   \   0000AF   E4           CLR       A
   \   0000B0   3F           ADDC      A,R7
   \   0000B1   FB           MOV       R3,A
   \   0000B2   EE           MOV       A,R6
   \   0000B3   2415         ADD       A,#0x15
   \   0000B5   FC           MOV       R4,A
   \   0000B6   E4           CLR       A
   \   0000B7   3F           ADDC      A,R7
   \   0000B8   FD           MOV       R5,A
   \   0000B9   EE           MOV       A,R6
   \   0000BA   2414         ADD       A,#0x14
   \   0000BC   F5..         MOV       ?V10,A
   \   0000BE   E4           CLR       A
   \   0000BF   3F           ADDC      A,R7
   \   0000C0   F5..         MOV       ?V11,A
   \   0000C2   8882         MOV       DPL,R0
   \   0000C4   8983         MOV       DPH,R1
   \   0000C6   E0           MOVX      A,@DPTR
   \   0000C7   702E         JNZ       ??ZDO_ProcessMgmtLqiReq_9
   1369                    {
   1370                      if (  aDevice->shortAddr == 0 )
   \   0000C9   85..82       MOV       DPL,?V4
   \   0000CC   85..83       MOV       DPH,?V5
   \   0000CF   12....       LCALL     ??Subroutine193_0 & 0xFFFF
   \                     ??CrossCallReturnLabel_406:
   \   0000D2   85..82       MOV       DPL,?V10
   \   0000D5   85..83       MOV       DPH,?V11
   \   0000D8   7004         JNZ       ??ZDO_ProcessMgmtLqiReq_10
   1371                      {
   1372                        item->devType = ZDP_MGMT_DT_COORD;
   \   0000DA   E4           CLR       A
   \   0000DB   F0           MOVX      @DPTR,A
   1373                        item->depth = 0;
   \   0000DC   8008         SJMP      ??ZDO_ProcessMgmtLqiReq_11
   1374                      }
   1375                      else
   1376                      {
   1377                        item->devType = ZDP_MGMT_DT_ROUTER;
   \                     ??ZDO_ProcessMgmtLqiReq_10:
   \   0000DE   7401         MOV       A,#0x1
   \   0000E0   F0           MOVX      @DPTR,A
   1378                        item->depth = _NIB.nodeDepth - 1;
   \   0000E1   90....       MOV       DPTR,#_NIB + 52
   \   0000E4   E0           MOVX      A,@DPTR
   \   0000E5   14           DEC       A
   \                     ??ZDO_ProcessMgmtLqiReq_11:
   \   0000E6   85..82       MOV       DPL,?V8
   \   0000E9   85..83       MOV       DPH,?V9
   1379                      }
   1380          
   1381                      item->rxOnIdle = ZDP_MGMT_BOOL_UNKNOWN;
   1382                      item->relation = ZDP_MGMT_REL_PARENT;
   1383                    }
   \   0000EC   12....       LCALL     ?Subroutine15 & 0xFFFF
   \                     ??CrossCallReturnLabel_14:
   \   0000EF   7402         MOV       A,#0x2
   \   0000F1   12....       LCALL     ?Subroutine48 & 0xFFFF
   \                     ??CrossCallReturnLabel_78:
   \   0000F4   E4           CLR       A
   \   0000F5   8033         SJMP      ??ZDO_ProcessMgmtLqiReq_12
   1384                    else
   1385                    {
   1386                      // If not parent, then it's a child
   1387                      item->depth = _NIB.nodeDepth + 1;
   \                     ??ZDO_ProcessMgmtLqiReq_9:
   \   0000F7   90....       MOV       DPTR,#_NIB + 52
   \   0000FA   E0           MOVX      A,@DPTR
   \   0000FB   04           INC       A
   \   0000FC   85..82       MOV       DPL,?V8
   \   0000FF   85..83       MOV       DPH,?V9
   \   000102   12....       LCALL     ?Subroutine44 & 0xFFFF
   1388          
   1389                      if ( aDevice->nodeRelation < CHILD_FFD )
   \                     ??CrossCallReturnLabel_67:
   \   000105   C3           CLR       C
   \   000106   9403         SUBB      A,#0x3
   \   000108   85..82       MOV       DPL,?V10
   \   00010B   85..83       MOV       DPH,?V11
   \   00010E   4003         JC        $+5
   \   000110   02....       LJMP      ??ZDO_ProcessMgmtLqiReq_13 & 0xFFFF
   1390                      {
   1391                        item->devType = ZDP_MGMT_DT_ENDDEV;
   \   000113   7402         MOV       A,#0x2
   \   000115   12....       LCALL     ?Subroutine44 & 0xFFFF
   1392          
   1393                        if ( aDevice->nodeRelation == CHILD_RFD )
   1394                        {
   1395                          item->rxOnIdle = FALSE;
   1396                        }
   1397                        else
   1398                        {
   1399                          item->rxOnIdle = TRUE;
   1400                        }
   1401                      }
   \                     ??CrossCallReturnLabel_68:
   \   000118   6401         XRL       A,#0x1
   \   00011A   7003         JNZ       $+5
   \   00011C   02....       LJMP      ??ZDO_ProcessMgmtLqiReq_14 & 0xFFFF
   1402                      else
   1403                      {
   1404                        item->devType = ZDP_MGMT_DT_ROUTER;
   1405          
   1406                        if ( aDevice->nodeRelation == CHILD_FFD )
   1407                        {
   1408                          item->rxOnIdle = FALSE;
   1409                        }
   1410                        else
   1411                        {
   1412                          item->rxOnIdle = TRUE;
   \                     ??ZDO_ProcessMgmtLqiReq_15:
   \   00011F   8C82         MOV       DPL,R4
   \   000121   8D83         MOV       DPH,R5
   \   000123   7401         MOV       A,#0x1
   1413                        }
   \                     ??ZDO_ProcessMgmtLqiReq_16:
   \   000125   12....       LCALL     ?Subroutine48 & 0xFFFF
   1414                      }
   1415          
   1416                      item->relation = ZDP_MGMT_REL_CHILD;
   \                     ??CrossCallReturnLabel_79:
   \   000128   7401         MOV       A,#0x1
   \                     ??ZDO_ProcessMgmtLqiReq_12:
   \   00012A   F0           MOVX      @DPTR,A
   1417                    }
   1418          
   1419                    item++;
   \   00012B   EE           MOV       A,R6
   \   00012C   241A         ADD       A,#0x1a
   \   00012E   FE           MOV       R6,A
   \   00012F   5001         JNC       ??ZDO_ProcessMgmtLqiReq_17
   \   000131   0F           INC       R7
   \                     ??ZDO_ProcessMgmtLqiReq_17:
   \   000132   05..         INC       ?V3
   \                     ??ZDO_ProcessMgmtLqiReq_6:
   \   000134   E5..         MOV       A,?V3
   \   000136   C3           CLR       C
   \   000137   95..         SUBB      A,?V1
   \   000139   4003         JC        $+5
   \   00013B   02....       LJMP      ??ZDO_ProcessMgmtLqiReq_18 & 0xFFFF
   \   00013E   E5..         MOV       A,?V0
   \   000140   C3           CLR       C
   \   000141   95..         SUBB      A,?V2
   \   000143   4003         JC        $+5
   \   000145   02....       LJMP      ??ZDO_ProcessMgmtLqiReq_19 & 0xFFFF
   \   000148                ; Setup parameters for call to function AssocFindDevice
   \   000148   AA..         MOV       R2,?V0
   \   00014A   7B00         MOV       R3,#0x0
   \   00014C   12....       LCALL     `??AssocFindDevice::?relay`; Banked call to: AssocFindDevice
   \   00014F   8A..         MOV       ?V4,R2
   \   000151   8B..         MOV       ?V5,R3
   \   000153   05..         INC       ?V0
   \   000155   90....       MOV       DPTR,#_NIB + 33
   \   000158   12....       LCALL     ?Subroutine12 & 0xFFFF
   \                     ??CrossCallReturnLabel_6:
   \   00015B   12....       LCALL     `??sAddrExtCpy::?relay`; Banked call to: sAddrExtCpy
   \   00015E   85..82       MOV       DPL,?V4
   \   000161   85..83       MOV       DPH,?V5
   \   000164   12....       LCALL     ??Subroutine177_0 & 0xFFFF
   \                     ??CrossCallReturnLabel_323:
   \   000167   EE           MOV       A,R6
   \   000168   2412         ADD       A,#0x12
   \   00016A   F582         MOV       DPL,A
   \   00016C   E4           CLR       A
   \   00016D   3F           ADDC      A,R7
   \   00016E   F583         MOV       DPH,A
   \   000170   E8           MOV       A,R0
   \   000171   F0           MOVX      @DPTR,A
   \   000172   A3           INC       DPTR
   \   000173   E9           MOV       A,R1
   \   000174   12....       LCALL     ?Subroutine19 & 0xFFFF
   \                     ??CrossCallReturnLabel_24:
   \   000177   EE           MOV       A,R6
   \   000178   2418         ADD       A,#0x18
   \   00017A   12....       LCALL     ?Subroutine103 & 0xFFFF
   \                     ??CrossCallReturnLabel_163:
   \   00017D   74FF         MOV       A,#-0x1
   \   00017F   F0           MOVX      @DPTR,A
   \   000180   85..82       MOV       DPL,?V4
   \   000183   85..83       MOV       DPH,?V5
   \   000186   A3           INC       DPTR
   \   000187   A3           INC       DPTR
   \   000188   A3           INC       DPTR
   \   000189   A3           INC       DPTR
   \   00018A   A3           INC       DPTR
   \   00018B   A3           INC       DPTR
   \   00018C   A3           INC       DPTR
   \   00018D   A3           INC       DPTR
   \   00018E   A3           INC       DPTR
   \   00018F   A3           INC       DPTR
   \   000190   E0           MOVX      A,@DPTR
   \   000191   C0E0         PUSH      A
   \   000193   12....       LCALL     ?Subroutine132 & 0xFFFF
   \                     ??CrossCallReturnLabel_237:
   \   000196   D0E0         POP       A
   \   000198   F0           MOVX      @DPTR,A
   \   000199   7401         MOV       A,#0x1
   \   00019B   12....       LCALL     ?XSTACK_DISP0_8
   \   00019E   E4           CLR       A
   \   00019F   F0           MOVX      @DPTR,A
   \   0001A0   85..82       MOV       DPL,?V4
   \   0001A3   85..83       MOV       DPH,?V5
   \   0001A6   12....       LCALL     ??Subroutine177_0 & 0xFFFF
   \                     ??CrossCallReturnLabel_324:
   \   0001A9   7402         MOV       A,#0x2
   \   0001AB   12....       LCALL     ?XSTACK_DISP0_8
   \   0001AE   12....       LCALL     ??Subroutine178_0 & 0xFFFF
   \                     ??CrossCallReturnLabel_338:
   \   0001B1   EE           MOV       A,R6
   \   0001B2   240A         ADD       A,#0xa
   \   0001B4   F5..         MOV       ?V10,A
   \   0001B6   E4           CLR       A
   \   0001B7   3F           ADDC      A,R7
   \   0001B8   F5..         MOV       ?V11,A
   \   0001BA                ; Setup parameters for call to function AddrMgrEntryLookupNwk
   \   0001BA   7401         MOV       A,#0x1
   \   0001BC   12....       LCALL     ?XSTACK_DISP101_8
   \   0001BF   12....       LCALL     `??AddrMgrEntryLookupNwk::?relay`; Banked call to: AddrMgrEntryLookupNwk
   \   0001C2   E9           MOV       A,R1
   \   0001C3   6401         XRL       A,#0x1
   \   0001C5   6003         JZ        $+5
   \   0001C7   02....       LJMP      ??ZDO_ProcessMgmtLqiReq_7 & 0xFFFF
   \   0001CA                ; Setup parameters for call to function sAddrExtCpy
   \   0001CA   7404         MOV       A,#0x4
   \   0001CC   12....       LCALL     ?XSTACK_DISP0_8
   \   0001CF   AC82         MOV       R4,DPL
   \   0001D1   AD83         MOV       R5,DPH
   \   0001D3   AA..         MOV       R2,?V10
   \   0001D5   AB..         MOV       R3,?V11
   \   0001D7   12....       LCALL     `??sAddrExtCpy::?relay`; Banked call to: sAddrExtCpy
   \   0001DA   02....       LJMP      ??ZDO_ProcessMgmtLqiReq_8 & 0xFFFF
   \                     ??ZDO_ProcessMgmtLqiReq_13:
   \   0001DD   7401         MOV       A,#0x1
   \   0001DF   12....       LCALL     ?Subroutine44 & 0xFFFF
   \                     ??CrossCallReturnLabel_69:
   \   0001E2   6403         XRL       A,#0x3
   \   0001E4   6003         JZ        $+5
   \   0001E6   02....       LJMP      ??ZDO_ProcessMgmtLqiReq_15 & 0xFFFF
   \                     ??ZDO_ProcessMgmtLqiReq_14:
   \   0001E9   8C82         MOV       DPL,R4
   \   0001EB   8D83         MOV       DPH,R5
   \   0001ED   E4           CLR       A
   \   0001EE   02....       LJMP      ??ZDO_ProcessMgmtLqiReq_16 & 0xFFFF
   1420                  }
   1421                  else
   1422                  {
   1423                    if ( StartIndex <= aItems )
   \                     ??ZDO_ProcessMgmtLqiReq_19:
   \   0001F1   E5..         MOV       A,?V2
   \   0001F3   C3           CLR       C
   \   0001F4   95..         SUBB      A,?V6
   \   0001F6   4005         JC        ??ZDO_ProcessMgmtLqiReq_20
   1424                      // Start with 1st neighbor
   1425                      index = 0;
   \   0001F8   75..00       MOV       ?V0,#0x0
   \   0001FB   8058         SJMP      ??ZDO_ProcessMgmtLqiReq_21
   1426                    else
   1427                      // Start with >1st neighbor
   1428                      index = StartIndex - aItems;
   \                     ??ZDO_ProcessMgmtLqiReq_20:
   \   0001FD   E5..         MOV       A,?V6
   \   0001FF   C3           CLR       C
   \   000200   95..         SUBB      A,?V2
   \   000202   F5..         MOV       ?V0,A
   \   000204   804F         SJMP      ??ZDO_ProcessMgmtLqiReq_21
   1429                    break;
   1430                  }
   1431                }
   1432          
   1433                // Loop through neighbor items and finish list
   1434                for ( ; x < numItems; x++ )
   1435                {
   1436                  // Add next neighbor table item
   1437                  NLME_GetRequest( nwkNeighborTable, index++, &entry );
   1438          
   1439                  // set ZDP_MgmtLqiItem_t fields
   1440                  item->panID    = entry.panId;
   1441                  osal_cpyExtAddr( item->extPanID, _NIB.extendedPANID );
   1442                  osal_cpyExtAddr( item->extAddr, entry.neighborExtAddr);
   1443                  item->nwkAddr  = entry.neighborAddress;
   1444          
   1445                  if ( ZG_DEVICE_RTR_TYPE )
   1446                  {
   1447                    item->rxOnIdle = ZDP_MGMT_BOOL_UNKNOWN;
   1448                    item->relation = ZDP_MGMT_REL_UNKNOWN;
   1449                    item->depth    = 0xFF;
   1450                  }
   1451                  else
   1452                  {
   1453                    //end devices knows this for sure
   1454                    item->rxOnIdle = ZDP_MGMT_BOOL_RECEIVER_ON;
   \                     ??ZDO_ProcessMgmtLqiReq_22:
   \   000206   85..82       MOV       DPL,?V4
   \   000209   85..83       MOV       DPH,?V5
   \   00020C   E4           CLR       A
   \   00020D   12....       LCALL     ?Subroutine15 & 0xFFFF
   1455                    item->relation = ZDP_MGMT_REL_PARENT;
   \                     ??CrossCallReturnLabel_15:
   \   000210   F0           MOVX      @DPTR,A
   1456                    item->depth = _NIB.nodeDepth - 1;
   \   000211   90....       MOV       DPTR,#_NIB + 52
   \   000214   E0           MOVX      A,@DPTR
   \   000215   14           DEC       A
   \   000216   8A82         MOV       DPL,R2
   \   000218   8B83         MOV       DPH,R3
   1457                  }
   \                     ??ZDO_ProcessMgmtLqiReq_23:
   \   00021A   12....       LCALL     ?Subroutine19 & 0xFFFF
   1458                  item->permit   = ZDP_MGMT_BOOL_UNKNOWN;
   1459                  item->lqi      = entry.linkInfo.rxLqi;
   \                     ??CrossCallReturnLabel_25:
   \   00021D   741D         MOV       A,#0x1d
   \   00021F   12....       LCALL     ?XSTACK_DISP0_8
   \   000222   E0           MOVX      A,@DPTR
   \   000223   C0E0         PUSH      A
   \   000225   12....       LCALL     ?Subroutine132 & 0xFFFF
   \                     ??CrossCallReturnLabel_238:
   \   000228   D0E0         POP       A
   \   00022A   F0           MOVX      @DPTR,A
   1460          
   1461                  if ( item->nwkAddr == 0 )
   \   00022B   EE           MOV       A,R6
   \   00022C   2414         ADD       A,#0x14
   \   00022E   FA           MOV       R2,A
   \   00022F   E4           CLR       A
   \   000230   3F           ADDC      A,R7
   \   000231   FB           MOV       R3,A
   \   000232   8882         MOV       DPL,R0
   \   000234   8983         MOV       DPH,R1
   \   000236   12....       LCALL     ??Subroutine193_0 & 0xFFFF
   \                     ??CrossCallReturnLabel_407:
   \   000239   8A82         MOV       DPL,R2
   \   00023B   8B83         MOV       DPH,R3
   \   00023D   7003         JNZ       ??ZDO_ProcessMgmtLqiReq_24
   1462                  {
   1463                    item->devType = ZDP_MGMT_DT_COORD;
   \   00023F   E4           CLR       A
   \   000240   8002         SJMP      ??ZDO_ProcessMgmtLqiReq_25
   1464                  }
   1465                  else
   1466                  {
   1467                    item->devType = ZDP_MGMT_DT_ROUTER;
   \                     ??ZDO_ProcessMgmtLqiReq_24:
   \   000242   7401         MOV       A,#0x1
   \                     ??ZDO_ProcessMgmtLqiReq_25:
   \   000244   F0           MOVX      @DPTR,A
   1468                  }
   1469          
   1470                  item++;
   \   000245   EE           MOV       A,R6
   \   000246   241A         ADD       A,#0x1a
   \   000248   FE           MOV       R6,A
   \   000249   5001         JNC       ??ZDO_ProcessMgmtLqiReq_26
   \   00024B   0F           INC       R7
   \                     ??ZDO_ProcessMgmtLqiReq_26:
   \   00024C   05..         INC       ?V3
   \                     ??ZDO_ProcessMgmtLqiReq_18:
   \   00024E   E5..         MOV       A,?V3
   \   000250   C3           CLR       C
   \   000251   95..         SUBB      A,?V1
   \   000253   507D         JNC       ??ZDO_ProcessMgmtLqiReq_5
   \                     ??ZDO_ProcessMgmtLqiReq_21:
   \   000255                ; Setup parameters for call to function NLME_GetRequest
   \   000255   740E         MOV       A,#0xe
   \   000257   12....       LCALL     ?XSTACK_DISP102_8
   \   00025A   AA..         MOV       R2,?V0
   \   00025C   7B00         MOV       R3,#0x0
   \   00025E   7987         MOV       R1,#-0x79
   \   000260   12....       LCALL     `??NLME_GetRequest::?relay`; Banked call to: NLME_GetRequest
   \   000263   05..         INC       ?V0
   \   000265   7418         MOV       A,#0x18
   \   000267   12....       LCALL     ?XSTACK_DISP0_8
   \   00026A   12....       LCALL     ?Subroutine12 & 0xFFFF
   \                     ??CrossCallReturnLabel_7:
   \   00026D   12....       LCALL     `??sAddrExtCpy::?relay`; Banked call to: sAddrExtCpy
   \   000270                ; Setup parameters for call to function sAddrExtCpy
   \   000270   7410         MOV       A,#0x10
   \   000272   12....       LCALL     ?XSTACK_DISP0_8
   \   000275   AC82         MOV       R4,DPL
   \   000277   AD83         MOV       R5,DPH
   \   000279   12....       LCALL     ?Subroutine127 & 0xFFFF
   \                     ??CrossCallReturnLabel_574:
   \   00027C   3F           ADDC      A,R7
   \   00027D   FB           MOV       R3,A
   \   00027E   12....       LCALL     `??sAddrExtCpy::?relay`; Banked call to: sAddrExtCpy
   \   000281   EE           MOV       A,R6
   \   000282   2412         ADD       A,#0x12
   \   000284   F8           MOV       R0,A
   \   000285   E4           CLR       A
   \   000286   3F           ADDC      A,R7
   \   000287   F9           MOV       R1,A
   \   000288   740E         MOV       A,#0xe
   \   00028A   12....       LCALL     ?XSTACK_DISP0_8
   \   00028D   12....       LCALL     ??Subroutine194_0 & 0xFFFF
   \                     ??CrossCallReturnLabel_421:
   \   000290   8882         MOV       DPL,R0
   \   000292   8983         MOV       DPH,R1
   \   000294   12....       LCALL     ??Subroutine180_0 & 0xFFFF
   \                     ??CrossCallReturnLabel_353:
   \   000297   EE           MOV       A,R6
   \   000298   2418         ADD       A,#0x18
   \   00029A   FA           MOV       R2,A
   \   00029B   E4           CLR       A
   \   00029C   3F           ADDC      A,R7
   \   00029D   FB           MOV       R3,A
   \   00029E   EE           MOV       A,R6
   \   00029F   2416         ADD       A,#0x16
   \   0002A1   FC           MOV       R4,A
   \   0002A2   E4           CLR       A
   \   0002A3   3F           ADDC      A,R7
   \   0002A4   FD           MOV       R5,A
   \   0002A5   EE           MOV       A,R6
   \   0002A6   2415         ADD       A,#0x15
   \   0002A8   F5..         MOV       ?V4,A
   \   0002AA   E4           CLR       A
   \   0002AB   3F           ADDC      A,R7
   \   0002AC   F5..         MOV       ?V5,A
   \   0002AE   90....       MOV       DPTR,#zgDeviceLogicalType
   \   0002B1   E0           MOVX      A,@DPTR
   \   0002B2   6007         JZ        ??ZDO_ProcessMgmtLqiReq_27
   \   0002B4   6401         XRL       A,#0x1
   \   0002B6   6003         JZ        $+5
   \   0002B8   02....       LJMP      ??ZDO_ProcessMgmtLqiReq_22 & 0xFFFF
   \                     ??ZDO_ProcessMgmtLqiReq_27:
   \   0002BB   85..82       MOV       DPL,?V4
   \   0002BE   85..83       MOV       DPH,?V5
   \   0002C1   7402         MOV       A,#0x2
   \   0002C3   12....       LCALL     ?Subroutine15 & 0xFFFF
   1471                }
   1472              }
   1473            }
   \                     ??CrossCallReturnLabel_16:
   \   0002C6   04           INC       A
   \   0002C7   12....       LCALL     ?Subroutine48 & 0xFFFF
   \                     ??CrossCallReturnLabel_80:
   \   0002CA   74FF         MOV       A,#-0x1
   \   0002CC   02....       LJMP      ??ZDO_ProcessMgmtLqiReq_23 & 0xFFFF
   1474            else
   1475            {
   1476              numItems = 0;
   \                     ??ZDO_ProcessMgmtLqiReq_3:
   \   0002CF   75..00       MOV       ?V1,#0x0
   1477            }
   1478          
   1479            // Send response
   1480            ZDP_MgmtLqiRsp( inMsg->TransSeq, &(inMsg->srcAddr), ZSuccess, maxItems,
   1481                            StartIndex, numItems, table, false );
   \                     ??ZDO_ProcessMgmtLqiReq_5:
   \   0002D2                ; Setup parameters for call to function ZDP_MgmtLqiRsp
   \   0002D2   75..00       MOV       ?V2,#0x0
   \   0002D5   78..         MOV       R0,#?V2
   \   0002D7   12....       LCALL     ?PUSH_XSTACK_I_ONE
   \   0002DA   78..         MOV       R0,#?V12
   \   0002DC   12....       LCALL     ?PUSH_XSTACK_I_TWO
   \   0002DF   78..         MOV       R0,#?V1
   \   0002E1   12....       LCALL     ?PUSH_XSTACK_I_ONE
   \   0002E4   E5..         MOV       A,?V6
   \   0002E6   F5..         MOV       ?V1,A
   \   0002E8   78..         MOV       R0,#?V1
   \   0002EA   12....       LCALL     ?PUSH_XSTACK_I_ONE
   \   0002ED   7405         MOV       A,#0x5
   \   0002EF   12....       LCALL     ?XSTACK_DISP0_8
   \   0002F2   E0           MOVX      A,@DPTR
   \   0002F3   FD           MOV       R5,A
   \   0002F4   7C00         MOV       R4,#0x0
   \   0002F6   E5..         MOV       A,?V14
   \   0002F8   12....       LCALL     ??Subroutine184_0 & 0xFFFF
   \                     ??CrossCallReturnLabel_374:
   \   0002FB   35..         ADDC      A,?V15
   \   0002FD   FB           MOV       R3,A
   \   0002FE   E5..         MOV       A,?V14
   \   000300   12....       LCALL     ?Subroutine120 & 0xFFFF
   \                     ??CrossCallReturnLabel_204:
   \   000303   35..         ADDC      A,?V15
   \   000305   F583         MOV       DPH,A
   \   000307   E0           MOVX      A,@DPTR
   \   000308   F9           MOV       R1,A
   \   000309   12....       LCALL     `??ZDP_MgmtLqiRsp::?relay`; Banked call to: ZDP_MgmtLqiRsp
   \   00030C   7405         MOV       A,#0x5
   \   00030E   12....       LCALL     ?DEALLOC_XSTACK8
   1482          
   1483            if ( table )
   \   000311   E5..         MOV       A,?V12
   \   000313   45..         ORL       A,?V13
   \   000315   6007         JZ        ??ZDO_ProcessMgmtLqiReq_28
   1484            {
   1485              osal_mem_free( table );
   \   000317                ; Setup parameters for call to function osal_mem_free
   \   000317   AA..         MOV       R2,?V12
   \   000319   AB..         MOV       R3,?V13
   \   00031B   12....       LCALL     `??osal_mem_free::?relay`; Banked call to: osal_mem_free
   1486            }
   1487          }
   \                     ??ZDO_ProcessMgmtLqiReq_28:
   \   00031E   7425         MOV       A,#0x25
   \   000320   02....       LJMP      ?Subroutine6 & 0xFFFF

   \                                 In  segment BANKED_CODE, align 1, keep-with-next
   \                     ?Subroutine132:
   \   000000   EE           MOV       A,R6
   \   000001   2419         ADD       A,#0x19
   \   000003   F582         MOV       DPL,A
   \   000005   E4           CLR       A
   \   000006   3F           ADDC      A,R7
   \   000007   F583         MOV       DPH,A
   \   000009   22           RET

   \                                 In  segment BANKED_CODE, align 1, keep-with-next
   \                     ?Subroutine19:
   \   000000   F0           MOVX      @DPTR,A
   \   000001   EE           MOV       A,R6
   \   000002   2417         ADD       A,#0x17
   \   000004   F582         MOV       DPL,A
   \   000006   E4           CLR       A
   \   000007   3F           ADDC      A,R7
   \   000008   F583         MOV       DPH,A
   \   00000A   7402         MOV       A,#0x2
   \   00000C   F0           MOVX      @DPTR,A
   \   00000D   22           RET

   \                                 In  segment BANKED_CODE, align 1, keep-with-next
   \                     ?Subroutine12:
   \   000000   12....       LCALL     ?Subroutine153 & 0xFFFF
   \                     ??CrossCallReturnLabel_268:
   \   000003   E8           MOV       A,R0
   \   000004   F0           MOVX      @DPTR,A
   \   000005   A3           INC       DPTR
   \   000006   E9           MOV       A,R1
   \   000007   F0           MOVX      @DPTR,A
   \   000008                ; Setup parameters for call to function sAddrExtCpy
   \   000008                ; Setup parameters for call to function sAddrExtCpy
   \   000008   7C..         MOV       R4,#(_NIB + 53) & 0xff
   \   00000A   7D..         MOV       R5,#((_NIB + 53) >> 8) & 0xff
   \   00000C   EE           MOV       A,R6
   \   00000D   2402         ADD       A,#0x2
   \   00000F   FA           MOV       R2,A
   \   000010   E4           CLR       A
   \   000011   3F           ADDC      A,R7
   \   000012   FB           MOV       R3,A
   \   000013   22           RET

   \                                 In  segment BANKED_CODE, align 1, keep-with-next
   \                     ?Subroutine120:
   \   000000   240F         ADD       A,#0xf
   \   000002   F582         MOV       DPL,A
   \   000004   E4           CLR       A
   \   000005   22           RET

   \                                 In  segment BANKED_CODE, align 1, keep-with-next
   \                     ??Subroutine185_0:
   \   000000   EA           MOV       A,R2
   \   000001                REQUIRE ??Subroutine186_0
   \   000001                ; // Fall through to label ??Subroutine186_0

   \                                 In  segment BANKED_CODE, align 1, keep-with-next
   \                     ?Subroutine103:
   \   000000   F5..         MOV       ?V8,A
   \   000002   E4           CLR       A
   \   000003   3F           ADDC      A,R7
   \   000004   F5..         MOV       ?V9,A
   \   000006   85..82       MOV       DPL,?V8
   \   000009   F583         MOV       DPH,A
   \   00000B   22           RET

   \                                 In  segment BANKED_CODE, align 1, keep-with-next
   \                     ?Subroutine48:
   \   000000   12....       LCALL     ?Subroutine140 & 0xFFFF
   \                     ??CrossCallReturnLabel_255:
   \   000003   22           RET

   \                                 In  segment BANKED_CODE, align 1, keep-with-next
   \                     ?Subroutine140:
   \   000000   F0           MOVX      @DPTR,A
   \   000001   8A82         MOV       DPL,R2
   \   000003   8B83         MOV       DPH,R3
   \   000005   22           RET

   \                                 In  segment BANKED_CODE, align 1, keep-with-next
   \                     ?Subroutine44:
   \   000000   12....       LCALL     ?Subroutine139 & 0xFFFF
   \                     ??CrossCallReturnLabel_252:
   \   000003   22           RET

   \                                 In  segment BANKED_CODE, align 1, keep-with-next
   \                     ?Subroutine139:
   \   000000   F0           MOVX      @DPTR,A
   \   000001   8882         MOV       DPL,R0
   \   000003   8983         MOV       DPH,R1
   \   000005   E0           MOVX      A,@DPTR
   \   000006   22           RET
   1488          
   1489          /*********************************************************************
   1490           * @fn          ZDO_ProcessMgmtNwkDiscReq
   1491           *
   1492           * @brief       This function handles parsing the incoming Management
   1493           *              Network Discover request and starts the request.
   1494           *
   1495           * @param       inMsg - incoming message (request)
   1496           *
   1497           * @return      none
   1498           */

   \                                 In  segment BANKED_CODE, align 1, keep-with-next
   1499          void ZDO_ProcessMgmtNwkDiscReq( zdoIncomingMsg_t *inMsg )
   \                     ZDO_ProcessMgmtNwkDiscReq:
   1500          {
   \   000000                REQUIRE ?V0
   \   000000                REQUIRE ?V1
   \   000000   74F6         MOV       A,#-0xa
   \   000002   12....       LCALL     ?BANKED_ENTER_XDATA
   \   000005                ; Saved register size: 10
   \   000005                ; Auto size: 7
   \   000005   74F9         MOV       A,#-0x7
   \   000007   12....       LCALL     ?ALLOC_XSTACK8
   \   00000A   12....       LCALL     ?Subroutine113 & 0xFFFF
   1501            NLME_ScanFields_t scan;
   1502            uint8             index;
   1503            uint8             *msg;
   1504          
   1505            msg = inMsg->asdu;
   \                     ??CrossCallReturnLabel_380:
   \   00000D   35..         ADDC      A,?V1
   \   00000F   12....       LCALL     ?Subroutine79 & 0xFFFF
   1506            scan.channels = osal_build_uint32( msg, 4 );
   \                     ??CrossCallReturnLabel_128:
   \   000012   12....       LCALL     `??osal_build_uint32::?relay`; Banked call to: osal_build_uint32
   \   000015   EA           MOV       A,R2
   \   000016   F8           MOV       R0,A
   \   000017   EB           MOV       A,R3
   \   000018   F9           MOV       R1,A
   \   000019   EC           MOV       A,R4
   \   00001A   FA           MOV       R2,A
   \   00001B   ED           MOV       A,R5
   \   00001C   FB           MOV       R3,A
   \   00001D   85..82       MOV       DPL,?XSP + 0
   \   000020   85..83       MOV       DPH,?XSP + 1
   \   000023   12....       LCALL     ?XSTORE_R0123
   1507            msg += 4;
   1508            scan.duration = *msg++;
   \   000026   8E82         MOV       DPL,R6
   \   000028   8F83         MOV       DPH,R7
   \   00002A   A3           INC       DPTR
   \   00002B   A3           INC       DPTR
   \   00002C   A3           INC       DPTR
   \   00002D   A3           INC       DPTR
   \   00002E   E0           MOVX      A,@DPTR
   \   00002F   C0E0         PUSH      A
   \   000031   7404         MOV       A,#0x4
   \   000033   12....       LCALL     ?XSTACK_DISP0_8
   \   000036   D0E0         POP       A
   \   000038   12....       LCALL     ?Subroutine32 & 0xFFFF
   1509            index         = *msg;
   \                     ??CrossCallReturnLabel_41:
   \   00003B   F8           MOV       R0,A
   1510            scan.scanType = ZMAC_ACTIVE_SCAN;
   \   00003C   7405         MOV       A,#0x5
   \   00003E   12....       LCALL     ?XSTACK_DISP0_8
   \   000041   7401         MOV       A,#0x1
   \   000043   F0           MOVX      @DPTR,A
   1511            scan.scanApp  = NLME_DISC_SCAN;
   \   000044   7406         MOV       A,#0x6
   \   000046   12....       LCALL     ?XSTACK_DISP0_8
   \   000049   7401         MOV       A,#0x1
   \   00004B   F0           MOVX      @DPTR,A
   1512          
   1513            // Save off the information to be used for the response
   1514            zdappMgmtNwkDiscReqInProgress          = true;
   \   00004C   90....       MOV       DPTR,#zdappMgmtNwkDiscReqInProgress
   \   00004F   F0           MOVX      @DPTR,A
   1515            zdappMgmtNwkDiscRspAddr.addrMode       = Addr16Bit;
   \   000050   90....       MOV       DPTR,#zdappMgmtNwkDiscRspAddr + 8
   \   000053   04           INC       A
   \   000054   F0           MOVX      @DPTR,A
   1516            zdappMgmtNwkDiscRspAddr.addr.shortAddr = inMsg->srcAddr.addr.shortAddr;
   \   000055   85..82       MOV       DPL,?V0
   \   000058   85..83       MOV       DPH,?V1
   \   00005B   A3           INC       DPTR
   \   00005C   A3           INC       DPTR
   \   00005D   12....       LCALL     ??Subroutine194_0 & 0xFFFF
   \                     ??CrossCallReturnLabel_422:
   \   000060   90....       MOV       DPTR,#zdappMgmtNwkDiscRspAddr
   \   000063   12....       LCALL     ??Subroutine180_0 & 0xFFFF
   1517            zdappMgmtNwkDiscStartIndex             = index;
   \                     ??CrossCallReturnLabel_354:
   \   000066   E8           MOV       A,R0
   \   000067   90....       MOV       DPTR,#zdappMgmtNwkDiscStartIndex
   \   00006A   F0           MOVX      @DPTR,A
   1518            zdappMgmtNwkDiscRspTransSeq            = inMsg->TransSeq;
   \   00006B   12....       LCALL     ?Subroutine119 & 0xFFFF
   \                     ??CrossCallReturnLabel_202:
   \   00006E   E0           MOVX      A,@DPTR
   \   00006F   90....       MOV       DPTR,#zdappMgmtNwkDiscRspTransSeq
   \   000072   F0           MOVX      @DPTR,A
   1519          
   1520            if ( NLME_NwkDiscReq2( &scan ) != ZSuccess )
   \   000073                ; Setup parameters for call to function NLME_NwkDiscReq2
   \   000073   AA..         MOV       R2,?XSP + 0
   \   000075   AB..         MOV       R3,?XSP + 1
   \   000077   12....       LCALL     `??NLME_NwkDiscReq2::?relay`; Banked call to: NLME_NwkDiscReq2
   \   00007A   E9           MOV       A,R1
   \   00007B   6003         JZ        ??ZDO_ProcessMgmtNwkDiscReq_0
   1521            {
   1522              NLME_NwkDiscTerm();
   \   00007D                ; Setup parameters for call to function NLME_NwkDiscTerm
   \   00007D   12....       LCALL     `??NLME_NwkDiscTerm::?relay`; Banked call to: NLME_NwkDiscTerm
   1523          
   1524              // zdappMgmtNwkDiscReqInProgress will be reset in the confirm callback
   1525            }
   1526          }
   \                     ??ZDO_ProcessMgmtNwkDiscReq_0:
   \   000080   7407         MOV       A,#0x7
   \   000082   02....       LJMP      ??Subroutine172_0 & 0xFFFF

   \                                 In  segment BANKED_CODE, align 1, keep-with-next
   \                     ?Subroutine113:
   \   000000   8A..         MOV       ?V0,R2
   \   000002   8B..         MOV       ?V1,R3
   \   000004                REQUIRE ??Subroutine185_0
   \   000004                ; // Fall through to label ??Subroutine185_0

   \                                 In  segment BANKED_CODE, align 1, keep-with-next
   \                     ?Subroutine32:
   \   000000   12....       LCALL     ?Subroutine137 & 0xFFFF
   \                     ??CrossCallReturnLabel_246:
   \   000003   E0           MOVX      A,@DPTR
   \   000004   22           RET

   \                                 In  segment BANKED_CODE, align 1, keep-with-next
   \                     ?Subroutine119:
   \   000000   E5..         MOV       A,?V0
   \   000002   240F         ADD       A,#0xf
   \   000004   F582         MOV       DPL,A
   \   000006   E4           CLR       A
   \   000007   35..         ADDC      A,?V1
   \   000009   F583         MOV       DPH,A
   \   00000B   22           RET

   \                                 In  segment BANKED_CODE, align 1, keep-with-next
   \                     ?Subroutine137:
   \   000000   12....       LCALL     ?Subroutine160 & 0xFFFF
   \                     ??CrossCallReturnLabel_279:
   \   000003   A3           INC       DPTR
   \   000004   A3           INC       DPTR
   \   000005   22           RET

   \                                 In  segment BANKED_CODE, align 1, keep-with-next
   \                     ?Subroutine79:
   \   000000   F583         MOV       DPH,A
   \   000002   12....       LCALL     ?Subroutine149 & 0xFFFF
   \                     ??CrossCallReturnLabel_531:
   \   000005                ; Setup parameters for call to function osal_build_uint32
   \   000005                ; Setup parameters for call to function osal_build_uint32
   \   000005   7904         MOV       R1,#0x4
   \   000007   EE           MOV       A,R6
   \   000008   FA           MOV       R2,A
   \   000009   EF           MOV       A,R7
   \   00000A   FB           MOV       R3,A
   \   00000B   22           RET
   1527          
   1528          #if defined ( ZDO_MGMT_NWKDISC_RESPONSE )
   1529          /*********************************************************************
   1530           * @fn          ZDO_FinishProcessingMgmtNwkDiscReq
   1531           *
   1532           * @brief       This function finishes the processing of the Management
   1533           *              Network Discover Request and generates the response.
   1534           *
   1535           *   Note:      This function will limit the number of items returned
   1536           *              to ZDO_MAX_NWKDISC_ITEMS items.
   1537           *
   1538           * @param       ResultCountSrcAddr - source of the request
   1539           * @param       msg - pointer to incoming message
   1540           * @param       SecurityUse -
   1541           *
   1542           * @return      none
   1543           */
   1544          void ZDO_FinishProcessingMgmtNwkDiscReq( void )
   1545          {
   1546            byte count, i, ResultCount = 0;
   1547            networkDesc_t *newDesc = NULL, *pList, *NetworkList;
   1548          
   1549            NetworkList = nwk_getNwkDescList();
   1550          
   1551            // Count the number of nwk descriptors in the list
   1552            pList = nwk_getNwkDescList();
   1553            while (pList)
   1554            {
   1555              ResultCount++;
   1556              pList = pList->nextDesc;
   1557            }
   1558          
   1559            if ( ZSTACK_ROUTER_BUILD )
   1560            {
   1561              // Look for my PanID.
   1562              pList = nwk_getNwkDescList();
   1563              while ( pList )
   1564              {
   1565                if ( pList->panId == _NIB.nwkPanId )
   1566                {
   1567                  break;
   1568                }
   1569          
   1570          
   1571                if ( !pList->nextDesc )
   1572                {
   1573                  break;
   1574                }
   1575                pList = pList->nextDesc;
   1576              }
   1577          
   1578          
   1579              // If my Pan not present (query to a star network ZC or an isolated ZR?),
   1580              // prepend it.
   1581              if ( !pList || (pList->panId != _NIB.nwkPanId) )
   1582              {
   1583                newDesc = (networkDesc_t *)osal_mem_alloc( sizeof( networkDesc_t ) );
   1584                if ( newDesc )
   1585                {
   1586                  byte pJoin;
   1587          
   1588                  newDesc->panId = _NIB.nwkPanId;
   1589                  newDesc->logicalChannel = _NIB.nwkLogicalChannel;
   1590                  newDesc->version = NLME_GetProtocolVersion();
   1591                  newDesc->stackProfile = zgStackProfile;
   1592          
   1593                  //Extended PanID
   1594                  osal_cpyExtAddr( newDesc->extendedPANID, _NIB.extendedPANID);
   1595          
   1596                  ZMacGetReq( ZMacAssociationPermit, &pJoin );
   1597                  newDesc->chosenRouter = ((pJoin) ? ZDAppNwkAddr.addr.shortAddr :
   1598                                                     INVALID_NODE_ADDR);
   1599          
   1600                  newDesc->nextDesc = NetworkList;
   1601                  NetworkList = newDesc;
   1602                  ResultCount++;
   1603                }
   1604              }
   1605            }
   1606          
   1607            // Calc the count and apply a max count.
   1608            if ( zdappMgmtNwkDiscStartIndex > ResultCount )
   1609            {
   1610              count = 0;
   1611            }
   1612            else
   1613            {
   1614              count = ResultCount - zdappMgmtNwkDiscStartIndex;
   1615              if ( count > ZDO_MAX_NWKDISC_ITEMS )
   1616              {
   1617                count = ZDO_MAX_NWKDISC_ITEMS;
   1618              }
   1619          
   1620              // Move the list pointer up to the start index.
   1621              for ( i = 0; i < zdappMgmtNwkDiscStartIndex; i++ )
   1622              {
   1623                NetworkList = NetworkList->nextDesc;
   1624              }
   1625            }
   1626          
   1627            ZDP_MgmtNwkDiscRsp( zdappMgmtNwkDiscRspTransSeq,
   1628                               &zdappMgmtNwkDiscRspAddr, ZSuccess, ResultCount,
   1629                                zdappMgmtNwkDiscStartIndex,
   1630                                count,
   1631                                NetworkList,
   1632                                false );
   1633          
   1634            if ( ZSTACK_ROUTER_BUILD )
   1635            {
   1636              if ( newDesc != NULL )
   1637              {
   1638                osal_mem_free( newDesc );
   1639              }
   1640            }
   1641          
   1642            NLME_NwkDiscTerm();
   1643          }
   1644          #endif
   1645          
   1646          /*********************************************************************
   1647           * @fn          ZDO_ProcessMgmtRtgReq
   1648           *
   1649           * @brief       This function finishes the processing of the Management
   1650           *              Routing Request and generates the response.
   1651           *
   1652           *   Note:      This function will limit the number of items returned
   1653           *              to ZDO_MAX_RTG_ITEMS items.
   1654           *
   1655           * @param       inMsg - incoming message (request)
   1656           *
   1657           * @return      none
   1658           */

   \                                 In  segment BANKED_CODE, align 1, keep-with-next
   1659          void ZDO_ProcessMgmtRtgReq( zdoIncomingMsg_t *inMsg )
   \                     ZDO_ProcessMgmtRtgReq:
   1660          {
   \   000000                REQUIRE ?V0
   \   000000                REQUIRE ?V1
   \   000000                REQUIRE ?V2
   \   000000                REQUIRE ?V3
   \   000000                REQUIRE ?V4
   \   000000                REQUIRE ?V6
   \   000000                REQUIRE ?V7
   \   000000   74F0         MOV       A,#-0x10
   \   000002   12....       LCALL     ?BANKED_ENTER_XDATA
   \   000005                ; Saved register size: 16
   \   000005                ; Auto size: 1
   \   000005   74FF         MOV       A,#-0x1
   \   000007   12....       LCALL     ?ALLOC_XSTACK8
   \   00000A   8A..         MOV       ?V2,R2
   \   00000C   8B..         MOV       ?V3,R3
   1661            byte x;
   1662            byte maxNumItems;
   1663            byte numItems = 0;
   \   00000E   7E00         MOV       R6,#0x0
   1664            uint8 *pBuf = NULL;
   \   000010   8E..         MOV       ?V6,R6
   \   000012   8E..         MOV       ?V7,R6
   1665            rtgItem_t *pList;
   1666            uint8 StartIndex = inMsg->asdu[0];
   \   000014   12....       LCALL     ??Subroutine185_0 & 0xFFFF
   \                     ??CrossCallReturnLabel_384:
   \   000017   35..         ADDC      A,?V3
   \   000019   F583         MOV       DPH,A
   \   00001B   12....       LCALL     ??Subroutine168_0 & 0xFFFF
   \                     ??CrossCallReturnLabel_285:
   \   00001E   FF           MOV       R7,A
   1667          
   1668            // Get the number of table items
   1669            NLME_GetRequest( nwkNumRoutingTableEntries, 0, &maxNumItems );
   \   00001F                ; Setup parameters for call to function NLME_GetRequest
   \   00001F   AC..         MOV       R4,?XSP + 0
   \   000021   AD..         MOV       R5,?XSP + 1
   \   000023   7A00         MOV       R2,#0x0
   \   000025   7B00         MOV       R3,#0x0
   \   000027   799D         MOV       R1,#-0x63
   \   000029   12....       LCALL     `??NLME_GetRequest::?relay`; Banked call to: NLME_GetRequest
   1670          
   1671            if ( maxNumItems > StartIndex )
   \   00002C   85..82       MOV       DPL,?XSP + 0
   \   00002F   85..83       MOV       DPH,?XSP + 1
   \   000032   E0           MOVX      A,@DPTR
   \   000033   F8           MOV       R0,A
   \   000034   EF           MOV       A,R7
   \   000035   C3           CLR       C
   \   000036   98           SUBB      A,R0
   \   000037   506E         JNC       ??ZDO_ProcessMgmtRtgReq_0
   1672            {
   1673              numItems = maxNumItems - StartIndex;    // Start at the passed in index
   \   000039   E0           MOVX      A,@DPTR
   \   00003A   C3           CLR       C
   \   00003B   9F           SUBB      A,R7
   \   00003C   FE           MOV       R6,A
   1674          
   1675              // limit the size of the list
   1676              if ( numItems > ZDO_MAX_RTG_ITEMS )
   \   00003D   C3           CLR       C
   \   00003E   940B         SUBB      A,#0xb
   \   000040   4002         JC        ??ZDO_ProcessMgmtRtgReq_1
   1677              {
   1678                numItems = ZDO_MAX_RTG_ITEMS;
   \   000042   7E0A         MOV       R6,#0xa
   1679              }
   1680          
   1681              // Allocate the memory to build the table
   1682              pBuf = osal_mem_alloc( (short)(sizeof( rtgItem_t ) * numItems) );
   \                     ??ZDO_ProcessMgmtRtgReq_1:
   \   000044                ; Setup parameters for call to function osal_mem_alloc
   \   000044   EE           MOV       A,R6
   \   000045   75F007       MOV       B,#0x7
   \   000048   A4           MUL       AB
   \   000049   FA           MOV       R2,A
   \   00004A   ABF0         MOV       R3,B
   \   00004C   12....       LCALL     `??osal_mem_alloc::?relay`; Banked call to: osal_mem_alloc
   \   00004F   8A..         MOV       ?V0,R2
   \   000051   8B..         MOV       ?V1,R3
   \   000053   8A..         MOV       ?V6,R2
   \   000055   8B..         MOV       ?V7,R3
   1683          
   1684              if ( pBuf != NULL )
   \   000057   EA           MOV       A,R2
   \   000058   45..         ORL       A,?V7
   \   00005A   6049         JZ        ??ZDO_ProcessMgmtRtgReq_2
   1685              {
   1686                // Convert buffer to list
   1687                pList = (rtgItem_t *)pBuf;
   1688          
   1689                // Loop through items and build list
   1690                for ( x = 0; x < numItems; x++ )
   \   00005C   75..00       MOV       ?V4,#0x0
   \   00005F   800F         SJMP      ??ZDO_ProcessMgmtRtgReq_3
   1691                {
   1692                  NLME_GetRequest( nwkRoutingTable, (uint16)(x + StartIndex), (void*)pList );
   1693          
   1694                  // Remap the status to the RoutingTableList Record Format defined in the ZigBee spec
   1695                  switch( pList->status )
   1696                  {
   1697                    case RT_ACTIVE:
   1698                      pList->status = ZDO_MGMT_RTG_ENTRY_ACTIVE;
   1699                      break;
   1700          
   1701                    case RT_DISC:
   1702                      pList->status = ZDO_MGMT_RTG_ENTRY_DISCOVERY_UNDERWAY;
   1703                      break;
   1704          
   1705                    case RT_LINK_FAIL:
   1706                      pList->status = ZDO_MGMT_RTG_ENTRY_DISCOVERY_FAILED;
   1707                      break;
   1708          
   1709                    case RT_INIT:
   1710                    case RT_REPAIR:
   1711                    default:
   1712                      pList->status = ZDO_MGMT_RTG_ENTRY_INACTIVE;
   \                     ??ZDO_ProcessMgmtRtgReq_4:
   \   000061   7403         MOV       A,#0x3
   \                     ??ZDO_ProcessMgmtRtgReq_5:
   \   000063   F0           MOVX      @DPTR,A
   1713                      break;
   1714                  }
   1715          
   1716                  // Increment pointer to next record
   1717                  pList++;
   \   000064   E5..         MOV       A,?V0
   \   000066   2407         ADD       A,#0x7
   \   000068   F5..         MOV       ?V0,A
   \   00006A   5002         JNC       ??ZDO_ProcessMgmtRtgReq_6
   \   00006C   05..         INC       ?V1
   \                     ??ZDO_ProcessMgmtRtgReq_6:
   \   00006E   05..         INC       ?V4
   \                     ??ZDO_ProcessMgmtRtgReq_3:
   \   000070   E5..         MOV       A,?V4
   \   000072   C3           CLR       C
   \   000073   9E           SUBB      A,R6
   \   000074   5031         JNC       ??ZDO_ProcessMgmtRtgReq_0
   \   000076                ; Setup parameters for call to function NLME_GetRequest
   \   000076   AC..         MOV       R4,?V0
   \   000078   AD..         MOV       R5,?V1
   \   00007A   E5..         MOV       A,?V4
   \   00007C   2F           ADD       A,R7
   \   00007D   FA           MOV       R2,A
   \   00007E   E4           CLR       A
   \   00007F   3400         ADDC      A,#0x0
   \   000081   FB           MOV       R3,A
   \   000082   798B         MOV       R1,#-0x75
   \   000084   12....       LCALL     `??NLME_GetRequest::?relay`; Banked call to: NLME_GetRequest
   \   000087   E5..         MOV       A,?V0
   \   000089   2405         ADD       A,#0x5
   \   00008B   12....       LCALL     ??Subroutine182_0 & 0xFFFF
   \                     ??CrossCallReturnLabel_361:
   \   00008E   E0           MOVX      A,@DPTR
   \   00008F   14           DEC       A
   \   000090   6008         JZ        ??ZDO_ProcessMgmtRtgReq_7
   \   000092   14           DEC       A
   \   000093   6008         JZ        ??ZDO_ProcessMgmtRtgReq_8
   \   000095   14           DEC       A
   \   000096   6009         JZ        ??ZDO_ProcessMgmtRtgReq_9
   \   000098   80C7         SJMP      ??ZDO_ProcessMgmtRtgReq_4
   \                     ??ZDO_ProcessMgmtRtgReq_7:
   \   00009A   E4           CLR       A
   \   00009B   80C6         SJMP      ??ZDO_ProcessMgmtRtgReq_5
   \                     ??ZDO_ProcessMgmtRtgReq_8:
   \   00009D   7401         MOV       A,#0x1
   \   00009F   80C2         SJMP      ??ZDO_ProcessMgmtRtgReq_5
   \                     ??ZDO_ProcessMgmtRtgReq_9:
   \   0000A1   7402         MOV       A,#0x2
   \   0000A3   80BE         SJMP      ??ZDO_ProcessMgmtRtgReq_5
   1718                }
   1719              }
   1720              else
   1721              {
   1722                numItems = 0;
   \                     ??ZDO_ProcessMgmtRtgReq_2:
   \   0000A5   7E00         MOV       R6,#0x0
   1723              }
   1724            }
   1725          
   1726            // Send response
   1727            ZDP_MgmtRtgRsp( inMsg->TransSeq, &(inMsg->srcAddr), ZSuccess, maxNumItems, StartIndex, numItems,
   1728                                  (rtgItem_t *)pBuf, false );
   \                     ??ZDO_ProcessMgmtRtgReq_0:
   \   0000A7                ; Setup parameters for call to function ZDP_MgmtRtgRsp
   \   0000A7   75..00       MOV       ?V0,#0x0
   \   0000AA   78..         MOV       R0,#?V0
   \   0000AC   12....       LCALL     ?PUSH_XSTACK_I_ONE
   \   0000AF   78..         MOV       R0,#?V6
   \   0000B1   12....       LCALL     ?PUSH_XSTACK_I_TWO
   \   0000B4   EE           MOV       A,R6
   \   0000B5   F5..         MOV       ?V0,A
   \   0000B7   78..         MOV       R0,#?V0
   \   0000B9   12....       LCALL     ?PUSH_XSTACK_I_ONE
   \   0000BC   EF           MOV       A,R7
   \   0000BD   F5..         MOV       ?V0,A
   \   0000BF   78..         MOV       R0,#?V0
   \   0000C1   12....       LCALL     ?PUSH_XSTACK_I_ONE
   \   0000C4   7405         MOV       A,#0x5
   \   0000C6   12....       LCALL     ?XSTACK_DISP0_8
   \   0000C9   E0           MOVX      A,@DPTR
   \   0000CA   FD           MOV       R5,A
   \   0000CB   7C00         MOV       R4,#0x0
   \   0000CD   E5..         MOV       A,?V2
   \   0000CF   12....       LCALL     ??Subroutine184_0 & 0xFFFF
   \                     ??CrossCallReturnLabel_375:
   \   0000D2   35..         ADDC      A,?V3
   \   0000D4   FB           MOV       R3,A
   \   0000D5   E5..         MOV       A,?V2
   \   0000D7   12....       LCALL     ?Subroutine120 & 0xFFFF
   \                     ??CrossCallReturnLabel_205:
   \   0000DA   35..         ADDC      A,?V3
   \   0000DC   F583         MOV       DPH,A
   \   0000DE   E0           MOVX      A,@DPTR
   \   0000DF   F9           MOV       R1,A
   \   0000E0   12....       LCALL     `??ZDP_MgmtRtgRsp::?relay`; Banked call to: ZDP_MgmtRtgRsp
   \   0000E3   7405         MOV       A,#0x5
   \   0000E5   12....       LCALL     ?DEALLOC_XSTACK8
   1729          
   1730            if ( pBuf != NULL )
   \   0000E8   E5..         MOV       A,?V6
   \   0000EA   45..         ORL       A,?V7
   \   0000EC   6007         JZ        ??ZDO_ProcessMgmtRtgReq_10
   1731            {
   1732              osal_mem_free( pBuf );
   \   0000EE                ; Setup parameters for call to function osal_mem_free
   \   0000EE   AA..         MOV       R2,?V6
   \   0000F0   AB..         MOV       R3,?V7
   \   0000F2   12....       LCALL     `??osal_mem_free::?relay`; Banked call to: osal_mem_free
   1733            }
   1734          }
   \                     ??ZDO_ProcessMgmtRtgReq_10:
   \   0000F5   7401         MOV       A,#0x1
   \   0000F7                REQUIRE ?Subroutine8
   \   0000F7                ; // Fall through to label ?Subroutine8

   \                                 In  segment BANKED_CODE, align 1, keep-with-next
   \                     ?Subroutine8:
   \   000000   12....       LCALL     ?DEALLOC_XSTACK8
   \   000003   02....       LJMP      ??Subroutine189_0 & 0xFFFF

   \                                 In  segment BANKED_CODE, align 1, keep-with-next
   \                     ??Subroutine182_0:
   \   000000   F582         MOV       DPL,A
   \   000002   E4           CLR       A
   \   000003                REQUIRE ??Subroutine183_0
   \   000003                ; // Fall through to label ??Subroutine183_0

   \                                 In  segment BANKED_CODE, align 1, keep-with-next
   \                     ??Subroutine183_0:
   \   000000   35..         ADDC      A,?V1
   \   000002   F583         MOV       DPH,A
   \   000004   22           RET
   1735          
   1736          /*********************************************************************
   1737           * @fn          ZDO_ProcessMgmtBindReq
   1738           *
   1739           * @brief       This function finishes the processing of the Management
   1740           *              Bind Request and generates the response.
   1741           *
   1742           *   Note:      This function will limit the number of items returned
   1743           *              to ZDO_MAX_BIND_ITEMS items.
   1744           *
   1745           * @param       inMsg - incoming message (request)
   1746           *
   1747           * @return      none
   1748           */

   \                                 In  segment BANKED_CODE, align 1, keep-with-next
   \                     ?Subroutine99:
   \   000000   85..82       MOV       DPL,?XSP + 0
   \   000003   85..83       MOV       DPH,?XSP + 1
   \   000006                REQUIRE ??Subroutine177_0
   \   000006                ; // Fall through to label ??Subroutine177_0

   \                                 In  segment BANKED_CODE, align 1, keep-with-next
   1749          void ZDO_ProcessMgmtBindReq( zdoIncomingMsg_t *inMsg )
   \                     ZDO_ProcessMgmtBindReq:
   1750          {
   \   000000                REQUIRE ?V0
   \   000000                REQUIRE ?V1
   \   000000                REQUIRE ?V2
   \   000000                REQUIRE ?V3
   \   000000                REQUIRE ?V4
   \   000000                REQUIRE ?V5
   \   000000                REQUIRE ?V6
   \   000000                REQUIRE ?V8
   \   000000                REQUIRE ?V9
   \   000000   74EE         MOV       A,#-0x12
   \   000002   12....       LCALL     ?BANKED_ENTER_XDATA
   \   000005                ; Saved register size: 18
   \   000005                ; Auto size: 2
   \   000005   74FE         MOV       A,#-0x2
   \   000007   12....       LCALL     ?ALLOC_XSTACK8
   \   00000A   8A..         MOV       ?V4,R2
   \   00000C   8B..         MOV       ?V5,R3
   1751          #if defined ( REFLECTOR )
   1752            byte x;
   1753            uint16 maxNumItems;
   1754            uint16 numItems;
   1755            uint8 *pBuf = NULL;
   \   00000E   75..00       MOV       ?V8,#0x0
   \   000011   75..00       MOV       ?V9,#0x0
   1756            apsBindingItem_t *pList;
   1757            uint8 StartIndex = inMsg->asdu[0];
   \   000014   12....       LCALL     ??Subroutine185_0 & 0xFFFF
   \                     ??CrossCallReturnLabel_385:
   \   000017   35..         ADDC      A,?V5
   \   000019   12....       LCALL     ?Subroutine80 & 0xFFFF
   1758            uint8 status;
   1759          
   1760            // Get the number of table items
   1761            APSME_GetRequest( apsNumBindingTableEntries, 0, (byte*)(&maxNumItems) );
   \                     ??CrossCallReturnLabel_130:
   \   00001C                ; Setup parameters for call to function APSME_GetRequest
   \   00001C   AC..         MOV       R4,?XSP + 0
   \   00001E   AD..         MOV       R5,?XSP + 1
   \   000020   7A00         MOV       R2,#0x0
   \   000022   7B00         MOV       R3,#0x0
   \   000024   79A3         MOV       R1,#-0x5d
   \   000026   12....       LCALL     `??APSME_GetRequest::?relay`; Banked call to: APSME_GetRequest
   1762          
   1763            if ( maxNumItems > StartIndex )
   \   000029   AA..         MOV       R2,?V2
   \   00002B   12....       LCALL     ?Subroutine99 & 0xFFFF
   \                     ??CrossCallReturnLabel_327:
   \   00002E   C3           CLR       C
   \   00002F   EA           MOV       A,R2
   \   000030   98           SUBB      A,R0
   \   000031   E4           CLR       A
   \   000032   99           SUBB      A,R1
   \   000033   501E         JNC       ??ZDO_ProcessMgmtBindReq_0
   1764            {
   1765              numItems = maxNumItems - StartIndex;    // Start at the passed in index
   \   000035   85..82       MOV       DPL,?XSP + 0
   \   000038   85..83       MOV       DPH,?XSP + 1
   \   00003B   E0           MOVX      A,@DPTR
   \   00003C   C3           CLR       C
   \   00003D   9A           SUBB      A,R2
   \   00003E   FE           MOV       R6,A
   \   00003F   A3           INC       DPTR
   \   000040   E0           MOVX      A,@DPTR
   \   000041   9400         SUBB      A,#0x0
   \   000043   FF           MOV       R7,A
   1766            }
   1767            else
   1768            {
   1769              numItems = 0;
   1770            }
   1771          
   1772            // limit the size of the list
   1773            if ( numItems > ZDO_MAX_BIND_ITEMS )
   \   000044   C3           CLR       C
   \   000045   EE           MOV       A,R6
   \   000046   9404         SUBB      A,#0x4
   \   000048   EF           MOV       A,R7
   \   000049   9400         SUBB      A,#0x0
   \   00004B   4061         JC        ??ZDO_ProcessMgmtBindReq_1
   1774            {
   1775              numItems = ZDO_MAX_BIND_ITEMS;
   \   00004D   7E03         MOV       R6,#0x3
   \   00004F   7F00         MOV       R7,#0x0
   \   000051   805F         SJMP      ??ZDO_ProcessMgmtBindReq_2
   1776            }
   \                     ??ZDO_ProcessMgmtBindReq_0:
   \   000053   7E00         MOV       R6,#0x0
   1777          
   1778            // Allocate the memory to build the table
   1779            if ( numItems )
   1780            {
   1781              pBuf = osal_mem_alloc( sizeof( apsBindingItem_t ) * numItems );
   1782              
   1783              if(pBuf != NULL)
   1784              {
   1785              
   1786                status = ZSuccess;
   1787          
   1788                // Convert buffer to list
   1789                pList = (apsBindingItem_t *)pBuf;
   1790          
   1791                // Loop through items and build list
   1792                for ( x = 0; x < numItems; x++ )
   1793                {
   1794                  APSME_GetRequest( apsBindingTable, (x + StartIndex), (void*)pList );
   1795                  pList++;
   1796                }
   1797              }
   1798              else
   1799              {
   1800                //No memory to allocate response, respond unsupported attribute
   1801                status = ZApsUnsupportedAttrib;
   1802                numItems = 0;
   1803              }
   1804            }
   1805            else
   1806            {
   1807              status = ZSuccess;
   \                     ??ZDO_ProcessMgmtBindReq_3:
   \   000055   75..00       MOV       ?V3,#0x0
   \                     ??ZDO_ProcessMgmtBindReq_4:
   \   000058   EE           MOV       A,R6
   \   000059   F9           MOV       R1,A
   1808            }
   1809          
   1810            // Send response
   1811            ZDP_MgmtBindRsp( inMsg->TransSeq, &(inMsg->srcAddr), status, (byte)maxNumItems, StartIndex,
   1812                             (byte)numItems, (apsBindingItem_t *)pBuf, false );
   \                     ??ZDO_ProcessMgmtBindReq_5:
   \   00005A                ; Setup parameters for call to function ZDP_MgmtBindRsp
   \   00005A   75..00       MOV       ?V0,#0x0
   \   00005D   78..         MOV       R0,#?V0
   \   00005F   12....       LCALL     ?PUSH_XSTACK_I_ONE
   \   000062   78..         MOV       R0,#?V8
   \   000064   12....       LCALL     ?PUSH_XSTACK_I_TWO
   \   000067   E9           MOV       A,R1
   \   000068   F5..         MOV       ?V0,A
   \   00006A   78..         MOV       R0,#?V0
   \   00006C   12....       LCALL     ?PUSH_XSTACK_I_ONE
   \   00006F   E5..         MOV       A,?V2
   \   000071   F5..         MOV       ?V0,A
   \   000073   78..         MOV       R0,#?V0
   \   000075   12....       LCALL     ?PUSH_XSTACK_I_ONE
   \   000078   7405         MOV       A,#0x5
   \   00007A   12....       LCALL     ?XSTACK_DISP0_8
   \   00007D   E0           MOVX      A,@DPTR
   \   00007E   FD           MOV       R5,A
   \   00007F   AC..         MOV       R4,?V3
   \   000081   E5..         MOV       A,?V4
   \   000083   12....       LCALL     ??Subroutine184_0 & 0xFFFF
   \                     ??CrossCallReturnLabel_376:
   \   000086   35..         ADDC      A,?V5
   \   000088   FB           MOV       R3,A
   \   000089   E5..         MOV       A,?V4
   \   00008B   12....       LCALL     ?Subroutine120 & 0xFFFF
   \                     ??CrossCallReturnLabel_206:
   \   00008E   35..         ADDC      A,?V5
   \   000090   F583         MOV       DPH,A
   \   000092   E0           MOVX      A,@DPTR
   \   000093   F9           MOV       R1,A
   \   000094   12....       LCALL     `??ZDP_MgmtBindRsp::?relay`; Banked call to: ZDP_MgmtBindRsp
   \   000097   7405         MOV       A,#0x5
   \   000099   12....       LCALL     ?DEALLOC_XSTACK8
   1813          
   1814            if ( pBuf )
   \   00009C   E5..         MOV       A,?V8
   \   00009E   45..         ORL       A,?V9
   \   0000A0   6007         JZ        ??ZDO_ProcessMgmtBindReq_6
   1815            {
   1816              osal_mem_free( pBuf );
   \   0000A2                ; Setup parameters for call to function osal_mem_free
   \   0000A2   AA..         MOV       R2,?V8
   \   0000A4   AB..         MOV       R3,?V9
   \   0000A6   12....       LCALL     `??osal_mem_free::?relay`; Banked call to: osal_mem_free
   1817            }
   1818          #else
   1819            (void)inMsg;
   1820          #endif
   1821          }
   \                     ??ZDO_ProcessMgmtBindReq_6:
   \   0000A9   7402         MOV       A,#0x2
   \   0000AB   02....       LJMP      ?Subroutine7 & 0xFFFF
   \                     ??ZDO_ProcessMgmtBindReq_1:
   \   0000AE   EE           MOV       A,R6
   \   0000AF   4F           ORL       A,R7
   \   0000B0   60A3         JZ        ??ZDO_ProcessMgmtBindReq_3
   \                     ??ZDO_ProcessMgmtBindReq_2:
   \   0000B2                ; Setup parameters for call to function osal_mem_alloc
   \   0000B2   EE           MOV       A,R6
   \   0000B3   FA           MOV       R2,A
   \   0000B4   EF           MOV       A,R7
   \   0000B5   FB           MOV       R3,A
   \   0000B6   EA           MOV       A,R2
   \   0000B7   75F015       MOV       B,#0x15
   \   0000BA   A4           MUL       AB
   \   0000BB   FA           MOV       R2,A
   \   0000BC   A8F0         MOV       R0,B
   \   0000BE   75F015       MOV       B,#0x15
   \   0000C1   EB           MOV       A,R3
   \   0000C2   A4           MUL       AB
   \   0000C3   28           ADD       A,R0
   \   0000C4   FB           MOV       R3,A
   \   0000C5   12....       LCALL     `??osal_mem_alloc::?relay`; Banked call to: osal_mem_alloc
   \   0000C8   8A..         MOV       ?V0,R2
   \   0000CA   8B..         MOV       ?V1,R3
   \   0000CC   8A..         MOV       ?V8,R2
   \   0000CE   8B..         MOV       ?V9,R3
   \   0000D0   EA           MOV       A,R2
   \   0000D1   45..         ORL       A,?V9
   \   0000D3   6032         JZ        ??ZDO_ProcessMgmtBindReq_7
   \   0000D5   75..00       MOV       ?V3,#0x0
   \   0000D8   75..00       MOV       ?V6,#0x0
   \                     ??ZDO_ProcessMgmtBindReq_8:
   \   0000DB   C3           CLR       C
   \   0000DC   E5..         MOV       A,?V6
   \   0000DE   9E           SUBB      A,R6
   \   0000DF   E4           CLR       A
   \   0000E0   9F           SUBB      A,R7
   \   0000E1   4003         JC        $+5
   \   0000E3   02....       LJMP      ??ZDO_ProcessMgmtBindReq_4 & 0xFFFF
   \   0000E6                ; Setup parameters for call to function APSME_GetRequest
   \   0000E6   AC..         MOV       R4,?V0
   \   0000E8   AD..         MOV       R5,?V1
   \   0000EA   A8..         MOV       R0,?V2
   \   0000EC   E5..         MOV       A,?V6
   \   0000EE   28           ADD       A,R0
   \   0000EF   FA           MOV       R2,A
   \   0000F0   E4           CLR       A
   \   0000F1   3400         ADDC      A,#0x0
   \   0000F3   FB           MOV       R3,A
   \   0000F4   79A2         MOV       R1,#-0x5e
   \   0000F6   12....       LCALL     `??APSME_GetRequest::?relay`; Banked call to: APSME_GetRequest
   \   0000F9   E5..         MOV       A,?V0
   \   0000FB   2415         ADD       A,#0x15
   \   0000FD   F5..         MOV       ?V0,A
   \   0000FF   5002         JNC       ??ZDO_ProcessMgmtBindReq_9
   \   000101   05..         INC       ?V1
   \                     ??ZDO_ProcessMgmtBindReq_9:
   \   000103   05..         INC       ?V6
   \   000105   80D4         SJMP      ??ZDO_ProcessMgmtBindReq_8
   \                     ??ZDO_ProcessMgmtBindReq_7:
   \   000107   75..B5       MOV       ?V3,#-0x4b
   \   00010A   7900         MOV       R1,#0x0
   \   00010C   02....       LJMP      ??ZDO_ProcessMgmtBindReq_5 & 0xFFFF

   \                                 In  segment BANKED_CODE, align 1, keep-with-next
   \                     ?Subroutine80:
   \   000000   F583         MOV       DPH,A
   \   000002   12....       LCALL     ?Subroutine143 & 0xFFFF
   \                     ??CrossCallReturnLabel_290:
   \   000005   F5..         MOV       ?V2,A
   \   000007   22           RET

   \                                 In  segment BANKED_CODE, align 1, keep-with-next
   \                     ?Subroutine7:
   \   000000   12....       LCALL     ?DEALLOC_XSTACK8
   \   000003                REQUIRE ??Subroutine206_0
   \   000003                ; // Fall through to label ??Subroutine206_0

   \                                 In  segment BANKED_CODE, align 1, keep-with-next
   \                     ??Subroutine206_0:
   \   000000   7F0A         MOV       R7,#0xa
   \   000002   02....       LJMP      ?BANKED_LEAVE_XDATA
   1822          
   1823          /*********************************************************************
   1824           * @fn          ZDO_ProcessMgmtDirectJoinReq
   1825           *
   1826           * @brief       This function finishes the processing of the Management
   1827           *              Direct Join Request and generates the response.
   1828           *
   1829           * @param       inMsg - incoming message (request)
   1830           *
   1831           * @return      none
   1832           */

   \                                 In  segment BANKED_CODE, align 1, keep-with-next
   1833          void ZDO_ProcessMgmtDirectJoinReq( zdoIncomingMsg_t *inMsg )
   \                     ZDO_ProcessMgmtDirectJoinReq:
   1834          {
   \   000000                REQUIRE ?V0
   \   000000                REQUIRE ?V1
   \   000000   74F6         MOV       A,#-0xa
   \   000002   12....       LCALL     ?BANKED_ENTER_XDATA
   \   000005                ; Saved register size: 10
   \   000005                ; Auto size: 1
   \   000005   74FF         MOV       A,#-0x1
   \   000007   12....       LCALL     ?ALLOC_XSTACK8
   \   00000A   EA           MOV       A,R2
   \   00000B   FE           MOV       R6,A
   \   00000C   EB           MOV       A,R3
   \   00000D   FF           MOV       R7,A
   1835            uint8 *deviceAddr;
   1836            uint8 capInfo;
   1837            uint8 stat;
   1838          
   1839            // Parse the message
   1840            deviceAddr = inMsg->asdu;
   1841            capInfo = inMsg->asdu[Z_EXTADDR_LEN];
   1842          
   1843            stat = (byte) NLME_DirectJoinRequest( deviceAddr, capInfo );
   \   00000E   12....       LCALL     ?Subroutine110 & 0xFFFF
   \                     ??CrossCallReturnLabel_184:
   \   000011   12....       LCALL     ?Subroutine87 & 0xFFFF
   \                     ??CrossCallReturnLabel_141:
   \   000014   A3           INC       DPTR
   \   000015   A3           INC       DPTR
   \   000016   A3           INC       DPTR
   \   000017   A3           INC       DPTR
   \   000018   A3           INC       DPTR
   \   000019   A3           INC       DPTR
   \   00001A   A3           INC       DPTR
   \   00001B   A3           INC       DPTR
   \   00001C   E0           MOVX      A,@DPTR
   \   00001D   F9           MOV       R1,A
   \   00001E   12....       LCALL     `??NLME_DirectJoinRequest::?relay`; Banked call to: NLME_DirectJoinRequest
   \   000021   E9           MOV       A,R1
   \   000022   85..82       MOV       DPL,?XSP + 0
   \   000025   85..83       MOV       DPH,?XSP + 1
   \   000028   F0           MOVX      @DPTR,A
   1844          
   1845            ZDP_MgmtDirectJoinRsp( inMsg->TransSeq, &(inMsg->srcAddr), stat, false );
   \   000029                ; Setup parameters for call to function ZDP_SendData
   \   000029   75..00       MOV       ?V0,#0x0
   \   00002C   78..         MOV       R0,#?V0
   \   00002E   12....       LCALL     ?PUSH_XSTACK_I_ONE
   \   000031   7401         MOV       A,#0x1
   \   000033   12....       LCALL     ?XSTACK_DISP100_8
   \   000036   88..         MOV       ?V0,R0
   \   000038   89..         MOV       ?V1,R1
   \   00003A   78..         MOV       R0,#?V0
   \   00003C   12....       LCALL     ?PUSH_XSTACK_I_TWO
   \   00003F   75..35       MOV       ?V0,#0x35
   \   000042   75..80       MOV       ?V1,#-0x80
   \   000045   78..         MOV       R0,#?V0
   \   000047   12....       LCALL     ?PUSH_XSTACK_I_TWO
   \   00004A   7901         MOV       R1,#0x1
   \   00004C   12....       LCALL     ?Subroutine117 & 0xFFFF
   \                     ??CrossCallReturnLabel_201:
   \   00004F   FA           MOV       R2,A
   \   000050   E4           CLR       A
   \   000051   3F           ADDC      A,R7
   \   000052   FB           MOV       R3,A
   \   000053   12....       LCALL     `??ZDP_SendData::?relay`; Banked call to: ZDP_SendData
   \   000056   7405         MOV       A,#0x5
   \   000058   12....       LCALL     ?DEALLOC_XSTACK8
   1846          }
   \   00005B   7401         MOV       A,#0x1
   \   00005D   02....       LJMP      ??Subroutine172_0 & 0xFFFF

   \                                 In  segment BANKED_CODE, align 1, keep-with-next
   \                     ?Subroutine150:
   \   000000   F583         MOV       DPH,A
   \   000002                REQUIRE ??Subroutine205_0
   \   000002                ; // Fall through to label ??Subroutine205_0

   \                                 In  segment BANKED_CODE, align 1, keep-with-next
   \                     ?Subroutine87:
   \   000000   12....       LCALL     ?Subroutine150 & 0xFFFF
   \                     ??CrossCallReturnLabel_492:
   \   000003                ; Setup parameters for call to function NLME_DirectJoinRequest
   \   000003   8A82         MOV       DPL,R2
   \   000005   8B83         MOV       DPH,R3
   \   000007   22           RET
   1847          
   1848          /*********************************************************************
   1849           * @fn          ZDO_ProcessMgmtLeaveReq
   1850           *
   1851           * @brief       This function processes a Management Leave Request
   1852           *              and generates the response.
   1853           *
   1854           * @param       inMsg - incoming message (request)
   1855           *
   1856           * @return      none
   1857           */

   \                                 In  segment BANKED_CODE, align 1, keep-with-next
   \                     ?Subroutine1:
   \   000000   12....       LCALL     ?DEALLOC_XSTACK8
   \   000003                REQUIRE ??Subroutine167_0
   \   000003                ; // Fall through to label ??Subroutine167_0

   \                                 In  segment BANKED_CODE, align 1, keep-with-next
   1858          void ZDO_ProcessMgmtLeaveReq( zdoIncomingMsg_t *inMsg )
   \                     ZDO_ProcessMgmtLeaveReq:
   1859          {
   \   000000                REQUIRE ?V0
   \   000000                REQUIRE ?V1
   \   000000                REQUIRE ?V2
   \   000000                REQUIRE ?V3
   \   000000   74F4         MOV       A,#-0xc
   \   000002   12....       LCALL     ?BANKED_ENTER_XDATA
   \   000005                ; Saved register size: 12
   \   000005                ; Auto size: 6
   \   000005   74FA         MOV       A,#-0x6
   \   000007   12....       LCALL     ?ALLOC_XSTACK8
   \   00000A   12....       LCALL     ?Subroutine113 & 0xFFFF
   1860            NLME_LeaveReq_t req;
   1861            ZStatus_t       status;
   1862            uint8           option;
   1863            uint8 *msg = inMsg->asdu;
   \                     ??CrossCallReturnLabel_381:
   \   00000D   12....       LCALL     ??Subroutine183_0 & 0xFFFF
   \                     ??CrossCallReturnLabel_359:
   \   000010   12....       LCALL     ?Subroutine149 & 0xFFFF
   1864            
   1865            if ( ( AddrMgrExtAddrValid( msg ) == FALSE                 ) ||
   1866                 ( osal_ExtAddrEqual( msg, NLME_GetExtAddr() ) == TRUE )    )
   \                     ??CrossCallReturnLabel_530:
   \   000013                ; Setup parameters for call to function AddrMgrExtAddrValid
   \   000013   EE           MOV       A,R6
   \   000014   FA           MOV       R2,A
   \   000015   EF           MOV       A,R7
   \   000016   FB           MOV       R3,A
   \   000017   12....       LCALL     `??AddrMgrExtAddrValid::?relay`; Banked call to: AddrMgrExtAddrValid
   \   00001A   E9           MOV       A,R1
   \   00001B   6017         JZ        ??ZDO_ProcessMgmtLeaveReq_0
   \   00001D                ; Setup parameters for call to function NLME_GetExtAddr
   \   00001D   12....       LCALL     `??NLME_GetExtAddr::?relay`; Banked call to: NLME_GetExtAddr
   \   000020   8A..         MOV       ?V2,R2
   \   000022   8B..         MOV       ?V3,R3
   \   000024   AC..         MOV       R4,?V2
   \   000026   AD..         MOV       R5,?V3
   \   000028                ; Setup parameters for call to function sAddrExtCmp
   \   000028   EE           MOV       A,R6
   \   000029   FA           MOV       R2,A
   \   00002A   EF           MOV       A,R7
   \   00002B   FB           MOV       R3,A
   \   00002C   12....       LCALL     `??sAddrExtCmp::?relay`; Banked call to: sAddrExtCmp
   \   00002F   E9           MOV       A,R1
   \   000030   6401         XRL       A,#0x1
   \   000032   7002         JNZ       ??ZDO_ProcessMgmtLeaveReq_1
   1867            {
   1868              if ( ( ZG_BUILD_COORDINATOR_TYPE ) && ( ZG_DEVICE_COORDINATOR_TYPE ) )
   1869              {
   1870                // Coordinator shall drop the leave request for itself
   1871                // section 3.6.1.10.3.1 R21
   1872                return;
   \                     ??ZDO_ProcessMgmtLeaveReq_0:
   \   000034   8075         SJMP      ??ZDO_ProcessMgmtLeaveReq_2
   1873              }
   1874              else
   1875              {
   1876                // Remove this device
   1877                req.extAddr = NULL;
   1878              }
   1879            }
   1880            else
   1881            {
   1882              // Remove child device
   1883              req.extAddr = msg;
   \                     ??ZDO_ProcessMgmtLeaveReq_1:
   \   000036   7401         MOV       A,#0x1
   \   000038   12....       LCALL     ?XSTACK_DISP0_8
   \   00003B   EE           MOV       A,R6
   \   00003C   F0           MOVX      @DPTR,A
   \   00003D   A3           INC       DPTR
   \   00003E   EF           MOV       A,R7
   \   00003F   12....       LCALL     ?Subroutine17 & 0xFFFF
   1884            }
   1885            if ( ( ZG_BUILD_ENDDEVICE_TYPE ) && ( ZG_DEVICE_ENDDEVICE_TYPE ) )
   1886            {
   1887              //Only the parent device can request to leave, otherwise silently discard the frame
   1888              if(inMsg->srcAddr.addr.shortAddr != _NIB.nwkCoordAddress)
   1889              {
   1890                return;
   1891              }
   1892            }
   1893          
   1894            option = msg[Z_EXTADDR_LEN];
   \                     ??CrossCallReturnLabel_20:
   \   000042   FE           MOV       R6,A
   1895            if ( option & ZDP_MGMT_LEAVE_REQ_RC )
   \   000043   A2E6         MOV       C,0xE0 /* A   */.6
   \   000045   5008         JNC       ??ZDO_ProcessMgmtLeaveReq_3
   1896            {
   1897              req.removeChildren = TRUE;
   \   000047   7403         MOV       A,#0x3
   \   000049   12....       LCALL     ?XSTACK_DISP0_8
   \   00004C   7401         MOV       A,#0x1
   \   00004E   F0           MOVX      @DPTR,A
   1898            }
   1899          
   1900            if ( option & ZDP_MGMT_LEAVE_REQ_REJOIN )
   \                     ??ZDO_ProcessMgmtLeaveReq_3:
   \   00004F   EE           MOV       A,R6
   \   000050   A2E7         MOV       C,0xE0 /* A   */.7
   \   000052   5008         JNC       ??ZDO_ProcessMgmtLeaveReq_4
   1901            {
   1902               req.rejoin = TRUE;
   \   000054   7404         MOV       A,#0x4
   \   000056   12....       LCALL     ?XSTACK_DISP0_8
   \   000059   7401         MOV       A,#0x1
   \   00005B   F0           MOVX      @DPTR,A
   1903            }
   1904          
   1905            req.silent = FALSE;
   \                     ??ZDO_ProcessMgmtLeaveReq_4:
   \   00005C   7405         MOV       A,#0x5
   \   00005E   12....       LCALL     ?XSTACK_DISP0_8
   \   000061   E4           CLR       A
   \   000062   12....       LCALL     ?Subroutine34 & 0xFFFF
   1906            
   1907            //According to R21 spec sec2.4.3.3.5.2 Mgmt leave rsp must contain the status response from the nwk leave processing. 
   1908            //Latest discussion in Zigbee indicates that mgmt leave rsp due to an OTA command must have status=success (9/12/16)
   1909            status = ZSuccess;
   \                     ??CrossCallReturnLabel_45:
   \   000065   F0           MOVX      @DPTR,A
   1910            
   1911            ZDP_MgmtLeaveRsp( inMsg->TransSeq, &(inMsg->srcAddr), status, FALSE );
   \   000066                ; Setup parameters for call to function ZDP_SendData
   \   000066   F5..         MOV       ?V2,A
   \   000068   78..         MOV       R0,#?V2
   \   00006A   12....       LCALL     ?PUSH_XSTACK_I_ONE
   \   00006D   7401         MOV       A,#0x1
   \   00006F   12....       LCALL     ?XSTACK_DISP100_8
   \   000072   88..         MOV       ?V2,R0
   \   000074   89..         MOV       ?V3,R1
   \   000076   78..         MOV       R0,#?V2
   \   000078   12....       LCALL     ?PUSH_XSTACK_I_TWO
   \   00007B   75..34       MOV       ?V2,#0x34
   \   00007E   75..80       MOV       ?V3,#-0x80
   \   000081   78..         MOV       R0,#?V2
   \   000083   12....       LCALL     ?PUSH_XSTACK_I_TWO
   \   000086   12....       LCALL     ?Subroutine114 & 0xFFFF
   \                     ??CrossCallReturnLabel_192:
   \   000089   12....       LCALL     `??ZDP_SendData::?relay`; Banked call to: ZDP_SendData
   \   00008C   7405         MOV       A,#0x5
   \   00008E   12....       LCALL     ?DEALLOC_XSTACK8
   1912            
   1913            if ( ZG_BUILD_ENDDEVICE_TYPE )
   1914            {
   1915              // Stop polling and get ready to reset
   1916              NLME_SetPollRate( 0 );
   1917              NLME_SetResponseRate(0);
   1918              NLME_SetQueuedPollRate(0);
   1919            }
   1920            
   1921            NLME_LeaveReq(&req);
   \   000091                ; Setup parameters for call to function NLME_LeaveReq
   \   000091   7401         MOV       A,#0x1
   \   000093   12....       LCALL     ?XSTACK_DISP101_8
   \   000096   12....       LCALL     `??NLME_LeaveReq::?relay`; Banked call to: NLME_LeaveReq
   1922            
   1923            if (! (option & ZDP_MGMT_LEAVE_REQ_REJOIN) )
   \   000099   EE           MOV       A,R6
   \   00009A   A2E7         MOV       C,0xE0 /* A   */.7
   \   00009C   400D         JC        ??ZDO_ProcessMgmtLeaveReq_2
   1924            {
   1925              if(req.extAddr == NULL)
   \   00009E   7401         MOV       A,#0x1
   \   0000A0   12....       LCALL     ?XSTACK_DISP0_8
   \   0000A3   12....       LCALL     ??Subroutine193_0 & 0xFFFF
   \                     ??CrossCallReturnLabel_408:
   \   0000A6   7003         JNZ       ??ZDO_ProcessMgmtLeaveReq_2
   1926              {
   1927                bdb_setFN();
   \   0000A8                ; Setup parameters for call to function bdb_setFN
   \   0000A8   12....       LCALL     `??bdb_setFN::?relay`; Banked call to: bdb_setFN
   1928              }
   1929            }
   1930          }
   \                     ??ZDO_ProcessMgmtLeaveReq_2:
   \   0000AB   7406         MOV       A,#0x6
   \   0000AD   02....       LJMP      ?Subroutine1 & 0xFFFF

   \                                 In  segment BANKED_CODE, align 1, keep-with-next
   \                     ?Subroutine34:
   \   000000   F0           MOVX      @DPTR,A
   \   000001   85..82       MOV       DPL,?XSP + 0
   \   000004   85..83       MOV       DPH,?XSP + 1
   \   000007   22           RET

   \                                 In  segment BANKED_CODE, align 1, keep-with-next
   \                     ?Subroutine17:
   \   000000   12....       LCALL     ?Subroutine137 & 0xFFFF
   \                     ??CrossCallReturnLabel_247:
   \   000003   A3           INC       DPTR
   \   000004   A3           INC       DPTR
   \   000005   A3           INC       DPTR
   \   000006   E0           MOVX      A,@DPTR
   \   000007   22           RET
   1931          
   1932          
   1933          /*********************************************************************
   1934           * @fn          ZDO_ProcessMgmtPermitJoinReq
   1935           *
   1936           * @brief       This function processes a Management Permit Join Request
   1937           *              and generates the response.
   1938           *
   1939           * @param       inMsg - incoming message (request)
   1940           *
   1941           * @return      none
   1942           */

   \                                 In  segment BANKED_CODE, align 1, keep-with-next
   1943          void ZDO_ProcessMgmtPermitJoinReq( zdoIncomingMsg_t *inMsg )
   \                     ZDO_ProcessMgmtPermitJoinReq:
   1944          {
   \   000000                REQUIRE ?V0
   \   000000                REQUIRE ?V1
   \   000000                REQUIRE ?V2
   \   000000                REQUIRE ?V3
   \   000000   74F4         MOV       A,#-0xc
   \   000002   12....       LCALL     ?BANKED_ENTER_XDATA
   \   000005                ; Saved register size: 12
   \   000005                ; Auto size: 1
   \   000005   74FF         MOV       A,#-0x1
   \   000007   12....       LCALL     ?ALLOC_XSTACK8
   \   00000A   EA           MOV       A,R2
   \   00000B   FE           MOV       R6,A
   \   00000C   EB           MOV       A,R3
   \   00000D   FF           MOV       R7,A
   1945            uint8 stat;
   1946            uint8 duration;
   1947          #if (ZG_BUILD_COORDINATOR_TYPE)
   1948            if(ZG_DEVICE_COORDINATOR_TYPE)
   1949            {
   1950              //If zgAllowRemoteTCPolicyChange is set to FALSE, the request from other 
   1951              //devices cannot affect the  Trust Center policies
   1952              if((zgAllowRemoteTCPolicyChange == 0) && (inMsg->srcAddr.addr.shortAddr!= 0x0000))
   \   00000E   12....       LCALL     ?Subroutine121 & 0xFFFF
   \                     ??CrossCallReturnLabel_210:
   \   000011   90....       MOV       DPTR,#zgAllowRemoteTCPolicyChange
   \   000014   E0           MOVX      A,@DPTR
   \   000015   700B         JNZ       ??ZDO_ProcessMgmtPermitJoinReq_0
   \   000017   85..82       MOV       DPL,?V0
   \   00001A   85..83       MOV       DPH,?V1
   \   00001D   12....       LCALL     ??Subroutine193_0 & 0xFFFF
   \                     ??CrossCallReturnLabel_409:
   \   000020   706A         JNZ       ??ZDO_ProcessMgmtPermitJoinReq_1
   1953              {
   1954                return;
   1955              }
   1956            }
   1957          #endif
   1958            
   1959            duration = inMsg->asdu[ZDP_MGMT_PERMIT_JOIN_REQ_DURATION];
   \                     ??ZDO_ProcessMgmtPermitJoinReq_0:
   \   000022   12....       LCALL     ?Subroutine110 & 0xFFFF
   \                     ??CrossCallReturnLabel_185:
   \   000025   12....       LCALL     ?Subroutine80 & 0xFFFF
   1960            // Per R21 Spec this field is not longer relevant 2.4.3.3.7.2 (Mgmt_Permit_Joining_req Effect on Receipt)
   1961            //tcsig    = inMsg->asdu[ZDP_MGMT_PERMIT_JOIN_REQ_TC_SIG];
   1962          
   1963            // Per R21 Spec this duration cannot last forever 2.4.3.3.7.2 (Mgmt_Permit_Joining_req Effect on Receipt)
   1964            if(duration == 0xFF)
   \                     ??CrossCallReturnLabel_131:
   \   000028   74FF         MOV       A,#-0x1
   \   00002A   65..         XRL       A,?V2
   \   00002C   7003         JNZ       ??ZDO_ProcessMgmtPermitJoinReq_2
   1965            {
   1966              duration = 0xFE;
   \   00002E   75..FE       MOV       ?V2,#-0x2
   1967            }
   1968            
   1969            // Set the network layer permit join duration
   1970            stat = (byte) NLME_PermitJoiningRequest( duration );
   \                     ??ZDO_ProcessMgmtPermitJoinReq_2:
   \   000031                ; Setup parameters for call to function NLME_PermitJoiningRequest
   \   000031   A9..         MOV       R1,?V2
   \   000033   12....       LCALL     `??NLME_PermitJoiningRequest::?relay`; Banked call to: NLME_PermitJoiningRequest
   \   000036   E9           MOV       A,R1
   \   000037   85..82       MOV       DPL,?XSP + 0
   \   00003A   85..83       MOV       DPH,?XSP + 1
   \   00003D   F0           MOVX      @DPTR,A
   1971          
   1972            //Handle the permit joining if running a distributed network
   1973            if(APSME_IsDistributedSecurity())
   \   00003E                ; Setup parameters for call to function APSME_IsDistributedSecurity
   \   00003E   12....       LCALL     `??APSME_IsDistributedSecurity::?relay`; Banked call to: APSME_IsDistributedSecurity
   \   000041   E9           MOV       A,R1
   \   000042   6005         JZ        ??ZDO_ProcessMgmtPermitJoinReq_3
   1974            {
   1975              ZDSecMgrPermitJoining( duration );
   \   000044                ; Setup parameters for call to function ZDSecMgrPermitJoining
   \   000044   A9..         MOV       R1,?V2
   \   000046   12....       LCALL     `??ZDSecMgrPermitJoining::?relay`; Banked call to: ZDSecMgrPermitJoining
   1976            }
   1977            
   1978            // Handle the Trust Center Significance
   1979            if ( ZG_SECURE_ENABLED && ZG_BUILD_COORDINATOR_TYPE && ZG_DEVICE_COORDINATOR_TYPE )
   1980            {
   1981              ZDSecMgrPermitJoining( duration );
   \                     ??ZDO_ProcessMgmtPermitJoinReq_3:
   \   000049                ; Setup parameters for call to function ZDSecMgrPermitJoining
   \   000049   A9..         MOV       R1,?V2
   \   00004B   12....       LCALL     `??ZDSecMgrPermitJoining::?relay`; Banked call to: ZDSecMgrPermitJoining
   1982            }
   1983          
   1984            // Send a response if unicast
   1985            if ( !inMsg->wasBroadcast )
   \   00004E   EE           MOV       A,R6
   \   00004F   240B         ADD       A,#0xb
   \   000051   12....       LCALL     ??Subroutine187_0 & 0xFFFF
   \                     ??CrossCallReturnLabel_390:
   \   000054   7036         JNZ       ??ZDO_ProcessMgmtPermitJoinReq_1
   1986            {
   1987              ZDP_MgmtPermitJoinRsp( inMsg->TransSeq, &(inMsg->srcAddr), stat, false );
   \   000056                ; Setup parameters for call to function ZDP_SendData
   \   000056   75..00       MOV       ?V2,#0x0
   \   000059   78..         MOV       R0,#?V2
   \   00005B   12....       LCALL     ?PUSH_XSTACK_I_ONE
   \   00005E   7401         MOV       A,#0x1
   \   000060   12....       LCALL     ?XSTACK_DISP100_8
   \   000063   88..         MOV       ?V2,R0
   \   000065   89..         MOV       ?V3,R1
   \   000067   78..         MOV       R0,#?V2
   \   000069   12....       LCALL     ?PUSH_XSTACK_I_TWO
   \   00006C   75..36       MOV       ?V2,#0x36
   \   00006F   75..80       MOV       ?V3,#-0x80
   \   000072   78..         MOV       R0,#?V2
   \   000074   12....       LCALL     ?PUSH_XSTACK_I_TWO
   \   000077   7901         MOV       R1,#0x1
   \   000079   AC..         MOV       R4,?V0
   \   00007B   AD..         MOV       R5,?V1
   \   00007D   EE           MOV       A,R6
   \   00007E   240F         ADD       A,#0xf
   \   000080   FA           MOV       R2,A
   \   000081   E4           CLR       A
   \   000082   3F           ADDC      A,R7
   \   000083   FB           MOV       R3,A
   \   000084   12....       LCALL     `??ZDP_SendData::?relay`; Banked call to: ZDP_SendData
   \   000087   7405         MOV       A,#0x5
   \   000089   12....       LCALL     ?DEALLOC_XSTACK8
   1988            }
   1989          }
   \                     ??ZDO_ProcessMgmtPermitJoinReq_1:
   \   00008C   7401         MOV       A,#0x1
   \   00008E   02....       LJMP      ?Subroutine1 & 0xFFFF

   \                                 In  segment BANKED_CODE, align 1, keep-with-next
   \                     ?Subroutine121:
   \   000000   EE           MOV       A,R6
   \   000001   2402         ADD       A,#0x2
   \   000003   F5..         MOV       ?V0,A
   \   000005   E4           CLR       A
   \   000006   3F           ADDC      A,R7
   \   000007   F5..         MOV       ?V1,A
   \   000009   22           RET
   1990          
   1991          /*
   1992           * This function stub allows the next higher layer to be notified of
   1993           * a permit joining timeout.
   1994           */
   1995          /*********************************************************************
   1996           * @fn          ZDO_ProcessMgmtPermitJoinTimeout
   1997           *
   1998           * @brief       This function stub allows the next higher layer to be
   1999           *              notified of a permit joining timeout. Currently, this
   2000           *              directly bypasses the APS layer.
   2001           *
   2002           * @param       none
   2003           *
   2004           * @return      none
   2005           */

   \                                 In  segment BANKED_CODE, align 1, keep-with-next
   2006          void ZDO_ProcessMgmtPermitJoinTimeout( void )
   \                     NLME_PermitJoiningTimeout:
   2007          {
   \   000000   C082         PUSH      DPL
   \   000002   C083         PUSH      DPH
   \   000004                ; Saved register size: 2
   \   000004                ; Auto size: 0
   2008            #if defined( ZDO_MGMT_PERMIT_JOIN_RESPONSE )
   2009            // Currently, only the ZDSecMgr needs to be notified
   2010            if ( ZG_SECURE_ENABLED && ZG_BUILD_COORDINATOR_TYPE && ZG_DEVICE_COORDINATOR_TYPE )
   2011            {
   2012              ZDSecMgrPermitJoiningTimeout();
   \   000004                ; Setup parameters for call to function ZDSecMgrPermitJoiningTimeout
   \   000004   12....       LCALL     `??ZDSecMgrPermitJoiningTimeout::?relay`; Banked call to: ZDSecMgrPermitJoiningTimeout
   2013            }
   2014            #endif
   2015          }
   \   000007                REQUIRE ?Subroutine0
   \   000007                ; // Fall through to label ?Subroutine0
   2016          
   2017          /*********************************************************************
   2018           * @fn          ZDO_ProcessUserDescReq
   2019           *
   2020           * @brief       This function finishes the processing of the User
   2021           *              Descriptor Request and generates the response.
   2022           *
   2023           * @param       inMsg - incoming message (request)
   2024           *
   2025           * @return      none
   2026           */

   \                                 In  segment BANKED_CODE, align 1, keep-with-next
   2027          void ZDO_ProcessUserDescReq( zdoIncomingMsg_t *inMsg )
   \                     ZDO_ProcessUserDescReq:
   2028          {
   \   000000                REQUIRE ?V0
   \   000000                REQUIRE ?V1
   \   000000                REQUIRE ?V2
   \   000000                REQUIRE ?V3
   \   000000                REQUIRE ?V4
   \   000000                REQUIRE ?V5
   \   000000                REQUIRE ?V6
   \   000000                REQUIRE ?V7
   \   000000   74F0         MOV       A,#-0x10
   \   000002   12....       LCALL     ?BANKED_ENTER_XDATA
   \   000005                ; Saved register size: 16
   \   000005                ; Auto size: 17
   \   000005   74EF         MOV       A,#-0x11
   \   000007   12....       LCALL     ?ALLOC_XSTACK8
   \   00000A   12....       LCALL     ?Subroutine74 & 0xFFFF
   2029            uint16 aoi = BUILD_UINT16( inMsg->asdu[0], inMsg->asdu[1] );
   \                     ??CrossCallReturnLabel_123:
   \   00000D   F8           MOV       R0,A
   \   00000E   E4           CLR       A
   \   00000F   C8           XCH       A,R0
   \   000010   F9           MOV       R1,A
   \   000011   EA           MOV       A,R2
   \   000012   28           ADD       A,R0
   \   000013   F5..         MOV       ?V4,A
   \   000015   E4           CLR       A
   \   000016   39           ADDC      A,R1
   \   000017   F5..         MOV       ?V5,A
   2030            UserDescriptorFormat_t userDesc;
   2031          
   2032            if ( (aoi == ZDAppNwkAddr.addr.shortAddr) && (ZSUCCESS == osal_nv_read(
   2033                       ZCD_NV_USERDESC, 0, sizeof(UserDescriptorFormat_t), &userDesc )) )
   \   000019   EE           MOV       A,R6
   \   00001A   240F         ADD       A,#0xf
   \   00001C   F5..         MOV       ?V2,A
   \   00001E   E4           CLR       A
   \   00001F   3F           ADDC      A,R7
   \   000020   F5..         MOV       ?V3,A
   \   000022   12....       LCALL     ?Subroutine121 & 0xFFFF
   \                     ??CrossCallReturnLabel_211:
   \   000025   90....       MOV       DPTR,#ZDAppNwkAddr
   \   000028   E0           MOVX      A,@DPTR
   \   000029   65..         XRL       A,?V4
   \   00002B   7004         JNZ       ??ZDO_ProcessUserDescReq_0
   \   00002D   A3           INC       DPTR
   \   00002E   E0           MOVX      A,@DPTR
   \   00002F   65..         XRL       A,?V5
   \                     ??ZDO_ProcessUserDescReq_0:
   \   000031   705B         JNZ       ??ZDO_ProcessUserDescReq_1
   \   000033                ; Setup parameters for call to function osal_nv_read
   \   000033   A8..         MOV       R0,?XSP + 0
   \   000035   A9..         MOV       R1,?XSP + 1
   \   000037   88..         MOV       ?V6,R0
   \   000039   89..         MOV       ?V7,R1
   \   00003B   78..         MOV       R0,#?V6
   \   00003D   12....       LCALL     ?PUSH_XSTACK_I_TWO
   \   000040   75..11       MOV       ?V6,#0x11
   \   000043   75..00       MOV       ?V7,#0x0
   \   000046   78..         MOV       R0,#?V6
   \   000048   12....       LCALL     ?PUSH_XSTACK_I_TWO
   \   00004B   7C00         MOV       R4,#0x0
   \   00004D   7D00         MOV       R5,#0x0
   \   00004F   7A81         MOV       R2,#-0x7f
   \   000051   7B00         MOV       R3,#0x0
   \   000053   12....       LCALL     `??osal_nv_read::?relay`; Banked call to: osal_nv_read
   \   000056   7404         MOV       A,#0x4
   \   000058   12....       LCALL     ?DEALLOC_XSTACK8
   \   00005B   E9           MOV       A,R1
   \   00005C   7030         JNZ       ??ZDO_ProcessUserDescReq_1
   2034            {
   2035              ZDP_UserDescRsp( inMsg->TransSeq, &(inMsg->srcAddr), aoi, &userDesc, false );
   \   00005E                ; Setup parameters for call to function ZDP_UserDescRsp
   \   00005E   75..00       MOV       ?V6,#0x0
   \   000061   78..         MOV       R0,#?V6
   \   000063   12....       LCALL     ?PUSH_XSTACK_I_ONE
   \   000066   7401         MOV       A,#0x1
   \   000068   12....       LCALL     ?XSTACK_DISP100_8
   \   00006B   88..         MOV       ?V6,R0
   \   00006D   89..         MOV       ?V7,R1
   \   00006F   78..         MOV       R0,#?V6
   \   000071   12....       LCALL     ?PUSH_XSTACK_I_TWO
   \   000074   AC..         MOV       R4,?V4
   \   000076   AD..         MOV       R5,?V5
   \   000078   AA..         MOV       R2,?V0
   \   00007A   AB..         MOV       R3,?V1
   \   00007C   85..82       MOV       DPL,?V2
   \   00007F   85..83       MOV       DPH,?V3
   \   000082   E0           MOVX      A,@DPTR
   \   000083   F9           MOV       R1,A
   \   000084   12....       LCALL     `??ZDP_UserDescRsp::?relay`; Banked call to: ZDP_UserDescRsp
   \   000087   7403         MOV       A,#0x3
   \   000089   12....       LCALL     ?DEALLOC_XSTACK8
   \   00008C   802A         SJMP      ??ZDO_ProcessUserDescReq_2
   2036            }
   2037            else
   2038            {
   2039              ZDP_GenericRsp(inMsg->TransSeq, &(inMsg->srcAddr),
   2040                     ZDP_NOT_SUPPORTED, aoi, User_Desc_rsp, inMsg->SecurityUse );
   \                     ??ZDO_ProcessUserDescReq_1:
   \   00008E                ; Setup parameters for call to function ZDP_GenericRsp
   \   00008E   75..11       MOV       ?V6,#0x11
   \   000091   75..80       MOV       ?V7,#-0x80
   \   000094   78..         MOV       R0,#?V6
   \   000096   12....       LCALL     ?PUSH_XSTACK_I_TWO
   \   000099   78..         MOV       R0,#?V4
   \   00009B   12....       LCALL     ?PUSH_XSTACK_I_TWO
   \   00009E   12....       LCALL     ?Subroutine101 & 0xFFFF
   2041            }
   \                     ??CrossCallReturnLabel_395:
   \   0000A1   FD           MOV       R5,A
   \   0000A2   7C84         MOV       R4,#-0x7c
   \   0000A4   AA..         MOV       R2,?V0
   \   0000A6   AB..         MOV       R3,?V1
   \   0000A8   85..82       MOV       DPL,?V2
   \   0000AB   85..83       MOV       DPH,?V3
   \   0000AE   E0           MOVX      A,@DPTR
   \   0000AF   F9           MOV       R1,A
   \   0000B0   12....       LCALL     `??ZDP_GenericRsp::?relay`; Banked call to: ZDP_GenericRsp
   \   0000B3   7404         MOV       A,#0x4
   \   0000B5   12....       LCALL     ?DEALLOC_XSTACK8
   2042          }
   \                     ??ZDO_ProcessUserDescReq_2:
   \   0000B8   7411         MOV       A,#0x11
   \   0000BA   02....       LJMP      ?Subroutine8 & 0xFFFF
   2043          
   2044          /*********************************************************************
   2045           * @fn          ZDO_ProcessUserDescSet
   2046           *
   2047           * @brief       This function finishes the processing of the User
   2048           *              Descriptor Set and generates the response.
   2049           *
   2050           * @param       inMsg - incoming message (request)
   2051           *
   2052           * @return      none
   2053           */

   \                                 In  segment BANKED_CODE, align 1, keep-with-next
   2054          void ZDO_ProcessUserDescSet( zdoIncomingMsg_t *inMsg )
   \                     ZDO_ProcessUserDescSet:
   2055          {
   \   000000                REQUIRE ?V0
   \   000000                REQUIRE ?V1
   \   000000                REQUIRE ?V2
   \   000000                REQUIRE ?V3
   \   000000                REQUIRE ?V4
   \   000000                REQUIRE ?V5
   \   000000                REQUIRE ?V6
   \   000000   74F1         MOV       A,#-0xf
   \   000002   12....       LCALL     ?BANKED_ENTER_XDATA
   \   000005                ; Saved register size: 15
   \   000005                ; Auto size: 21
   \   000005   74EB         MOV       A,#-0x15
   \   000007   12....       LCALL     ?ALLOC_XSTACK8
   \   00000A   8A..         MOV       ?V2,R2
   \   00000C   8B..         MOV       ?V3,R3
   2056            uint8 *msg;
   2057            uint16 aoi;
   2058            UserDescriptorFormat_t userDesc;
   2059            uint8 outMsg[3];
   2060            uint8 status;
   2061          
   2062            msg = inMsg->asdu;
   \   00000E   12....       LCALL     ??Subroutine185_0 & 0xFFFF
   \                     ??CrossCallReturnLabel_386:
   \   000011   35..         ADDC      A,?V3
   \   000013   12....       LCALL     ?Subroutine73 & 0xFFFF
   2063            aoi = BUILD_UINT16( msg[0], msg[1] );
   \                     ??CrossCallReturnLabel_120:
   \   000016   FA           MOV       R2,A
   \   000017   E4           CLR       A
   \   000018   CA           XCH       A,R2
   \   000019   FB           MOV       R3,A
   \   00001A   EC           MOV       A,R4
   \   00001B   2A           ADD       A,R2
   \   00001C   FE           MOV       R6,A
   \   00001D   E4           CLR       A
   \   00001E   3B           ADDC      A,R3
   \   00001F   FF           MOV       R7,A
   2064          
   2065            if ( aoi == ZDAppNwkAddr.addr.shortAddr )
   \   000020   90....       MOV       DPTR,#ZDAppNwkAddr
   \   000023   E0           MOVX      A,@DPTR
   \   000024   6E           XRL       A,R6
   \   000025   7003         JNZ       ??ZDO_ProcessUserDescSet_0
   \   000027   A3           INC       DPTR
   \   000028   E0           MOVX      A,@DPTR
   \   000029   6F           XRL       A,R7
   \                     ??ZDO_ProcessUserDescSet_0:
   \   00002A   6003         JZ        $+5
   \   00002C   02....       LJMP      ??ZDO_ProcessUserDescSet_1 & 0xFFFF
   2066            {
   2067              userDesc.len = (msg[2] < AF_MAX_USER_DESCRIPTOR_LEN) ? msg[2] : AF_MAX_USER_DESCRIPTOR_LEN;
   \   00002F   8882         MOV       DPL,R0
   \   000031   8983         MOV       DPH,R1
   \   000033   A3           INC       DPTR
   \   000034   A3           INC       DPTR
   \   000035   E0           MOVX      A,@DPTR
   \   000036   FA           MOV       R2,A
   \   000037   9410         SUBB      A,#0x10
   \   000039   5004         JNC       ??ZDO_ProcessUserDescSet_2
   \   00003B   8A..         MOV       ?V0,R2
   \   00003D   8003         SJMP      ??ZDO_ProcessUserDescSet_3
   \                     ??ZDO_ProcessUserDescSet_2:
   \   00003F   75..10       MOV       ?V0,#0x10
   \                     ??ZDO_ProcessUserDescSet_3:
   \   000042   7404         MOV       A,#0x4
   \   000044   12....       LCALL     ?XSTACK_DISP0_8
   \   000047   E5..         MOV       A,?V0
   \   000049   12....       LCALL     ?Subroutine40 & 0xFFFF
   2068              msg ++;  // increment one for the length field
   2069          
   2070              osal_memcpy( userDesc.desc, &msg[2], userDesc.len );
   \                     ??CrossCallReturnLabel_57:
   \   00004C   A982         MOV       R1,DPL
   \   00004E   AA83         MOV       R2,DPH
   \   000050   89..         MOV       ?V4,R1
   \   000052   8A..         MOV       ?V5,R2
   \   000054   75..00       MOV       ?V6,#0x0
   \   000057   78..         MOV       R0,#?V4
   \   000059   12....       LCALL     ?PUSH_XSTACK_I_THREE
   \   00005C   7407         MOV       A,#0x7
   \   00005E   12....       LCALL     ?XSTACK_DISP0_8
   \   000061   E0           MOVX      A,@DPTR
   \   000062   FC           MOV       R4,A
   \   000063   7D00         MOV       R5,#0x0
   \   000065   7408         MOV       A,#0x8
   \   000067   12....       LCALL     ?XSTACK_DISP0_8
   \   00006A   AA82         MOV       R2,DPL
   \   00006C   AB83         MOV       R3,DPH
   \   00006E   12....       LCALL     `??osal_memcpy::?relay`; Banked call to: osal_memcpy
   \   000071   7403         MOV       A,#0x3
   \   000073   12....       LCALL     ?DEALLOC_XSTACK8
   2071              osal_nv_write( ZCD_NV_USERDESC, 0, sizeof(UserDescriptorFormat_t), &userDesc );
   \   000076                ; Setup parameters for call to function osal_nv_write
   \   000076   7404         MOV       A,#0x4
   \   000078   12....       LCALL     ?XSTACK_DISP100_8
   \   00007B   88..         MOV       ?V4,R0
   \   00007D   89..         MOV       ?V5,R1
   \   00007F   78..         MOV       R0,#?V4
   \   000081   12....       LCALL     ?PUSH_XSTACK_I_TWO
   \   000084   75..11       MOV       ?V4,#0x11
   \   000087   75..00       MOV       ?V5,#0x0
   \   00008A   78..         MOV       R0,#?V4
   \   00008C   12....       LCALL     ?PUSH_XSTACK_I_TWO
   \   00008F   7C00         MOV       R4,#0x0
   \   000091   7D00         MOV       R5,#0x0
   \   000093   7A81         MOV       R2,#-0x7f
   \   000095   7B00         MOV       R3,#0x0
   \   000097   12....       LCALL     `??osal_nv_write::?relay`; Banked call to: osal_nv_write
   \   00009A   7404         MOV       A,#0x4
   \   00009C   12....       LCALL     ?DEALLOC_XSTACK8
   2072              if ( userDesc.len != 0 )
   \   00009F   7404         MOV       A,#0x4
   \   0000A1   12....       LCALL     ?XSTACK_DISP0_8
   \   0000A4   E0           MOVX      A,@DPTR
   \   0000A5   90....       MOV       DPTR,#ZDO_Config_Node_Descriptor
   \   0000A8   6005         JZ        ??ZDO_ProcessUserDescSet_4
   2073              {
   2074                ZDO_Config_Node_Descriptor.UserDescAvail = TRUE;
   \   0000AA   E0           MOVX      A,@DPTR
   \   0000AB   D2E4         SETB      0xE0 /* A   */.4
   \   0000AD   8003         SJMP      ??ZDO_ProcessUserDescSet_5
   2075              }
   2076              else
   2077              {
   2078                ZDO_Config_Node_Descriptor.UserDescAvail = FALSE;
   \                     ??ZDO_ProcessUserDescSet_4:
   \   0000AF   E0           MOVX      A,@DPTR
   \   0000B0   C2E4         CLR       0xE0 /* A   */.4
   2079              }
   2080          
   2081              status = ZDP_SUCCESS;
   2082            }
   \                     ??ZDO_ProcessUserDescSet_5:
   \   0000B2   12....       LCALL     ?Subroutine34 & 0xFFFF
   \                     ??CrossCallReturnLabel_46:
   \   0000B5   E4           CLR       A
   \   0000B6   8008         SJMP      ??ZDO_ProcessUserDescSet_6
   2083            else
   2084            {
   2085              status =  ZDP_NOT_SUPPORTED;
   \                     ??ZDO_ProcessUserDescSet_1:
   \   0000B8   85..82       MOV       DPL,?XSP + 0
   \   0000BB   85..83       MOV       DPH,?XSP + 1
   \   0000BE   7484         MOV       A,#-0x7c
   \                     ??ZDO_ProcessUserDescSet_6:
   \   0000C0   F0           MOVX      @DPTR,A
   2086            }
   2087          
   2088            outMsg[0] = status;
   \   0000C1   E0           MOVX      A,@DPTR
   \   0000C2   C0E0         PUSH      A
   \   0000C4   7401         MOV       A,#0x1
   \   0000C6   12....       LCALL     ?XSTACK_DISP0_8
   \   0000C9   D0E0         POP       A
   \   0000CB   F0           MOVX      @DPTR,A
   2089            outMsg[1] = LO_UINT16( aoi );
   \   0000CC   7402         MOV       A,#0x2
   \   0000CE   12....       LCALL     ?XSTACK_DISP0_8
   \   0000D1   EE           MOV       A,R6
   \   0000D2   F0           MOVX      @DPTR,A
   2090            outMsg[2] = LO_UINT16( aoi );
   \   0000D3   7403         MOV       A,#0x3
   \   0000D5   12....       LCALL     ?XSTACK_DISP0_8
   \   0000D8   EE           MOV       A,R6
   \   0000D9   F0           MOVX      @DPTR,A
   2091          
   2092            ZDP_SendData( &(inMsg->TransSeq), &(inMsg->srcAddr), User_Desc_conf, 3, outMsg,
   2093                         inMsg->SecurityUse );
   \   0000DA                ; Setup parameters for call to function ZDP_SendData
   \   0000DA   E5..         MOV       A,?V2
   \   0000DC   12....       LCALL     ?Subroutine116 & 0xFFFF
   \                     ??CrossCallReturnLabel_195:
   \   0000DF   35..         ADDC      A,?V3
   \   0000E1   F583         MOV       DPH,A
   \   0000E3   E0           MOVX      A,@DPTR
   \   0000E4   F5..         MOV       ?V1,A
   \   0000E6   78..         MOV       R0,#?V1
   \   0000E8   12....       LCALL     ?PUSH_XSTACK_I_ONE
   \   0000EB   7402         MOV       A,#0x2
   \   0000ED   12....       LCALL     ?XSTACK_DISP100_8
   \   0000F0   88..         MOV       ?V4,R0
   \   0000F2   89..         MOV       ?V5,R1
   \   0000F4   78..         MOV       R0,#?V4
   \   0000F6   12....       LCALL     ?PUSH_XSTACK_I_TWO
   \   0000F9   75..14       MOV       ?V4,#0x14
   \   0000FC   75..80       MOV       ?V5,#-0x80
   \   0000FF   78..         MOV       R0,#?V4
   \   000101   12....       LCALL     ?PUSH_XSTACK_I_TWO
   \   000104   7903         MOV       R1,#0x3
   \   000106   E5..         MOV       A,?V2
   \   000108   2402         ADD       A,#0x2
   \   00010A   FC           MOV       R4,A
   \   00010B   E4           CLR       A
   \   00010C   35..         ADDC      A,?V3
   \   00010E   FD           MOV       R5,A
   \   00010F   E5..         MOV       A,?V2
   \   000111   240F         ADD       A,#0xf
   \   000113   FA           MOV       R2,A
   \   000114   E4           CLR       A
   \   000115   35..         ADDC      A,?V3
   \   000117   FB           MOV       R3,A
   \   000118   12....       LCALL     `??ZDP_SendData::?relay`; Banked call to: ZDP_SendData
   \   00011B   7405         MOV       A,#0x5
   \   00011D   12....       LCALL     ?DEALLOC_XSTACK8
   2094          }
   \   000120   7415         MOV       A,#0x15
   \   000122   12....       LCALL     ?DEALLOC_XSTACK8
   \   000125   7F07         MOV       R7,#0x7
   \   000127   02....       LJMP      ?BANKED_LEAVE_XDATA

   \                                 In  segment BANKED_CODE, align 1, keep-with-next
   \                     ?Subroutine116:
   \   000000   240E         ADD       A,#0xe
   \   000002   F582         MOV       DPL,A
   \   000004   E4           CLR       A
   \   000005   22           RET

   \                                 In  segment BANKED_CODE, align 1, keep-with-next
   \                     ?Subroutine40:
   \   000000   12....       LCALL     ?Subroutine141 & 0xFFFF
   \                     ??CrossCallReturnLabel_258:
   \   000003   22           RET

   \                                 In  segment BANKED_CODE, align 1, keep-with-next
   \                     ?Subroutine141:
   \   000000   12....       LCALL     ?Subroutine159 & 0xFFFF
   \                     ??CrossCallReturnLabel_276:
   \   000003   22           RET

   \                                 In  segment BANKED_CODE, align 1, keep-with-next
   \                     ?Subroutine159:
   \   000000   F0           MOVX      @DPTR,A
   \   000001                ; Setup parameters for call to function osal_memcpy
   \   000001   8882         MOV       DPL,R0
   \   000003   8983         MOV       DPH,R1
   \   000005   A3           INC       DPTR
   \   000006   A3           INC       DPTR
   \   000007   A3           INC       DPTR
   \   000008   22           RET
   2095          
   2096          /*********************************************************************
   2097           * @fn          ZDO_ProcessDeviceAnnce
   2098           *
   2099           * @brief       This function processes a device annouce message.
   2100           *
   2101           * @param       inMsg - incoming message
   2102           *
   2103           * @return      none
   2104           */

   \                                 In  segment BANKED_CODE, align 1, keep-with-next
   2105          void ZDO_ProcessDeviceAnnce( zdoIncomingMsg_t *inMsg )
   \                     ZDO_ProcessDeviceAnnce:
   2106          {
   \   000000                REQUIRE ?V0
   \   000000                REQUIRE ?V1
   \   000000                REQUIRE ?V2
   \   000000                REQUIRE ?V4
   \   000000                REQUIRE ?V5
   \   000000                REQUIRE ?V6
   \   000000                REQUIRE ?V7
   \   000000   74F0         MOV       A,#-0x10
   \   000002   12....       LCALL     ?BANKED_ENTER_XDATA
   \   000005                ; Saved register size: 16
   \   000005                ; Auto size: 40
   \   000005   74D8         MOV       A,#-0x28
   \   000007   12....       LCALL     ?ALLOC_XSTACK8
   \   00000A   EA           MOV       A,R2
   \   00000B   FE           MOV       R6,A
   \   00000C   EB           MOV       A,R3
   \   00000D   FF           MOV       R7,A
   2107            ZDO_DeviceAnnce_t Annce;
   2108            AddrMgrEntry_t addrEntry;
   2109            uint8 parentExt[Z_EXTADDR_LEN];
   2110          #if !defined (DISABLE_GREENPOWER_BASIC_PROXY) && (ZG_BUILD_RTR_TYPE)
   2111            uint8 invalidIEEE[Z_EXTADDR_LEN] = {0xFF, 0xFF, 0xFF, 0xFF, 0xFF, 0xFF, 0xFF, 0xFF};
   \   00000E   90....       MOV       DPTR,#`?<Constant {255, 255, 255, 255, 255, 255, 255,`
   \   000011   7420         MOV       A,#0x20
   \   000013   12....       LCALL     ?XSTACK_DISP102_8
   \   000016   7408         MOV       A,#0x8
   \   000018   12....       LCALL     ?MOVE_LONG8_XDATA_XDATA
   2112          #endif
   2113          
   2114            if ( (_NIB.nwkState != NWK_ROUTER) && (_NIB.nwkState != NWK_ENDDEVICE) )
   \   00001B   90....       MOV       DPTR,#_NIB + 35
   \   00001E   E0           MOVX      A,@DPTR
   \   00001F   F8           MOV       R0,A
   \   000020   7408         MOV       A,#0x8
   \   000022   68           XRL       A,R0
   \   000023   6008         JZ        ??ZDO_ProcessDeviceAnnce_0
   \   000025   7404         MOV       A,#0x4
   \   000027   68           XRL       A,R0
   \   000028   6003         JZ        $+5
   \   00002A   02....       LJMP      ??ZDO_ProcessDeviceAnnce_1 & 0xFFFF
   2115            {
   2116              // we arent stable, ignore the message
   2117              return;
   2118            }
   2119            
   2120            // Parse incoming message
   2121            ZDO_ParseDeviceAnnce( inMsg, &Annce );
   \                     ??ZDO_ProcessDeviceAnnce_0:
   \   00002D                ; Setup parameters for call to function ZDO_ParseDeviceAnnce
   \   00002D   AC..         MOV       R4,?XSP + 0
   \   00002F   AD..         MOV       R5,?XSP + 1
   \   000031   12....       LCALL     `??ZDO_ParseDeviceAnnce::?relay`; Banked call to: ZDO_ParseDeviceAnnce
   2122          
   2123            if ( ZSTACK_END_DEVICE_BUILD )
   2124            {
   2125              // Make sure the message didn't come from myself - end device only
   2126              if ( osal_ExtAddrEqual( NLME_GetExtAddr(), Annce.extAddr ) && Annce.nwkAddr == NLME_GetShortAddr() )
   2127              {
   2128                return;
   2129              }
   2130            }
   2131          
   2132          #if defined ( ZIGBEEPRO )
   2133            // Clean up the neighbor table
   2134            nwkNeighborRemoveAllStranded();
   \   000034                ; Setup parameters for call to function nwkNeighborRemoveAllStranded
   \   000034   12....       LCALL     `??nwkNeighborRemoveAllStranded::?relay`; Banked call to: nwkNeighborRemoveAllStranded
   2135          
   2136            // If address conflict is detected, no need to update the address manager
   2137            if ( NLME_CheckNewAddrSet( Annce.nwkAddr, Annce.extAddr )== ZFailure )
   \   000037                ; Setup parameters for call to function NLME_CheckNewAddrSet
   \   000037   7402         MOV       A,#0x2
   \   000039   12....       LCALL     ?XSTACK_DISP0_8
   \   00003C   AC82         MOV       R4,DPL
   \   00003E   AD83         MOV       R5,DPH
   \   000040   12....       LCALL     ?Subroutine88 & 0xFFFF
   \                     ??CrossCallReturnLabel_430:
   \   000043   12....       LCALL     `??NLME_CheckNewAddrSet::?relay`; Banked call to: NLME_CheckNewAddrSet
   \   000046   E9           MOV       A,R1
   \   000047   6401         XRL       A,#0x1
   \   000049   7003         JNZ       $+5
   \   00004B   02....       LJMP      ??ZDO_ProcessDeviceAnnce_1 & 0xFFFF
   2138            {
   2139              return;
   2140            }
   2141          
   2142            // Check for parent's address
   2143            NLME_GetCoordExtAddr( parentExt );
   \   00004E                ; Setup parameters for call to function NLME_GetCoordExtAddr
   \   00004E   7418         MOV       A,#0x18
   \   000050   12....       LCALL     ?XSTACK_DISP101_8
   \   000053   12....       LCALL     `??NLME_GetCoordExtAddr::?relay`; Banked call to: NLME_GetCoordExtAddr
   2144            if ( osal_ExtAddrEqual( parentExt, Annce.extAddr ) )
   \   000056                ; Setup parameters for call to function sAddrExtCmp
   \   000056   7402         MOV       A,#0x2
   \   000058   12....       LCALL     ?XSTACK_DISP0_8
   \   00005B   AC82         MOV       R4,DPL
   \   00005D   AD83         MOV       R5,DPH
   \   00005F   7418         MOV       A,#0x18
   \   000061   12....       LCALL     ?XSTACK_DISP101_8
   \   000064   12....       LCALL     `??sAddrExtCmp::?relay`; Banked call to: sAddrExtCmp
   \   000067   E9           MOV       A,R1
   \   000068   602C         JZ        ??ZDO_ProcessDeviceAnnce_2
   2145            {
   2146              if ( Annce.nwkAddr != NLME_GetCoordShortAddr() )
   \   00006A                ; Setup parameters for call to function NLME_GetCoordShortAddr
   \   00006A   12....       LCALL     `??NLME_GetCoordShortAddr::?relay`; Banked call to: NLME_GetCoordShortAddr
   \   00006D   8A..         MOV       ?V0,R2
   \   00006F   8B..         MOV       ?V1,R3
   \   000071   A8..         MOV       R0,?V0
   \   000073   A9..         MOV       R1,?V1
   \   000075   85..82       MOV       DPL,?XSP + 0
   \   000078   85..83       MOV       DPH,?XSP + 1
   \   00007B   E0           MOVX      A,@DPTR
   \   00007C   68           XRL       A,R0
   \   00007D   7003         JNZ       ??ZDO_ProcessDeviceAnnce_3
   \   00007F   A3           INC       DPTR
   \   000080   E0           MOVX      A,@DPTR
   \   000081   69           XRL       A,R1
   \                     ??ZDO_ProcessDeviceAnnce_3:
   \   000082   6012         JZ        ??ZDO_ProcessDeviceAnnce_2
   2147              {
   2148                // Set the Parent's MAC's new short address
   2149                _NIB.nwkCoordAddress = Annce.nwkAddr;
   \   000084   12....       LCALL     ?Subroutine99 & 0xFFFF
   \                     ??CrossCallReturnLabel_328:
   \   000087   90....       MOV       DPTR,#_NIB + 23
   \   00008A   12....       LCALL     ??Subroutine178_0 & 0xFFFF
   2150                ZMacSetReq( ZMacCoordShortAddress, (byte*)&(_NIB.nwkCoordAddress) );
   \                     ??CrossCallReturnLabel_339:
   \   00008D                ; Setup parameters for call to function ZMacSetReq
   \   00008D   7A..         MOV       R2,#(_NIB + 23) & 0xff
   \   00008F   7B..         MOV       R3,#((_NIB + 23) >> 8) & 0xff
   \   000091   794B         MOV       R1,#0x4b
   \   000093   12....       LCALL     `??ZMacSetReq::?relay`; Banked call to: ZMacSetReq
   2151              }
   2152            }
   2153          
   2154            if ( ZSTACK_ROUTER_BUILD )
   2155            {
   2156              // If the device annce comes from a end device child that has moved
   2157              // to another parent, remove it from associated device list
   2158          
   2159              // If the dev annce is coming from other device's children,
   2160              // (The dev annce from its own children shall be unicast to itself,
   2161              // So check the mac destination address)
   2162              // Remove it from the associated device list. If it is not
   2163              // a child, no action will be taken in AssocRemove() anyway.
   2164              if ( inMsg->macDestAddr != NLME_GetShortAddr() )
   \                     ??ZDO_ProcessDeviceAnnce_2:
   \   000096                ; Setup parameters for call to function NLME_GetShortAddr
   \   000096   12....       LCALL     `??NLME_GetShortAddr::?relay`; Banked call to: NLME_GetShortAddr
   \   000099   8A..         MOV       ?V0,R2
   \   00009B   8B..         MOV       ?V1,R3
   \   00009D   A8..         MOV       R0,?V0
   \   00009F   A9..         MOV       R1,?V1
   \   0000A1   EE           MOV       A,R6
   \   0000A2   2411         ADD       A,#0x11
   \   0000A4   12....       LCALL     ??Subroutine187_0 & 0xFFFF
   \                     ??CrossCallReturnLabel_391:
   \   0000A7   68           XRL       A,R0
   \   0000A8   7003         JNZ       ??ZDO_ProcessDeviceAnnce_4
   \   0000AA   A3           INC       DPTR
   \   0000AB   E0           MOVX      A,@DPTR
   \   0000AC   69           XRL       A,R1
   \                     ??ZDO_ProcessDeviceAnnce_4:
   \   0000AD   604E         JZ        ??ZDO_ProcessDeviceAnnce_5
   2165              {
   2166                associated_devices_t *dev_ptr;
   2167          
   2168                // If it's an end device child
   2169                dev_ptr = AssocGetWithExt( Annce.extAddr );
   \   0000AF                ; Setup parameters for call to function AssocGetWithExt
   \   0000AF   7402         MOV       A,#0x2
   \   0000B1   12....       LCALL     ?XSTACK_DISP0_8
   \   0000B4   AA82         MOV       R2,DPL
   \   0000B6   AB83         MOV       R3,DPH
   \   0000B8   12....       LCALL     `??AssocGetWithExt::?relay`; Banked call to: AssocGetWithExt
   \   0000BB   8A82         MOV       DPL,R2
   \   0000BD   8B83         MOV       DPH,R3
   2170                if ( dev_ptr )
   \   0000BF   E582         MOV       A,DPL
   \   0000C1   4583         ORL       A,DPH
   \   0000C3   601C         JZ        ??ZDO_ProcessDeviceAnnce_6
   2171                {
   2172                  if ( dev_ptr->nodeRelation == CHILD_RFD ||
   2173                       dev_ptr->nodeRelation == CHILD_RFD_RX_IDLE )
   \   0000C5   A3           INC       DPTR
   \   0000C6   A3           INC       DPTR
   \   0000C7   A3           INC       DPTR
   \   0000C8   A3           INC       DPTR
   \   0000C9   E0           MOVX      A,@DPTR
   \   0000CA   F8           MOV       R0,A
   \   0000CB   7401         MOV       A,#0x1
   \   0000CD   68           XRL       A,R0
   \   0000CE   6005         JZ        ??ZDO_ProcessDeviceAnnce_7
   \   0000D0   7402         MOV       A,#0x2
   \   0000D2   68           XRL       A,R0
   \   0000D3   700C         JNZ       ??ZDO_ProcessDeviceAnnce_6
   2174                  {
   2175                    AssocRemove( Annce.extAddr );
   \                     ??ZDO_ProcessDeviceAnnce_7:
   \   0000D5                ; Setup parameters for call to function AssocRemove
   \   0000D5   7402         MOV       A,#0x2
   \   0000D7   12....       LCALL     ?XSTACK_DISP0_8
   \   0000DA   AA82         MOV       R2,DPL
   \   0000DC   AB83         MOV       R3,DPH
   \   0000DE   12....       LCALL     `??AssocRemove::?relay`; Banked call to: AssocRemove
   2176                  }
   2177                }
   2178          
   2179                // Remove the address from the SrcMatch table,
   2180                // just in case the device was aged out by Child Management Table process
   2181                if ( ( pNwkNotMyChildListDelete != NULL ) &&
   2182                     ( zgChildAgingEnable == TRUE ) )
   \                     ??ZDO_ProcessDeviceAnnce_6:
   \   0000E1   90....       MOV       DPTR,#pNwkNotMyChildListDelete
   \   0000E4   12....       LCALL     ??Subroutine193_0 & 0xFFFF
   \                     ??CrossCallReturnLabel_410:
   \   0000E7   6014         JZ        ??ZDO_ProcessDeviceAnnce_5
   \   0000E9   90....       MOV       DPTR,#zgChildAgingEnable
   \   0000EC   E0           MOVX      A,@DPTR
   \   0000ED   6401         XRL       A,#0x1
   \   0000EF   700C         JNZ       ??ZDO_ProcessDeviceAnnce_5
   2183                {
   2184                  pNwkNotMyChildListDelete( Annce.nwkAddr );
   \   0000F1                ; Setup parameters for indirect call
   \   0000F1   12....       LCALL     ?Subroutine88 & 0xFFFF
   2185                }
   2186              }
   2187            }
   \                     ??CrossCallReturnLabel_431:
   \   0000F4   90....       MOV       DPTR,#pNwkNotMyChildListDelete + 1
   \   0000F7   12....       LCALL     ??Subroutine169_0 & 0xFFFF
   \                     ??CrossCallReturnLabel_292:
   \   0000FA   12....       LCALL     ?CALL_IND
   2188          
   2189            // Assume that the device has moved, remove existing routing entries
   2190            RTG_RemoveRtgEntry( Annce.nwkAddr, 0 );
   \                     ??ZDO_ProcessDeviceAnnce_5:
   \   0000FD                ; Setup parameters for call to function RTG_RemoveRtgEntry
   \   0000FD   7900         MOV       R1,#0x0
   \   0000FF   12....       LCALL     ?Subroutine88 & 0xFFFF
   \                     ??CrossCallReturnLabel_432:
   \   000102   12....       LCALL     `??RTG_RemoveRtgEntry::?relay`; Banked call to: RTG_RemoveRtgEntry
   2191          
   2192            // Remove entry from neighborTable
   2193            nwkNeighborRemove( Annce.nwkAddr, _NIB.nwkPanId );
   \   000105                ; Setup parameters for call to function nwkNeighborRemove
   \   000105   90....       MOV       DPTR,#_NIB + 33
   \   000108   12....       LCALL     ??Subroutine192_0 & 0xFFFF
   \                     ??CrossCallReturnLabel_401:
   \   00010B   12....       LCALL     ?Subroutine88 & 0xFFFF
   \                     ??CrossCallReturnLabel_433:
   \   00010E   12....       LCALL     `??nwkNeighborRemove::?relay`; Banked call to: nwkNeighborRemove
   2194          
   2195          #endif // ZIGBEEPRO
   2196          
   2197            // Fill in the extended address in address manager if we don't have it already.
   2198            addrEntry.user = ADDRMGR_USER_DEFAULT;
   \   000111   740B         MOV       A,#0xb
   \   000113   12....       LCALL     ?XSTACK_DISP0_8
   \   000116   E4           CLR       A
   \   000117   12....       LCALL     ?Subroutine31 & 0xFFFF
   2199            addrEntry.nwkAddr = Annce.nwkAddr;
   \                     ??CrossCallReturnLabel_40:
   \   00011A   F9           MOV       R1,A
   \   00011B   740C         MOV       A,#0xc
   \   00011D   12....       LCALL     ?XSTACK_DISP0_8
   \   000120   12....       LCALL     ??Subroutine178_0 & 0xFFFF
   2200            if ( AddrMgrEntryLookupNwk( &addrEntry ) )
   \                     ??CrossCallReturnLabel_340:
   \   000123                ; Setup parameters for call to function AddrMgrEntryLookupNwk
   \   000123   740B         MOV       A,#0xb
   \   000125   12....       LCALL     ?XSTACK_DISP101_8
   \   000128   12....       LCALL     `??AddrMgrEntryLookupNwk::?relay`; Banked call to: AddrMgrEntryLookupNwk
   \   00012B   E9           MOV       A,R1
   \   00012C   603F         JZ        ??ZDO_ProcessDeviceAnnce_8
   2201            {
   2202              osal_memset( parentExt, 0, Z_EXTADDR_LEN );
   \   00012E                ; Setup parameters for call to function osal_memset
   \   00012E   7C08         MOV       R4,#0x8
   \   000130   7D00         MOV       R5,#0x0
   \   000132   7900         MOV       R1,#0x0
   \   000134   7418         MOV       A,#0x18
   \   000136   12....       LCALL     ?XSTACK_DISP101_8
   \   000139   12....       LCALL     `??osal_memset::?relay`; Banked call to: osal_memset
   2203              if ( osal_ExtAddrEqual( parentExt, addrEntry.extAddr ) )
   \   00013C                ; Setup parameters for call to function sAddrExtCmp
   \   00013C   740E         MOV       A,#0xe
   \   00013E   12....       LCALL     ?XSTACK_DISP0_8
   \   000141   AC82         MOV       R4,DPL
   \   000143   AD83         MOV       R5,DPH
   \   000145   7418         MOV       A,#0x18
   \   000147   12....       LCALL     ?XSTACK_DISP101_8
   \   00014A   12....       LCALL     `??sAddrExtCmp::?relay`; Banked call to: sAddrExtCmp
   \   00014D   E9           MOV       A,R1
   \   00014E   601D         JZ        ??ZDO_ProcessDeviceAnnce_8
   2204              {
   2205                AddrMgrExtAddrSet( addrEntry.extAddr, Annce.extAddr );
   \   000150                ; Setup parameters for call to function AddrMgrExtAddrSet
   \   000150   7402         MOV       A,#0x2
   \   000152   12....       LCALL     ?XSTACK_DISP0_8
   \   000155   AC82         MOV       R4,DPL
   \   000157   AD83         MOV       R5,DPH
   \   000159   740E         MOV       A,#0xe
   \   00015B   12....       LCALL     ?XSTACK_DISP0_8
   \   00015E   AA82         MOV       R2,DPL
   \   000160   AB83         MOV       R3,DPH
   \   000162   12....       LCALL     `??AddrMgrExtAddrSet::?relay`; Banked call to: AddrMgrExtAddrSet
   2206                AddrMgrEntryUpdate( &addrEntry );
   \   000165                ; Setup parameters for call to function AddrMgrEntryUpdate
   \   000165   740B         MOV       A,#0xb
   \   000167   12....       LCALL     ?XSTACK_DISP101_8
   \   00016A   12....       LCALL     `??AddrMgrEntryUpdate::?relay`; Banked call to: AddrMgrEntryUpdate
   2207              }
   2208            }
   2209          
   2210            // Update the short address in address manager if it's been changed
   2211            AddrMgrExtAddrSet( addrEntry.extAddr, Annce.extAddr );
   \                     ??ZDO_ProcessDeviceAnnce_8:
   \   00016D                ; Setup parameters for call to function AddrMgrExtAddrSet
   \   00016D   7402         MOV       A,#0x2
   \   00016F   12....       LCALL     ?XSTACK_DISP0_8
   \   000172   AC82         MOV       R4,DPL
   \   000174   AD83         MOV       R5,DPH
   \   000176   740E         MOV       A,#0xe
   \   000178   12....       LCALL     ?XSTACK_DISP0_8
   \   00017B   AA82         MOV       R2,DPL
   \   00017D   AB83         MOV       R3,DPH
   \   00017F   12....       LCALL     `??AddrMgrExtAddrSet::?relay`; Banked call to: AddrMgrExtAddrSet
   2212            if ( AddrMgrEntryLookupExt( &addrEntry ) )
   \   000182                ; Setup parameters for call to function AddrMgrEntryLookupExt
   \   000182   740B         MOV       A,#0xb
   \   000184   12....       LCALL     ?XSTACK_DISP101_8
   \   000187   12....       LCALL     `??AddrMgrEntryLookupExt::?relay`; Banked call to: AddrMgrEntryLookupExt
   \   00018A   E9           MOV       A,R1
   \   00018B   602A         JZ        ??ZDO_ProcessDeviceAnnce_9
   2213            {
   2214              if ( addrEntry.nwkAddr != Annce.nwkAddr )
   \   00018D   740C         MOV       A,#0xc
   \   00018F   12....       LCALL     ?XSTACK_DISP0_8
   \   000192   12....       LCALL     ??Subroutine177_0 & 0xFFFF
   \                     ??CrossCallReturnLabel_325:
   \   000195   85..82       MOV       DPL,?XSP + 0
   \   000198   85..83       MOV       DPH,?XSP + 1
   \   00019B   E0           MOVX      A,@DPTR
   \   00019C   68           XRL       A,R0
   \   00019D   7003         JNZ       ??ZDO_ProcessDeviceAnnce_10
   \   00019F   A3           INC       DPTR
   \   0001A0   E0           MOVX      A,@DPTR
   \   0001A1   69           XRL       A,R1
   \                     ??ZDO_ProcessDeviceAnnce_10:
   \   0001A2   6013         JZ        ??ZDO_ProcessDeviceAnnce_9
   2215              {
   2216                addrEntry.nwkAddr = Annce.nwkAddr;
   \   0001A4   12....       LCALL     ?Subroutine99 & 0xFFFF
   \                     ??CrossCallReturnLabel_329:
   \   0001A7   740C         MOV       A,#0xc
   \   0001A9   12....       LCALL     ?XSTACK_DISP0_8
   \   0001AC   12....       LCALL     ??Subroutine178_0 & 0xFFFF
   2217                AddrMgrEntryUpdate( &addrEntry );
   \                     ??CrossCallReturnLabel_341:
   \   0001AF                ; Setup parameters for call to function AddrMgrEntryUpdate
   \   0001AF   740B         MOV       A,#0xb
   \   0001B1   12....       LCALL     ?XSTACK_DISP101_8
   \   0001B4   12....       LCALL     `??AddrMgrEntryUpdate::?relay`; Banked call to: AddrMgrEntryUpdate
   2218              }
   2219            }
   2220          
   2221          #if !defined (DISABLE_GREENPOWER_BASIC_PROXY) && (ZG_BUILD_RTR_TYPE)
   2222            if(ZG_DEVICE_RTR_TYPE)
   \                     ??ZDO_ProcessDeviceAnnce_9:
   \   0001B7   90....       MOV       DPTR,#zgDeviceLogicalType
   \   0001BA   E0           MOVX      A,@DPTR
   \   0001BB   6007         JZ        ??ZDO_ProcessDeviceAnnce_11
   \   0001BD   6401         XRL       A,#0x1
   \   0001BF   6003         JZ        $+5
   \   0001C1   02....       LJMP      ??ZDO_ProcessDeviceAnnce_1 & 0xFFFF
   2223            {
   2224              uint32 timeout;
   2225              uint8 invalidAddr;
   2226              uint8 sameAnnce;
   2227              
   2228              timeout = osal_get_timeoutEx( gp_TaskID, GP_PROXY_ALIAS_CONFLICT_TIMEOUT );
   \                     ??ZDO_ProcessDeviceAnnce_11:
   \   0001C4                ; Setup parameters for call to function osal_get_timeoutEx
   \   0001C4   7A10         MOV       R2,#0x10
   \   0001C6   7B00         MOV       R3,#0x0
   \   0001C8   90....       MOV       DPTR,#gp_TaskID
   \   0001CB   E0           MOVX      A,@DPTR
   \   0001CC   F9           MOV       R1,A
   \   0001CD   12....       LCALL     `??osal_get_timeoutEx::?relay`; Banked call to: osal_get_timeoutEx
   \   0001D0   8A..         MOV       ?V4,R2
   \   0001D2   8B..         MOV       ?V5,R3
   \   0001D4   8C..         MOV       ?V6,R4
   \   0001D6   8D..         MOV       ?V7,R5
   2229              invalidAddr = osal_memcmp( Annce.extAddr, invalidIEEE, Z_EXTADDR_LEN );
   \   0001D8                ; Setup parameters for call to function osal_memcmp
   \   0001D8   7420         MOV       A,#0x20
   \   0001DA   12....       LCALL     ?XSTACK_DISP100_8
   \   0001DD   88..         MOV       ?V0,R0
   \   0001DF   89..         MOV       ?V1,R1
   \   0001E1   75..00       MOV       ?V2,#0x0
   \   0001E4   78..         MOV       R0,#?V0
   \   0001E6   12....       LCALL     ?PUSH_XSTACK_I_THREE
   \   0001E9   7C08         MOV       R4,#0x8
   \   0001EB   7D00         MOV       R5,#0x0
   \   0001ED   7405         MOV       A,#0x5
   \   0001EF   12....       LCALL     ?XSTACK_DISP0_8
   \   0001F2   A982         MOV       R1,DPL
   \   0001F4   AA83         MOV       R2,DPH
   \   0001F6   7B00         MOV       R3,#0x0
   \   0001F8   12....       LCALL     `??osal_memcmp::?relay`; Banked call to: osal_memcmp
   \   0001FB   7403         MOV       A,#0x3
   \   0001FD   12....       LCALL     ?DEALLOC_XSTACK8
   \   000200   E9           MOV       A,R1
   \   000201   FE           MOV       R6,A
   2230              sameAnnce = osal_memcmp( &Annce, &GP_aliasConflictAnnce, sizeof( ZDO_DeviceAnnce_t ) );
   \   000202                ; Setup parameters for call to function osal_memcmp
   \   000202   75....       MOV       ?V0,#GP_aliasConflictAnnce & 0xff
   \   000205   75....       MOV       ?V1,#(GP_aliasConflictAnnce >> 8) & 0xff
   \   000208   78..         MOV       R0,#?V0
   \   00020A   12....       LCALL     ?PUSH_XSTACK_I_THREE
   \   00020D   7C0B         MOV       R4,#0xb
   \   00020F   7D00         MOV       R5,#0x0
   \   000211   7403         MOV       A,#0x3
   \   000213   12....       LCALL     ?XSTACK_DISP0_8
   \   000216   A982         MOV       R1,DPL
   \   000218   AA83         MOV       R2,DPH
   \   00021A   7B00         MOV       R3,#0x0
   \   00021C   12....       LCALL     `??osal_memcmp::?relay`; Banked call to: osal_memcmp
   \   00021F   7403         MOV       A,#0x3
   \   000221   12....       LCALL     ?DEALLOC_XSTACK8
   \   000224   E9           MOV       A,R1
   \   000225   F8           MOV       R0,A
   2231                  
   2232              // Check GP proxy table to update the entry if necesary
   2233              if( timeout && ( invalidAddr && sameAnnce ) )
   \   000226   E5..         MOV       A,?V4
   \   000228   45..         ORL       A,?V5
   \   00022A   45..         ORL       A,?V6
   \   00022C   45..         ORL       A,?V7
   \   00022E   6014         JZ        ??ZDO_ProcessDeviceAnnce_12
   \   000230   EE           MOV       A,R6
   \   000231   6011         JZ        ??ZDO_ProcessDeviceAnnce_12
   \   000233   E8           MOV       A,R0
   \   000234   600E         JZ        ??ZDO_ProcessDeviceAnnce_12
   2234              {
   2235                osal_stop_timerEx( gp_TaskID, GP_PROXY_ALIAS_CONFLICT_TIMEOUT );
   \   000236                ; Setup parameters for call to function osal_stop_timerEx
   \   000236   7A10         MOV       R2,#0x10
   \   000238   7B00         MOV       R3,#0x0
   \   00023A   90....       MOV       DPTR,#gp_TaskID
   \   00023D   E0           MOVX      A,@DPTR
   \   00023E   F9           MOV       R1,A
   \   00023F   12....       LCALL     `??osal_stop_timerEx::?relay`; Banked call to: osal_stop_timerEx
   \   000242   801D         SJMP      ??ZDO_ProcessDeviceAnnce_1
   2236              }
   2237              else if(GP_CheckAnnouncedDeviceGCB != NULL)
   \                     ??ZDO_ProcessDeviceAnnce_12:
   \   000244   90....       MOV       DPTR,#GP_CheckAnnouncedDeviceGCB
   \   000247   12....       LCALL     ??Subroutine193_0 & 0xFFFF
   \                     ??CrossCallReturnLabel_411:
   \   00024A   6015         JZ        ??ZDO_ProcessDeviceAnnce_1
   2238              {
   2239                GP_CheckAnnouncedDeviceGCB( Annce.extAddr, Annce.nwkAddr );       
   \   00024C                ; Setup parameters for indirect call
   \   00024C   12....       LCALL     ?Subroutine90 & 0xFFFF
   2240              }
   2241            }
   \                     ??CrossCallReturnLabel_403:
   \   00024F   7402         MOV       A,#0x2
   \   000251   12....       LCALL     ?XSTACK_DISP0_8
   \   000254   AA82         MOV       R2,DPL
   \   000256   AB83         MOV       R3,DPH
   \   000258   90....       MOV       DPTR,#GP_CheckAnnouncedDeviceGCB + 1
   \   00025B   12....       LCALL     ??Subroutine169_0 & 0xFFFF
   \                     ??CrossCallReturnLabel_293:
   \   00025E   12....       LCALL     ?CALL_IND
   2242          #endif
   2243          }
   \                     ??ZDO_ProcessDeviceAnnce_1:
   \   000261   7428         MOV       A,#0x28
   \   000263   02....       LJMP      ?Subroutine8 & 0xFFFF
   2244          
   2245          /*********************************************************************
   2246           * @fn          ZDO_ProcessParentAnnce
   2247           *
   2248           * @brief       This function processes a Parent annouce message.
   2249           *
   2250           * @param       inMsg - incoming message
   2251           *
   2252           * @return      none
   2253           */

   \                                 In  segment BANKED_CODE, align 1, keep-with-next
   2254          void ZDO_ProcessParentAnnce( zdoIncomingMsg_t *inMsg )
   \                     ZDO_ProcessParentAnnce:
   2255          {
   \   000000                REQUIRE ?V0
   \   000000                REQUIRE ?V1
   \   000000                REQUIRE ?V2
   \   000000                REQUIRE ?V3
   \   000000                REQUIRE ?V4
   \   000000                REQUIRE ?V5
   \   000000                REQUIRE ?V6
   \   000000                REQUIRE ?V7
   \   000000                REQUIRE ?V8
   \   000000                REQUIRE ?V9
   \   000000                REQUIRE ?V10
   \   000000                REQUIRE ?V11
   \   000000                REQUIRE ?V12
   \   000000                REQUIRE ?V13
   \   000000   74EA         MOV       A,#-0x16
   \   000002   12....       LCALL     ?BANKED_ENTER_XDATA
   \   000005                ; Saved register size: 22
   \   000005                ; Auto size: 9
   \   000005   74F7         MOV       A,#-0x9
   \   000007   12....       LCALL     ?ALLOC_XSTACK8
   \   00000A   8A..         MOV       ?V8,R2
   \   00000C   8B..         MOV       ?V9,R3
   2256            ZDO_ParentAnnce_t *parentAnnce;
   2257            uint8 x;
   2258            uint8 childCount = 0;
   \   00000E   75..00       MOV       ?V7,#0x0
   2259          
   2260            ZDO_ChildInfoList_t *listHead = NULL;
   \   000011   75..00       MOV       ?V0,#0x0
   \   000014   75..00       MOV       ?V1,#0x0
   2261            ZDO_ChildInfoList_t *listTail;
   2262            ZDO_ChildInfoList_t *newNode;
   2263          
   2264            // Parse incoming message, memory is allocated by the parse function,
   2265            // it should be free after processing the message
   2266            parentAnnce = ZDO_ParseParentAnnce( inMsg );
   \   000017                ; Setup parameters for call to function ZDO_ParseParentAnnce
   \   000017   12....       LCALL     `??ZDO_ParseParentAnnce::?relay`; Banked call to: ZDO_ParseParentAnnce
   \   00001A   8A..         MOV       ?V4,R2
   \   00001C   8B..         MOV       ?V5,R3
   2267          
   2268            if ( parentAnnce != NULL )
   \   00001E   EA           MOV       A,R2
   \   00001F   45..         ORL       A,?V5
   \   000021   7003         JNZ       $+5
   \   000023   02....       LJMP      ??ZDO_ProcessParentAnnce_0 & 0xFFFF
   2269            {
   2270              for ( x = 0; x < parentAnnce->numOfChildren; x++ )
   \   000026   75..00       MOV       ?V6,#0x0
   \   000029   801A         SJMP      ??ZDO_ProcessParentAnnce_1
   2271              {
   2272                associated_devices_t *dev_ptr;
   2273          
   2274                // If it's an End Device child
   2275                dev_ptr = AssocGetWithExt( parentAnnce->childInfo[x].extAddr );
   2276          
   2277                if ( dev_ptr )
   2278                {
   2279                  if ( dev_ptr->nodeRelation == CHILD_RFD ||
   2280                       dev_ptr->nodeRelation == CHILD_RFD_RX_IDLE )
   2281                  {
   2282                    if ( dev_ptr->keepaliveRcv == TRUE )
   2283                    {
   2284                      // Add one element to the list
   2285                      newNode = (ZDO_ChildInfoList_t *)osal_mem_alloc( sizeof(ZDO_ChildInfoList_t) );
   2286          
   2287                      osal_cpyExtAddr( newNode->child.extAddr, parentAnnce->childInfo[x].extAddr );
   2288          
   2289                      newNode->next = NULL;
   2290          
   2291                      if ( listHead == NULL )
   \                     ??ZDO_ProcessParentAnnce_2:
   \   00002B   8E82         MOV       DPL,R6
   \   00002D   8F83         MOV       DPH,R7
   \   00002F   A3           INC       DPTR
   \   000030   A3           INC       DPTR
   \   000031   A3           INC       DPTR
   \   000032   A3           INC       DPTR
   \   000033   A3           INC       DPTR
   \   000034   A3           INC       DPTR
   \   000035   A3           INC       DPTR
   \   000036   A3           INC       DPTR
   \   000037   E5..         MOV       A,?V2
   \   000039   F0           MOVX      @DPTR,A
   \   00003A   A3           INC       DPTR
   \   00003B   E5..         MOV       A,?V3
   \   00003D   F0           MOVX      @DPTR,A
   2292                      {
   2293                        // Initialize the head of the list
   2294                        listHead = listTail = newNode;
   2295                      }
   2296                      else
   2297                      {
   2298                        // Add new element to the end
   2299                        listTail->next = newNode;
   2300          
   2301                        listTail = listTail->next;
   \   00003E   AE..         MOV       R6,?V12
   \   000040   FF           MOV       R7,A
   2302                      }
   2303          
   2304                      childCount++;
   \                     ??ZDO_ProcessParentAnnce_3:
   \   000041   05..         INC       ?V7
   \                     ??ZDO_ProcessParentAnnce_4:
   \   000043   05..         INC       ?V6
   \                     ??ZDO_ProcessParentAnnce_1:
   \   000045   85..82       MOV       DPL,?V4
   \   000048   85..83       MOV       DPH,?V5
   \   00004B   E0           MOVX      A,@DPTR
   \   00004C   F8           MOV       R0,A
   \   00004D   E5..         MOV       A,?V6
   \   00004F   C3           CLR       C
   \   000050   98           SUBB      A,R0
   \   000051   4003         JC        $+5
   \   000053   02....       LJMP      ??ZDO_ProcessParentAnnce_5 & 0xFFFF
   \   000056   E5..         MOV       A,?V6
   \   000058   F5..         MOV       ?V2,A
   \   00005A   75..00       MOV       ?V3,#0x0
   \   00005D   7403         MOV       A,#0x3
   \   00005F   78..         MOV       R0,#?V2
   \   000061   12....       LCALL     ?S_SHL
   \   000064   E5..         MOV       A,?V4
   \   000066   25..         ADD       A,?V2
   \   000068   F582         MOV       DPL,A
   \   00006A   E5..         MOV       A,?V5
   \   00006C   35..         ADDC      A,?V3
   \   00006E   F583         MOV       DPH,A
   \   000070   A3           INC       DPTR
   \   000071   8582..       MOV       ?V10,DPL
   \   000074   8583..       MOV       ?V11,DPH
   \   000077                ; Setup parameters for call to function AssocGetWithExt
   \   000077   AA..         MOV       R2,?V10
   \   000079   AB..         MOV       R3,?V11
   \   00007B   12....       LCALL     `??AssocGetWithExt::?relay`; Banked call to: AssocGetWithExt
   \   00007E   8A..         MOV       ?V2,R2
   \   000080   8B..         MOV       ?V3,R3
   \   000082   A8..         MOV       R0,?V2
   \   000084   A9..         MOV       R1,?V3
   \   000086   E8           MOV       A,R0
   \   000087   49           ORL       A,R1
   \   000088   60B9         JZ        ??ZDO_ProcessParentAnnce_4
   \   00008A   8882         MOV       DPL,R0
   \   00008C   8983         MOV       DPH,R1
   \   00008E   A3           INC       DPTR
   \   00008F   A3           INC       DPTR
   \   000090   A3           INC       DPTR
   \   000091   A3           INC       DPTR
   \   000092   E0           MOVX      A,@DPTR
   \   000093   FA           MOV       R2,A
   \   000094   7401         MOV       A,#0x1
   \   000096   6A           XRL       A,R2
   \   000097   6005         JZ        ??ZDO_ProcessParentAnnce_6
   \   000099   7402         MOV       A,#0x2
   \   00009B   6A           XRL       A,R2
   \   00009C   70A5         JNZ       ??ZDO_ProcessParentAnnce_4
   \                     ??ZDO_ProcessParentAnnce_6:
   \   00009E   E8           MOV       A,R0
   \   00009F   241B         ADD       A,#0x1b
   \   0000A1   F582         MOV       DPL,A
   \   0000A3   E4           CLR       A
   \   0000A4   39           ADDC      A,R1
   \   0000A5   F583         MOV       DPH,A
   \   0000A7   E0           MOVX      A,@DPTR
   \   0000A8   6401         XRL       A,#0x1
   \   0000AA   7097         JNZ       ??ZDO_ProcessParentAnnce_4
   \   0000AC                ; Setup parameters for call to function osal_mem_alloc
   \   0000AC   7A0A         MOV       R2,#0xa
   \   0000AE   7B00         MOV       R3,#0x0
   \   0000B0   12....       LCALL     `??osal_mem_alloc::?relay`; Banked call to: osal_mem_alloc
   \   0000B3   8A..         MOV       ?V2,R2
   \   0000B5   8B..         MOV       ?V3,R3
   \   0000B7   8A..         MOV       ?V12,R2
   \   0000B9                ; Setup parameters for call to function sAddrExtCpy
   \   0000B9   AC..         MOV       R4,?V10
   \   0000BB   AD..         MOV       R5,?V11
   \   0000BD   12....       LCALL     `??sAddrExtCpy::?relay`; Banked call to: sAddrExtCpy
   \   0000C0   85..82       MOV       DPL,?V2
   \   0000C3   85..83       MOV       DPH,?V3
   \   0000C6   A3           INC       DPTR
   \   0000C7   A3           INC       DPTR
   \   0000C8   A3           INC       DPTR
   \   0000C9   A3           INC       DPTR
   \   0000CA   A3           INC       DPTR
   \   0000CB   A3           INC       DPTR
   \   0000CC   A3           INC       DPTR
   \   0000CD   A3           INC       DPTR
   \   0000CE   E4           CLR       A
   \   0000CF   F0           MOVX      @DPTR,A
   \   0000D0   A3           INC       DPTR
   \   0000D1   F0           MOVX      @DPTR,A
   \   0000D2   E5..         MOV       A,?V0
   \   0000D4   45..         ORL       A,?V1
   \   0000D6   6003         JZ        $+5
   \   0000D8   02....       LJMP      ??ZDO_ProcessParentAnnce_2 & 0xFFFF
   \   0000DB   AE..         MOV       R6,?V2
   \   0000DD   AF..         MOV       R7,?V3
   \   0000DF   8E..         MOV       ?V0,R6
   \   0000E1   8F..         MOV       ?V1,R7
   \   0000E3   02....       LJMP      ??ZDO_ProcessParentAnnce_3 & 0xFFFF
   2305                    }
   2306                  }
   2307                }
   2308              }
   2309          
   2310              // If the device has children that match some in the received list,
   2311              // it should send a unicast Parent_Annce_rsp message.
   2312              if ( childCount > 0 )
   \                     ??ZDO_ProcessParentAnnce_5:
   \   0000E6   E5..         MOV       A,?V7
   \   0000E8   7003         JNZ       $+5
   \   0000EA   02....       LJMP      ??ZDO_ProcessParentAnnce_7 & 0xFFFF
   2313              {
   2314                ZDO_ChildInfo_t *childInfo;
   2315                zAddrType_t dstAddr;
   2316          
   2317                dstAddr.addrMode = (afAddrMode_t)Addr16Bit;
   \   0000ED   7408         MOV       A,#0x8
   \   0000EF   12....       LCALL     ?XSTACK_DISP0_8
   \   0000F2   7402         MOV       A,#0x2
   \   0000F4   F0           MOVX      @DPTR,A
   2318                dstAddr.addr.shortAddr = inMsg->srcAddr.addr.shortAddr;
   \   0000F5   85..82       MOV       DPL,?V8
   \   0000F8   85..83       MOV       DPH,?V9
   \   0000FB   A3           INC       DPTR
   \   0000FC   A3           INC       DPTR
   \   0000FD   12....       LCALL     ??Subroutine201_0 & 0xFFFF
   \                     ??CrossCallReturnLabel_500:
   \   000100   12....       LCALL     ?Subroutine37 & 0xFFFF
   2319          
   2320                x = 0;
   \                     ??CrossCallReturnLabel_348:
   \   000103   75..00       MOV       ?V6,#0x0
   2321          
   2322                childInfo = (ZDO_ChildInfo_t *)osal_mem_alloc( childCount * sizeof(ZDO_ChildInfo_t) );
   \   000106                ; Setup parameters for call to function osal_mem_alloc
   \   000106   E5..         MOV       A,?V7
   \   000108   F5..         MOV       ?V2,A
   \   00010A   75..00       MOV       ?V3,#0x0
   \   00010D   7403         MOV       A,#0x3
   \   00010F   78..         MOV       R0,#?V2
   \   000111   12....       LCALL     ?S_SHL
   \   000114   AA..         MOV       R2,?V2
   \   000116   AB..         MOV       R3,?V3
   \   000118   12....       LCALL     `??osal_mem_alloc::?relay`; Banked call to: osal_mem_alloc
   \   00011B   8A..         MOV       ?V2,R2
   \   00011D   8B..         MOV       ?V3,R3
   2323          
   2324                if ( childInfo != NULL )
   \   00011F   EA           MOV       A,R2
   \   000120   45..         ORL       A,?V3
   \   000122   6076         JZ        ??ZDO_ProcessParentAnnce_8
   \   000124   802B         SJMP      ??ZDO_ProcessParentAnnce_9
   2325                {
   2326                  // Copy the content of the link list into this buffer
   2327                  while ( listHead != NULL )
   2328                  {
   2329                    listTail = listHead;
   \                     ??ZDO_ProcessParentAnnce_10:
   \   000126   AE..         MOV       R6,?V0
   \   000128   AF..         MOV       R7,?V1
   2330          
   2331                    osal_cpyExtAddr( childInfo[x].extAddr,  listHead->child.extAddr );
   \   00012A                ; Setup parameters for call to function sAddrExtCpy
   \   00012A   AC..         MOV       R4,?V0
   \   00012C   AD..         MOV       R5,?V1
   \   00012E   E5..         MOV       A,?V6
   \   000130   F5..         MOV       ?V0,A
   \   000132   75..00       MOV       ?V1,#0x0
   \   000135   7403         MOV       A,#0x3
   \   000137   78..         MOV       R0,#?V0
   \   000139   12....       LCALL     ?S_SHL
   \   00013C   E5..         MOV       A,?V2
   \   00013E   25..         ADD       A,?V0
   \   000140   FA           MOV       R2,A
   \   000141   E5..         MOV       A,?V3
   \   000143   35..         ADDC      A,?V1
   \   000145   FB           MOV       R3,A
   \   000146   12....       LCALL     `??sAddrExtCpy::?relay`; Banked call to: sAddrExtCpy
   2332          
   2333                    x++;
   \   000149   05..         INC       ?V6
   2334          
   2335                    listHead = listTail->next;
   \   00014B   12....       LCALL     ?Subroutine83 & 0xFFFF
   2336          
   2337                    // Free this element of the link list
   2338                    osal_mem_free( listTail );
   2339                  }
   \                     ??CrossCallReturnLabel_134:
   \   00014E   12....       LCALL     `??osal_mem_free::?relay`; Banked call to: osal_mem_free
   \                     ??ZDO_ProcessParentAnnce_9:
   \   000151   E5..         MOV       A,?V0
   \   000153   45..         ORL       A,?V1
   \   000155   70CF         JNZ       ??ZDO_ProcessParentAnnce_10
   2340          
   2341                  ZDP_ParentAnnceRsp( (inMsg->TransSeq), dstAddr, childCount,
   2342                                      ((uint8 *)childInfo), 0 );
   \   000157                ; Setup parameters for call to function ZDP_ParentAnnce
   \   000157   75..00       MOV       ?V0,#0x0
   \   00015A   78..         MOV       R0,#?V0
   \   00015C   12....       LCALL     ?PUSH_XSTACK_I_ONE
   \   00015F   75..1F       MOV       ?V0,#0x1f
   \   000162   75..80       MOV       ?V1,#-0x80
   \   000165   78..         MOV       R0,#?V0
   \   000167   12....       LCALL     ?PUSH_XSTACK_I_TWO
   \   00016A   78..         MOV       R0,#?V2
   \   00016C   12....       LCALL     ?PUSH_XSTACK_I_TWO
   \   00016F   A9..         MOV       R1,?V7
   \   000171   7405         MOV       A,#0x5
   \   000173   12....       LCALL     ?XSTACK_DISP102_8
   \   000176   E5..         MOV       A,?V8
   \   000178   240F         ADD       A,#0xf
   \   00017A   FA           MOV       R2,A
   \   00017B   E4           CLR       A
   \   00017C   35..         ADDC      A,?V9
   \   00017E   FB           MOV       R3,A
   \   00017F   12....       LCALL     `??ZDP_ParentAnnce::?relay`; Banked call to: ZDP_ParentAnnce
   \   000182   7405         MOV       A,#0x5
   \   000184   12....       LCALL     ?DEALLOC_XSTACK8
   2343                  
   2344                  
   2345                  osal_mem_free(childInfo);
   \   000187                ; Setup parameters for call to function osal_mem_free
   \   000187   AA..         MOV       R2,?V2
   \   000189   AB..         MOV       R3,?V3
   \   00018B   12....       LCALL     `??osal_mem_free::?relay`; Banked call to: osal_mem_free
   \   00018E   8010         SJMP      ??ZDO_ProcessParentAnnce_7
   2346                }
   2347                else
   2348                {
   2349                  while(listHead != NULL)
   2350                  {
   2351                    listTail = listHead;
   \                     ??ZDO_ProcessParentAnnce_11:
   \   000190   AE..         MOV       R6,?V0
   \   000192   AF..         MOV       R7,?V1
   2352                    listHead = listTail->next;
   \   000194   12....       LCALL     ?Subroutine83 & 0xFFFF
   2353          
   2354                    // Free this element of the link list
   2355                    osal_mem_free( listTail );
   2356                  }  
   \                     ??CrossCallReturnLabel_135:
   \   000197   12....       LCALL     `??osal_mem_free::?relay`; Banked call to: osal_mem_free
   \                     ??ZDO_ProcessParentAnnce_8:
   \   00019A   E5..         MOV       A,?V0
   \   00019C   45..         ORL       A,?V1
   \   00019E   70F0         JNZ       ??ZDO_ProcessParentAnnce_11
   2357                }
   2358              }
   2359              
   2360              // Free memory allocated by parsing function
   2361              osal_mem_free( parentAnnce );
   \                     ??ZDO_ProcessParentAnnce_7:
   \   0001A0                ; Setup parameters for call to function osal_mem_free
   \   0001A0   AA..         MOV       R2,?V4
   \   0001A2   AB..         MOV       R3,?V5
   \   0001A4   12....       LCALL     `??osal_mem_free::?relay`; Banked call to: osal_mem_free
   2362            }
   2363          }
   \                     ??ZDO_ProcessParentAnnce_0:
   \   0001A7   7409         MOV       A,#0x9
   \   0001A9   12....       LCALL     ?DEALLOC_XSTACK8
   \   0001AC   7F0E         MOV       R7,#0xe
   \   0001AE   02....       LJMP      ?BANKED_LEAVE_XDATA

   \                                 In  segment BANKED_CODE, align 1, keep-with-next
   \                     ?Subroutine83:
   \   000000   8E82         MOV       DPL,R6
   \   000002   8F83         MOV       DPH,R7
   \   000004   A3           INC       DPTR
   \   000005   A3           INC       DPTR
   \   000006   A3           INC       DPTR
   \   000007   A3           INC       DPTR
   \   000008   A3           INC       DPTR
   \   000009   A3           INC       DPTR
   \   00000A   A3           INC       DPTR
   \   00000B   A3           INC       DPTR
   \   00000C   12....       LCALL     ?Subroutine152 & 0xFFFF
   \                     ??CrossCallReturnLabel_304:
   \   00000F   F5..         MOV       ?V1,A
   \   000011                ; Setup parameters for call to function osal_mem_free
   \   000011                ; Setup parameters for call to function osal_mem_free
   \   000011   EE           MOV       A,R6
   \   000012   FA           MOV       R2,A
   \   000013   EF           MOV       A,R7
   \   000014   FB           MOV       R3,A
   \   000015   22           RET
   2364          
   2365          /*********************************************************************
   2366           * @fn          ZDO_ProcessParentAnnceRsp
   2367           *
   2368           * @brief       This function processes a Parent annouce response message.
   2369           *
   2370           * @param       inMsg - incoming message
   2371           *
   2372           * @return      none
   2373           */

   \                                 In  segment BANKED_CODE, align 1, keep-with-next
   2374          void ZDO_ProcessParentAnnceRsp( zdoIncomingMsg_t *inMsg )
   \                     ZDO_ProcessParentAnnceRsp:
   2375          {
   \   000000                REQUIRE ?V0
   \   000000                REQUIRE ?V1
   \   000000                REQUIRE ?V2
   \   000000                REQUIRE ?V3
   \   000000                REQUIRE ?V4
   \   000000                REQUIRE ?V5
   \   000000   74F2         MOV       A,#-0xe
   \   000002   12....       LCALL     ?BANKED_ENTER_XDATA
   \   000005                ; Saved register size: 14
   \   000005                ; Auto size: 0
   2376            ZDO_ParentAnnce_t *parentAnnce;
   2377            uint8 x;
   2378          
   2379            // Parse incoming message, memory is allocated by the parse function,
   2380            // it should be free after processing the message
   2381            parentAnnce = ZDO_ParseParentAnnce( inMsg );
   \   000005                ; Setup parameters for call to function ZDO_ParseParentAnnce
   \   000005   12....       LCALL     `??ZDO_ParseParentAnnce::?relay`; Banked call to: ZDO_ParseParentAnnce
   \   000008   8A..         MOV       ?V0,R2
   \   00000A   8B..         MOV       ?V1,R3
   2382          
   2383            if ( parentAnnce != NULL )
   \   00000C   EA           MOV       A,R2
   \   00000D   45..         ORL       A,?V1
   \   00000F   6063         JZ        ??ZDO_ProcessParentAnnceRsp_0
   2384            {
   2385              for ( x = 0; x < parentAnnce->numOfChildren; x++ )
   \   000011   75..00       MOV       ?V2,#0x0
   \   000014   8049         SJMP      ??ZDO_ProcessParentAnnceRsp_1
   2386              {
   2387                associated_devices_t *dev_ptr;
   2388          
   2389                // If it's an End Device child
   2390                dev_ptr = AssocGetWithExt( parentAnnce->childInfo[x].extAddr );
   \                     ??ZDO_ProcessParentAnnceRsp_2:
   \   000016   E5..         MOV       A,?V2
   \   000018   F5..         MOV       ?V4,A
   \   00001A   75..00       MOV       ?V5,#0x0
   \   00001D   7403         MOV       A,#0x3
   \   00001F   78..         MOV       R0,#?V4
   \   000021   12....       LCALL     ?S_SHL
   \   000024   E5..         MOV       A,?V0
   \   000026   25..         ADD       A,?V4
   \   000028   F582         MOV       DPL,A
   \   00002A   E5..         MOV       A,?V1
   \   00002C   35..         ADDC      A,?V5
   \   00002E   F583         MOV       DPH,A
   \   000030   A3           INC       DPTR
   \   000031   AE82         MOV       R6,DPL
   \   000033   AF83         MOV       R7,DPH
   \   000035                ; Setup parameters for call to function AssocGetWithExt
   \   000035   EE           MOV       A,R6
   \   000036   FA           MOV       R2,A
   \   000037   EF           MOV       A,R7
   \   000038   FB           MOV       R3,A
   \   000039   12....       LCALL     `??AssocGetWithExt::?relay`; Banked call to: AssocGetWithExt
   \   00003C   8A82         MOV       DPL,R2
   \   00003E   8B83         MOV       DPH,R3
   2391          
   2392                if ( dev_ptr )
   \   000040   E582         MOV       A,DPL
   \   000042   4583         ORL       A,DPH
   \   000044   6017         JZ        ??ZDO_ProcessParentAnnceRsp_3
   2393                {
   2394                  if ( dev_ptr->nodeRelation == CHILD_RFD ||
   2395                       dev_ptr->nodeRelation == CHILD_RFD_RX_IDLE )
   \   000046   A3           INC       DPTR
   \   000047   A3           INC       DPTR
   \   000048   A3           INC       DPTR
   \   000049   A3           INC       DPTR
   \   00004A   E0           MOVX      A,@DPTR
   \   00004B   F8           MOV       R0,A
   \   00004C   7401         MOV       A,#0x1
   \   00004E   68           XRL       A,R0
   \   00004F   6005         JZ        ??ZDO_ProcessParentAnnceRsp_4
   \   000051   7402         MOV       A,#0x2
   \   000053   68           XRL       A,R0
   \   000054   7007         JNZ       ??ZDO_ProcessParentAnnceRsp_3
   2396                  {
   2397                    AssocRemove( parentAnnce->childInfo[x].extAddr );
   \                     ??ZDO_ProcessParentAnnceRsp_4:
   \   000056                ; Setup parameters for call to function AssocRemove
   \   000056   EE           MOV       A,R6
   \   000057   FA           MOV       R2,A
   \   000058   EF           MOV       A,R7
   \   000059   FB           MOV       R3,A
   \   00005A   12....       LCALL     `??AssocRemove::?relay`; Banked call to: AssocRemove
   2398                  }
   2399                }
   2400              }
   \                     ??ZDO_ProcessParentAnnceRsp_3:
   \   00005D   05..         INC       ?V2
   \                     ??ZDO_ProcessParentAnnceRsp_1:
   \   00005F   85..82       MOV       DPL,?V0
   \   000062   85..83       MOV       DPH,?V1
   \   000065   E0           MOVX      A,@DPTR
   \   000066   F8           MOV       R0,A
   \   000067   E5..         MOV       A,?V2
   \   000069   C3           CLR       C
   \   00006A   98           SUBB      A,R0
   \   00006B   40A9         JC        ??ZDO_ProcessParentAnnceRsp_2
   2401          
   2402              // Free memory allocated by parsing function
   2403              osal_mem_free( parentAnnce );
   \   00006D                ; Setup parameters for call to function osal_mem_free
   \   00006D   AA..         MOV       R2,?V0
   \   00006F   AB..         MOV       R3,?V1
   \   000071   12....       LCALL     `??osal_mem_free::?relay`; Banked call to: osal_mem_free
   2404            }
   2405          }
   \                     ??ZDO_ProcessParentAnnceRsp_0:
   \   000074   02....       LJMP      ?Subroutine5 & 0xFFFF
   2406          
   2407          /*********************************************************************
   2408           * @fn          ZDO_BuildSimpleDescBuf
   2409           *
   2410           * @brief       Build a byte sequence representation of a Simple Descriptor.
   2411           *
   2412           * @param       buf  - pointer to a byte array big enough for data.
   2413           * @param       desc - SimpleDescriptionFormat_t *
   2414           *
   2415           * @return      none
   2416           */

   \                                 In  segment BANKED_CODE, align 1, keep-with-next
   2417          void ZDO_BuildSimpleDescBuf( uint8 *buf, SimpleDescriptionFormat_t *desc )
   \                     ZDO_BuildSimpleDescBuf:
   2418          {
   \   000000                REQUIRE ?V0
   \   000000                REQUIRE ?V1
   \   000000                REQUIRE ?V2
   \   000000                REQUIRE ?V3
   \   000000                REQUIRE ?V4
   \   000000                REQUIRE ?V5
   \   000000   74F2         MOV       A,#-0xe
   \   000002   12....       LCALL     ?BANKED_ENTER_XDATA
   \   000005                ; Saved register size: 14
   \   000005                ; Auto size: 0
   2419            byte cnt;
   2420            uint16 *ptr;
   2421          
   2422            *buf++ = desc->EndPoint;
   \   000005   8C82         MOV       DPL,R4
   \   000007   8D83         MOV       DPH,R5
   \   000009   12....       LCALL     ??Subroutine216_0 & 0xFFFF
   \                     ??CrossCallReturnLabel_550:
   \   00000C   12....       LCALL     ?Subroutine15 & 0xFFFF
   2423            *buf++ = HI_UINT16( desc->AppProfId );
   \                     ??CrossCallReturnLabel_17:
   \   00000F   A3           INC       DPTR
   \   000010   A882         MOV       R0,DPL
   \   000012   A983         MOV       R1,DPH
   \   000014   12....       LCALL     ?Subroutine69 & 0xFFFF
   \                     ??CrossCallReturnLabel_554:
   \   000017   12....       LCALL     ?Subroutine26 & 0xFFFF
   2424            *buf++ = LO_UINT16( desc->AppProfId );
   \                     ??CrossCallReturnLabel_30:
   \   00001A   F0           MOVX      @DPTR,A
   2425            *buf++ = HI_UINT16( desc->AppDeviceId );
   \   00001B   EC           MOV       A,R4
   \   00001C   2403         ADD       A,#0x3
   \   00001E   F8           MOV       R0,A
   \   00001F   E4           CLR       A
   \   000020   3D           ADDC      A,R5
   \   000021   F9           MOV       R1,A
   \   000022   8882         MOV       DPL,R0
   \   000024   8983         MOV       DPH,R1
   \   000026   12....       LCALL     ?Subroutine69 & 0xFFFF
   \                     ??CrossCallReturnLabel_555:
   \   000029   A3           INC       DPTR
   \   00002A   A3           INC       DPTR
   \   00002B   12....       LCALL     ?Subroutine26 & 0xFFFF
   2426            *buf++ = LO_UINT16( desc->AppDeviceId );
   \                     ??CrossCallReturnLabel_31:
   \   00002E   A3           INC       DPTR
   \   00002F   A3           INC       DPTR
   \   000030   12....       LCALL     ?Subroutine15 & 0xFFFF
   2427          
   2428            *buf++ = (byte)(desc->AppDevVer << 4);
   \                     ??CrossCallReturnLabel_18:
   \   000033   A3           INC       DPTR
   \   000034   A3           INC       DPTR
   \   000035   A3           INC       DPTR
   \   000036   A3           INC       DPTR
   \   000037   A3           INC       DPTR
   \   000038   E0           MOVX      A,@DPTR
   \   000039   C4           SWAP      A
   \   00003A   54F0         ANL       A,#0xf0
   \   00003C   8A82         MOV       DPL,R2
   \   00003E   8B83         MOV       DPH,R3
   \   000040   A3           INC       DPTR
   \   000041   A3           INC       DPTR
   \   000042   A3           INC       DPTR
   \   000043   A3           INC       DPTR
   \   000044   A3           INC       DPTR
   \   000045   F0           MOVX      @DPTR,A
   2429          
   2430            *buf++ = desc->AppNumInClusters;
   \   000046   EC           MOV       A,R4
   \   000047   2406         ADD       A,#0x6
   \   000049   F8           MOV       R0,A
   \   00004A   E4           CLR       A
   \   00004B   3D           ADDC      A,R5
   \   00004C   F9           MOV       R1,A
   \   00004D   88..         MOV       ?V2,R0
   \   00004F   89..         MOV       ?V3,R1
   \   000051   8882         MOV       DPL,R0
   \   000053   F583         MOV       DPH,A
   \   000055   12....       LCALL     ??Subroutine216_0 & 0xFFFF
   \                     ??CrossCallReturnLabel_551:
   \   000058   A3           INC       DPTR
   \   000059   A3           INC       DPTR
   \   00005A   A3           INC       DPTR
   \   00005B   A3           INC       DPTR
   \   00005C   A3           INC       DPTR
   \   00005D   A3           INC       DPTR
   \   00005E   F0           MOVX      @DPTR,A
   \   00005F   EA           MOV       A,R2
   \   000060   2407         ADD       A,#0x7
   \   000062   FA           MOV       R2,A
   \   000063   5001         JNC       ??ZDO_BuildSimpleDescBuf_0
   \   000065   0B           INC       R3
   2431            ptr = desc->pAppInClusterList;
   \                     ??ZDO_BuildSimpleDescBuf_0:
   \   000066   8C82         MOV       DPL,R4
   \   000068   8D83         MOV       DPH,R5
   \   00006A   12....       LCALL     ?Subroutine97 & 0xFFFF
   2432            for ( cnt = 0; cnt < desc->AppNumInClusters; ptr++, cnt++ )
   \                     ??CrossCallReturnLabel_155:
   \   00006D   8018         SJMP      ??ZDO_BuildSimpleDescBuf_1
   2433            {
   2434              *buf++ = HI_UINT16( *ptr );
   \                     ??ZDO_BuildSimpleDescBuf_2:
   \   00006F   12....       LCALL     ?Subroutine24 & 0xFFFF
   2435              *buf++ = LO_UINT16( *ptr );
   2436            }
   \                     ??CrossCallReturnLabel_546:
   \   000072   8882         MOV       DPL,R0
   \   000074   8983         MOV       DPH,R1
   \   000076   F0           MOVX      @DPTR,A
   \   000077   EA           MOV       A,R2
   \   000078   2402         ADD       A,#0x2
   \   00007A   FA           MOV       R2,A
   \   00007B   5001         JNC       ??ZDO_BuildSimpleDescBuf_3
   \   00007D   0B           INC       R3
   \                     ??ZDO_BuildSimpleDescBuf_3:
   \   00007E   EE           MOV       A,R6
   \   00007F   2402         ADD       A,#0x2
   \   000081   FE           MOV       R6,A
   \   000082   5001         JNC       ??ZDO_BuildSimpleDescBuf_4
   \   000084   0F           INC       R7
   \                     ??ZDO_BuildSimpleDescBuf_4:
   \   000085   05..         INC       ?V0
   \                     ??ZDO_BuildSimpleDescBuf_1:
   \   000087   8A82         MOV       DPL,R2
   \   000089   8B83         MOV       DPH,R3
   \   00008B   A3           INC       DPTR
   \   00008C   A882         MOV       R0,DPL
   \   00008E   A983         MOV       R1,DPH
   \   000090   85..82       MOV       DPL,?V2
   \   000093   85..83       MOV       DPH,?V3
   \   000096   E0           MOVX      A,@DPTR
   \   000097   F5..         MOV       ?V1,A
   \   000099   E5..         MOV       A,?V0
   \   00009B   C3           CLR       C
   \   00009C   95..         SUBB      A,?V1
   \   00009E   40CF         JC        ??ZDO_BuildSimpleDescBuf_2
   2437          
   2438            *buf++ = desc->AppNumOutClusters;
   \   0000A0   EC           MOV       A,R4
   \   0000A1   2409         ADD       A,#0x9
   \   0000A3   FE           MOV       R6,A
   \   0000A4   E4           CLR       A
   \   0000A5   3D           ADDC      A,R5
   \   0000A6   FF           MOV       R7,A
   \   0000A7   8E..         MOV       ?V2,R6
   \   0000A9   8F..         MOV       ?V3,R7
   \   0000AB   8E82         MOV       DPL,R6
   \   0000AD   F583         MOV       DPH,A
   \   0000AF   12....       LCALL     ??Subroutine216_0 & 0xFFFF
   \                     ??CrossCallReturnLabel_552:
   \   0000B2   F0           MOVX      @DPTR,A
   \   0000B3   E8           MOV       A,R0
   \   0000B4   FA           MOV       R2,A
   \   0000B5   E9           MOV       A,R1
   \   0000B6   FB           MOV       R3,A
   2439            ptr = desc->pAppOutClusterList;
   \   0000B7   8C82         MOV       DPL,R4
   \   0000B9   8D83         MOV       DPH,R5
   \   0000BB   A3           INC       DPTR
   \   0000BC   A3           INC       DPTR
   \   0000BD   A3           INC       DPTR
   \   0000BE   12....       LCALL     ?Subroutine97 & 0xFFFF
   2440            for ( cnt = 0; cnt < desc->AppNumOutClusters; ptr++, cnt++ )
   \                     ??CrossCallReturnLabel_156:
   \   0000C1   8019         SJMP      ??ZDO_BuildSimpleDescBuf_5
   2441            {
   2442              *buf++ = HI_UINT16( *ptr );
   \                     ??ZDO_BuildSimpleDescBuf_6:
   \   0000C3   12....       LCALL     ?Subroutine24 & 0xFFFF
   2443              *buf++ = LO_UINT16( *ptr );
   2444            }
   \                     ??CrossCallReturnLabel_547:
   \   0000C6   8A82         MOV       DPL,R2
   \   0000C8   8B83         MOV       DPH,R3
   \   0000CA   A3           INC       DPTR
   \   0000CB   F0           MOVX      @DPTR,A
   \   0000CC   EA           MOV       A,R2
   \   0000CD   2402         ADD       A,#0x2
   \   0000CF   FA           MOV       R2,A
   \   0000D0   5001         JNC       ??ZDO_BuildSimpleDescBuf_7
   \   0000D2   0B           INC       R3
   \                     ??ZDO_BuildSimpleDescBuf_7:
   \   0000D3   EE           MOV       A,R6
   \   0000D4   2402         ADD       A,#0x2
   \   0000D6   FE           MOV       R6,A
   \   0000D7   5001         JNC       ??ZDO_BuildSimpleDescBuf_8
   \   0000D9   0F           INC       R7
   \                     ??ZDO_BuildSimpleDescBuf_8:
   \   0000DA   05..         INC       ?V0
   \                     ??ZDO_BuildSimpleDescBuf_5:
   \   0000DC   85..82       MOV       DPL,?V2
   \   0000DF   85..83       MOV       DPH,?V3
   \   0000E2   E0           MOVX      A,@DPTR
   \   0000E3   F8           MOV       R0,A
   \   0000E4   E5..         MOV       A,?V0
   \   0000E6   C3           CLR       C
   \   0000E7   98           SUBB      A,R0
   \   0000E8   40D9         JC        ??ZDO_BuildSimpleDescBuf_6
   2445          }
   \   0000EA   02....       LJMP      ?Subroutine5 & 0xFFFF

   \                                 In  segment BANKED_CODE, align 1, keep-with-next
   \                     ?Subroutine97:
   \   000000   A3           INC       DPTR
   \   000001   A3           INC       DPTR
   \   000002   A3           INC       DPTR
   \   000003   A3           INC       DPTR
   \   000004   A3           INC       DPTR
   \   000005   A3           INC       DPTR
   \   000006   A3           INC       DPTR
   \   000007   12....       LCALL     ?Subroutine149 & 0xFFFF
   \                     ??CrossCallReturnLabel_532:
   \   00000A   75..00       MOV       ?V0,#0x0
   \   00000D   22           RET

   \                                 In  segment BANKED_CODE, align 1, keep-with-next
   \                     ?Subroutine26:
   \   000000   A3           INC       DPTR
   \   000001   12....       LCALL     ?Subroutine139 & 0xFFFF
   \                     ??CrossCallReturnLabel_251:
   \   000004   8A82         MOV       DPL,R2
   \   000006   8B83         MOV       DPH,R3
   \   000008   A3           INC       DPTR
   \   000009   A3           INC       DPTR
   \   00000A   22           RET

   \                                 In  segment BANKED_CODE, align 1, keep-with-next
   \                     ?Subroutine24:
   \   000000   8E82         MOV       DPL,R6
   \   000002   8F83         MOV       DPH,R7
   \   000004   A3           INC       DPTR
   \   000005   E0           MOVX      A,@DPTR
   \   000006   8A82         MOV       DPL,R2
   \   000008   8B83         MOV       DPH,R3
   \   00000A                REQUIRE ??Subroutine215_0
   \   00000A                ; // Fall through to label ??Subroutine215_0

   \                                 In  segment BANKED_CODE, align 1, keep-with-next
   \                     ??Subroutine215_0:
   \   000000   F0           MOVX      @DPTR,A
   \   000001   8E82         MOV       DPL,R6
   \   000003   8F83         MOV       DPH,R7
   \   000005   E0           MOVX      A,@DPTR
   \   000006   22           RET

   \                                 In  segment BANKED_CODE, align 1, keep-with-next
   \                     ?Subroutine69:
   \   000000   A3           INC       DPTR
   \   000001                REQUIRE ??Subroutine216_0
   \   000001                ; // Fall through to label ??Subroutine216_0

   \                                 In  segment BANKED_CODE, align 1, keep-with-next
   \                     ??Subroutine216_0:
   \   000000   E0           MOVX      A,@DPTR
   \   000001   8A82         MOV       DPL,R2
   \   000003   8B83         MOV       DPH,R3
   \   000005   22           RET
   2446          
   2447          #if ( ZG_BUILD_COORDINATOR_TYPE )
   2448          #ifdef ZDO_ENDDEVICEBIND_RESPONSE
   2449          /*********************************************************************
   2450           * @fn      ZDO_MatchEndDeviceBind()
   2451           *
   2452           * @brief
   2453           *
   2454           *   Called to match end device binding requests
   2455           *
   2456           * @param  bindReq  - binding request information
   2457           * @param  SecurityUse - Security enable/disable
   2458           *
   2459           * @return  none
   2460           */

   \                                 In  segment BANKED_CODE, align 1, keep-with-next
   2461          void ZDO_MatchEndDeviceBind( ZDEndDeviceBind_t *bindReq )
   \                     ZDO_MatchEndDeviceBind:
   2462          {
   \   000000                REQUIRE ?V0
   \   000000                REQUIRE ?V1
   \   000000                REQUIRE ?V2
   \   000000                REQUIRE ?V4
   \   000000                REQUIRE ?V5
   \   000000                REQUIRE ?V6
   \   000000                REQUIRE ?V7
   \   000000                REQUIRE ?V8
   \   000000                REQUIRE ?V9
   \   000000                REQUIRE ?V10
   \   000000                REQUIRE ?V11
   \   000000   74EC         MOV       A,#-0x14
   \   000002   12....       LCALL     ?BANKED_ENTER_XDATA
   \   000005                ; Saved register size: 20
   \   000005                ; Auto size: 10
   \   000005   74F6         MOV       A,#-0xa
   \   000007   12....       LCALL     ?ALLOC_XSTACK8
   \   00000A   8A..         MOV       ?V4,R2
   \   00000C   8B..         MOV       ?V5,R3
   2463            zAddrType_t dstAddr;
   2464            uint8 sendRsp = FALSE;
   \   00000E   7E00         MOV       R6,#0x0
   2465            uint8 status;
   2466          
   2467            // Is this the first request?
   2468            if ( matchED == NULL )
   \   000010   8A82         MOV       DPL,R2
   \   000012   8B83         MOV       DPH,R3
   \   000014   A3           INC       DPTR
   \   000015   8582..       MOV       ?V8,DPL
   \   000018   8583..       MOV       ?V9,DPH
   \   00001B   EA           MOV       A,R2
   \   00001C   2402         ADD       A,#0x2
   \   00001E   F5..         MOV       ?V6,A
   \   000020   E4           CLR       A
   \   000021   35..         ADDC      A,?V5
   \   000023   F5..         MOV       ?V7,A
   \   000025   90....       MOV       DPTR,#matchED
   \   000028   12....       LCALL     ??Subroutine193_0 & 0xFFFF
   \                     ??CrossCallReturnLabel_412:
   \   00002B   6003         JZ        $+5
   \   00002D   02....       LJMP      ??ZDO_MatchEndDeviceBind_0 & 0xFFFF
   2469            {
   2470              // Create match info structure
   2471              matchED = (ZDMatchEndDeviceBind_t *)osal_mem_alloc( sizeof ( ZDMatchEndDeviceBind_t ) );
   \   000030                ; Setup parameters for call to function osal_mem_alloc
   \   000030   7A37         MOV       R2,#0x37
   \   000032   7B00         MOV       R3,#0x0
   \   000034   12....       LCALL     `??osal_mem_alloc::?relay`; Banked call to: osal_mem_alloc
   \   000037   90....       MOV       DPTR,#matchED
   \   00003A   12....       LCALL     ??Subroutine180_0 & 0xFFFF
   2472              if ( matchED )
   \                     ??CrossCallReturnLabel_355:
   \   00003D   90....       MOV       DPTR,#matchED
   \   000040   12....       LCALL     ??Subroutine193_0 & 0xFFFF
   \                     ??CrossCallReturnLabel_413:
   \   000043   601C         JZ        ??ZDO_MatchEndDeviceBind_1
   2473              {
   2474                // Clear the structure
   2475                osal_memset( (uint8 *)matchED, 0, sizeof ( ZDMatchEndDeviceBind_t ) );
   \   000045                ; Setup parameters for call to function osal_memset
   \   000045   7C37         MOV       R4,#0x37
   \   000047   7D00         MOV       R5,#0x0
   \   000049   7900         MOV       R1,#0x0
   \   00004B   12....       LCALL     `??osal_memset::?relay`; Banked call to: osal_memset
   2476          
   2477                // Copy the first request's information
   2478                if ( !ZDO_CopyMatchInfo( &(matchED->ed1), bindReq ) )
   \   00004E                ; Setup parameters for call to function ZDO_CopyMatchInfo
   \   00004E   AC..         MOV       R4,?V4
   \   000050   AD..         MOV       R5,?V5
   \   000052   90....       MOV       DPTR,#matchED
   \   000055   12....       LCALL     ??Subroutine194_0 & 0xFFFF
   2479                {
   2480                  status = ZDP_NO_ENTRY;
   2481                  sendRsp = TRUE;
   2482                }
   2483              }
   \                     ??CrossCallReturnLabel_423:
   \   000058   12....       LCALL     `??ZDO_CopyMatchInfo::?relay`; Banked call to: ZDO_CopyMatchInfo
   \   00005B   E9           MOV       A,R1
   \   00005C   6003         JZ        $+5
   \   00005E   02....       LJMP      ??ZDO_MatchEndDeviceBind_2 & 0xFFFF
   2484              else
   2485              {
   2486                status = ZDP_NO_ENTRY;
   \                     ??ZDO_MatchEndDeviceBind_1:
   \   000061   85..82       MOV       DPL,?XSP + 0
   \   000064   85..83       MOV       DPH,?XSP + 1
   \   000067   7488         MOV       A,#-0x78
   \                     ??ZDO_MatchEndDeviceBind_3:
   \   000069   F0           MOVX      @DPTR,A
   2487                sendRsp = TRUE;
   2488              }
   2489          
   2490              if ( !sendRsp )
   2491              {
   2492                // Set into the correct state
   2493                matchED->state = ZDMATCH_WAIT_REQ;
   2494          
   2495                // Setup the timeout
   2496                APS_SetEndDeviceBindTimeout( AIB_MaxBindingTime, ZDO_EndDeviceBindMatchTimeoutCB );
   2497              }
   2498            }
   2499            else
   2500            {
   2501              if(matchED->state == ZDMATCH_WAIT_REQ)//when bind is running,refuse new end-device-bind-req
   2502              {
   2503                matchED->state = ZDMATCH_SENDING_BINDS;
   2504          
   2505                // Copy the 2nd request's information
   2506                if ( !ZDO_CopyMatchInfo( &(matchED->ed2), bindReq ) )
   2507                {
   2508                  status = ZDP_NO_ENTRY;
   2509                  sendRsp = TRUE;
   2510                }
   2511          
   2512                // Make a source match for ed1
   2513                matchED->ed1numMatched = ZDO_CompareClusterLists(
   2514                matchED->ed1.numOutClusters, matchED->ed1.outClusters,
   2515                matchED->ed2.numInClusters, matchED->ed2.inClusters, ZDOBuildBuf );
   2516                if ( matchED->ed1numMatched )
   2517                {
   2518                  // Save the match list
   2519                  matchED->ed1Matched = osal_mem_alloc( (short)(matchED->ed1numMatched * sizeof ( uint16 )) );
   2520                  if ( matchED->ed1Matched )
   2521                  {
   2522                    osal_memcpy( matchED->ed1Matched, ZDOBuildBuf, (matchED->ed1numMatched * sizeof ( uint16 )) );
   2523                  }
   2524                  else
   2525                  {
   2526                    // Allocation error, stop
   2527                    status = ZDP_NO_ENTRY;
   2528                    sendRsp = TRUE;
   2529                  }
   2530                }
   2531          
   2532                // Make a source match for ed2
   2533                matchED->ed2numMatched = ZDO_CompareClusterLists(
   2534                matchED->ed2.numOutClusters, matchED->ed2.outClusters,
   2535                matchED->ed1.numInClusters, matchED->ed1.inClusters, ZDOBuildBuf );
   2536                if ( matchED->ed2numMatched )
   2537                {
   2538                  // Save the match list
   2539                  matchED->ed2Matched = osal_mem_alloc( (short)(matchED->ed2numMatched * sizeof ( uint16 )) );
   2540                  if ( matchED->ed2Matched )
   2541                  {
   2542                    osal_memcpy( matchED->ed2Matched, ZDOBuildBuf, (matchED->ed2numMatched * sizeof ( uint16 )) );
   2543                  }
   2544                  else
   2545                  {
   2546                    // Allocation error, stop
   2547                    status = ZDP_NO_ENTRY;
   2548                    sendRsp = TRUE;
   2549                  }
   2550                }
   2551          
   2552                if ( (sendRsp == FALSE) && (matchED->ed1numMatched || matchED->ed2numMatched) )
   2553                {
   2554                  // Do the first unbind/bind state
   2555                  ZDMatchSendState( ZDMATCH_REASON_START, ZDP_SUCCESS, 0 );
   2556                }
   2557                else
   2558                {
   2559                  status = ZDP_NO_MATCH;
   2560                  sendRsp = TRUE;
   2561                }
   2562              }
   2563              else
   2564              {
   2565                status = ZDP_NO_ENTRY;
   2566                dstAddr.addrMode = Addr16Bit;
   2567                dstAddr.addr.shortAddr = bindReq->srcAddr;
   2568                ZDP_EndDeviceBindRsp( bindReq->TransSeq, &dstAddr, status, bindReq->SecurityUse );
   2569                return;
   2570              }
   2571            }
   2572          
   2573            if ( sendRsp )
   2574            {
   2575              // send response to this requester
   2576              dstAddr.addrMode = Addr16Bit;
   \   00006A   7409         MOV       A,#0x9
   \   00006C   12....       LCALL     ?XSTACK_DISP0_8
   \   00006F   12....       LCALL     ?Subroutine18 & 0xFFFF
   2577              dstAddr.addr.shortAddr = bindReq->srcAddr;
   \                     ??CrossCallReturnLabel_22:
   \   000072   12....       LCALL     ?XSTACK_DISP0_8
   \   000075   12....       LCALL     ?Subroutine13 & 0xFFFF
   2578              ZDP_EndDeviceBindRsp( bindReq->TransSeq, &dstAddr, status, bindReq->SecurityUse );
   \                     ??CrossCallReturnLabel_8:
   \   000078   12....       LCALL     ?PUSH_XSTACK_I_ONE
   \   00007B   7401         MOV       A,#0x1
   \   00007D   12....       LCALL     ?XSTACK_DISP100_8
   \   000080   88..         MOV       ?V0,R0
   \   000082   89..         MOV       ?V1,R1
   \   000084   78..         MOV       R0,#?V0
   \   000086   12....       LCALL     ?PUSH_XSTACK_I_TWO
   \   000089   75..20       MOV       ?V0,#0x20
   \   00008C   75..80       MOV       ?V1,#-0x80
   \   00008F   78..         MOV       R0,#?V0
   \   000091   12....       LCALL     ?PUSH_XSTACK_I_TWO
   \   000094   7901         MOV       R1,#0x1
   \   000096   7406         MOV       A,#0x6
   \   000098   12....       LCALL     ?XSTACK_DISP102_8
   \   00009B   AA..         MOV       R2,?V4
   \   00009D   AB..         MOV       R3,?V5
   \   00009F   12....       LCALL     `??ZDP_SendData::?relay`; Banked call to: ZDP_SendData
   \   0000A2   7405         MOV       A,#0x5
   \   0000A4   12....       LCALL     ?DEALLOC_XSTACK8
   2579          
   2580              if ( matchED->state == ZDMATCH_SENDING_BINDS )
   \   0000A7   12....       LCALL     ?Subroutine63 & 0xFFFF
   \                     ??CrossCallReturnLabel_105:
   \   0000AA   7044         JNZ       ??ZDO_MatchEndDeviceBind_4
   2581              {
   2582                // send response to first requester
   2583                dstAddr.addrMode = Addr16Bit;
   \   0000AC   7409         MOV       A,#0x9
   \   0000AE   12....       LCALL     ?XSTACK_DISP0_8
   \   0000B1   7402         MOV       A,#0x2
   \   0000B3   12....       LCALL     ?Subroutine49 & 0xFFFF
   2584                dstAddr.addr.shortAddr = matchED->ed1.srcAddr;
   2585                ZDP_EndDeviceBindRsp( matchED->ed1.TransSeq, &dstAddr, status, matchED->ed1.SecurityUse );
   2586              }
   \                     ??CrossCallReturnLabel_82:
   \   0000B6   12....       LCALL     ?Subroutine65 & 0xFFFF
   \                     ??CrossCallReturnLabel_436:
   \   0000B9   12....       LCALL     ?XSTACK_DISP0_8
   \   0000BC   12....       LCALL     ?Subroutine11 & 0xFFFF
   \                     ??CrossCallReturnLabel_4:
   \   0000BF   12....       LCALL     ?PUSH_XSTACK_I_ONE
   \   0000C2   7401         MOV       A,#0x1
   \   0000C4   12....       LCALL     ?XSTACK_DISP100_8
   \   0000C7   88..         MOV       ?V0,R0
   \   0000C9   89..         MOV       ?V1,R1
   \   0000CB   78..         MOV       R0,#?V0
   \   0000CD   12....       LCALL     ?PUSH_XSTACK_I_TWO
   \   0000D0   75..20       MOV       ?V0,#0x20
   \   0000D3   75..80       MOV       ?V1,#-0x80
   \   0000D6   78..         MOV       R0,#?V0
   \   0000D8   12....       LCALL     ?PUSH_XSTACK_I_TWO
   \   0000DB   7901         MOV       R1,#0x1
   \   0000DD   7406         MOV       A,#0x6
   \   0000DF   12....       LCALL     ?XSTACK_DISP102_8
   \   0000E2   90....       MOV       DPTR,#matchED
   \   0000E5   12....       LCALL     ??Subroutine194_0 & 0xFFFF
   \                     ??CrossCallReturnLabel_424:
   \   0000E8   12....       LCALL     `??ZDP_SendData::?relay`; Banked call to: ZDP_SendData
   \   0000EB   7405         MOV       A,#0x5
   \   0000ED   12....       LCALL     ?DEALLOC_XSTACK8
   2587          
   2588              // Process ended - release memory used
   2589              ZDO_RemoveMatchMemory();
   \                     ??ZDO_MatchEndDeviceBind_4:
   \   0000F0                ; Setup parameters for call to function ZDO_RemoveMatchMemory
   \   0000F0   12....       LCALL     `??ZDO_RemoveMatchMemory::?relay`; Banked call to: ZDO_RemoveMatchMemory
   2590            }
   2591          }
   \                     ??ZDO_MatchEndDeviceBind_5:
   \   0000F3   740A         MOV       A,#0xa
   \   0000F5   12....       LCALL     ?DEALLOC_XSTACK8
   \   0000F8   7F0C         MOV       R7,#0xc
   \   0000FA   02....       LJMP      ?BANKED_LEAVE_XDATA
   \                     ??ZDO_MatchEndDeviceBind_2:
   \   0000FD   12....       LCALL     ??Subroutine203_0 & 0xFFFF
   \                     ??CrossCallReturnLabel_469:
   \   000100   242E         ADD       A,#0x2e
   \   000102   F582         MOV       DPL,A
   \   000104   E4           CLR       A
   \   000105   38           ADDC      A,R0
   \   000106   F583         MOV       DPH,A
   \   000108   7401         MOV       A,#0x1
   \   00010A   F0           MOVX      @DPTR,A
   \   00010B                ; Setup parameters for call to function APS_SetEndDeviceBindTimeout
   \   00010B   7C..         MOV       R4,#`??ZDO_EndDeviceBindMatchTimeoutCB::?relay` & 0xff
   \   00010D   7D..         MOV       R5,#(`??ZDO_EndDeviceBindMatchTimeoutCB::?relay` >> 8) & 0xff
   \   00010F   90....       MOV       DPTR,#AIB_MaxBindingTime
   \   000112   12....       LCALL     ??Subroutine194_0 & 0xFFFF
   \                     ??CrossCallReturnLabel_425:
   \   000115   12....       LCALL     `??APS_SetEndDeviceBindTimeout::?relay`; Banked call to: APS_SetEndDeviceBindTimeout
   \   000118   80D9         SJMP      ??ZDO_MatchEndDeviceBind_5
   \                     ??ZDO_MatchEndDeviceBind_0:
   \   00011A   90....       MOV       DPTR,#matchED
   \   00011D   E0           MOVX      A,@DPTR
   \   00011E   242E         ADD       A,#0x2e
   \   000120   12....       LCALL     ?Subroutine68 & 0xFFFF
   \                     ??CrossCallReturnLabel_115:
   \   000123   6401         XRL       A,#0x1
   \   000125   6003         JZ        $+5
   \   000127   02....       LJMP      ??ZDO_MatchEndDeviceBind_6 & 0xFFFF
   \   00012A   7402         MOV       A,#0x2
   \   00012C   F0           MOVX      @DPTR,A
   \   00012D                ; Setup parameters for call to function ZDO_CopyMatchInfo
   \   00012D   AC..         MOV       R4,?V4
   \   00012F   AD..         MOV       R5,?V5
   \   000131   12....       LCALL     ?Subroutine94 & 0xFFFF
   \                     ??CrossCallReturnLabel_150:
   \   000134   12....       LCALL     `??ZDO_CopyMatchInfo::?relay`; Banked call to: ZDO_CopyMatchInfo
   \   000137   E9           MOV       A,R1
   \   000138   700B         JNZ       ??ZDO_MatchEndDeviceBind_7
   \   00013A   85..82       MOV       DPL,?XSP + 0
   \   00013D   85..83       MOV       DPH,?XSP + 1
   \   000140   7488         MOV       A,#-0x78
   \   000142   F0           MOVX      @DPTR,A
   \   000143   7E01         MOV       R6,#0x1
   \                     ??ZDO_MatchEndDeviceBind_7:
   \   000145                ; Setup parameters for call to function ZDO_CompareClusterLists
   \   000145   75....       MOV       ?V0,#ZDOBuildBuf & 0xff
   \   000148   75....       MOV       ?V1,#(ZDOBuildBuf >> 8) & 0xff
   \   00014B   78..         MOV       R0,#?V0
   \   00014D   12....       LCALL     ?PUSH_XSTACK_I_TWO
   \   000150   12....       LCALL     ??Subroutine203_0 & 0xFFFF
   \                     ??CrossCallReturnLabel_470:
   \   000153   2429         ADD       A,#0x29
   \   000155   F582         MOV       DPL,A
   \   000157   E4           CLR       A
   \   000158   38           ADDC      A,R0
   \   000159   F583         MOV       DPH,A
   \   00015B   12....       LCALL     ?PUSH_XSTACK8_X_TWO
   \   00015E   12....       LCALL     ??Subroutine203_0 & 0xFFFF
   \                     ??CrossCallReturnLabel_471:
   \   000161   2428         ADD       A,#0x28
   \   000163   12....       LCALL     ?Subroutine123 & 0xFFFF
   \                     ??CrossCallReturnLabel_215:
   \   000166   FC           MOV       R4,A
   \   000167   12....       LCALL     ??Subroutine203_0 & 0xFFFF
   \                     ??CrossCallReturnLabel_472:
   \   00016A   2415         ADD       A,#0x15
   \   00016C   12....       LCALL     ?Subroutine71 & 0xFFFF
   \                     ??CrossCallReturnLabel_489:
   \   00016F   2414         ADD       A,#0x14
   \   000171   12....       LCALL     ?Subroutine123 & 0xFFFF
   \                     ??CrossCallReturnLabel_216:
   \   000174   F9           MOV       R1,A
   \   000175   12....       LCALL     `??ZDO_CompareClusterLists::?relay`; Banked call to: ZDO_CompareClusterLists
   \   000178   7404         MOV       A,#0x4
   \   00017A   12....       LCALL     ?DEALLOC_XSTACK8
   \   00017D   E9           MOV       A,R1
   \   00017E   F8           MOV       R0,A
   \   00017F   12....       LCALL     ??Subroutine203_0 & 0xFFFF
   \                     ??CrossCallReturnLabel_473:
   \   000182   2431         ADD       A,#0x31
   \   000184   12....       LCALL     ?Subroutine16 & 0xFFFF
   \                     ??CrossCallReturnLabel_456:
   \   000187   2431         ADD       A,#0x31
   \   000189   12....       LCALL     ?Subroutine123 & 0xFFFF
   \                     ??CrossCallReturnLabel_217:
   \   00018C   F8           MOV       R0,A
   \   00018D   75..00       MOV       ?V2,#0x0
   \   000190   6030         JZ        ??ZDO_MatchEndDeviceBind_8
   \   000192                ; Setup parameters for call to function osal_mem_alloc
   \   000192   12....       LCALL     ?Subroutine104 & 0xFFFF
   \                     ??CrossCallReturnLabel_167:
   \   000195   12....       LCALL     `??osal_mem_alloc::?relay`; Banked call to: osal_mem_alloc
   \   000198   12....       LCALL     ??Subroutine203_0 & 0xFFFF
   \                     ??CrossCallReturnLabel_474:
   \   00019B   2432         ADD       A,#0x32
   \   00019D   12....       LCALL     ?Subroutine22 & 0xFFFF
   \                     ??CrossCallReturnLabel_452:
   \   0001A0   6015         JZ        ??ZDO_MatchEndDeviceBind_9
   \   0001A2                ; Setup parameters for call to function osal_memcpy
   \   0001A2   78..         MOV       R0,#?V0
   \   0001A4   12....       LCALL     ?PUSH_XSTACK_I_THREE
   \   0001A7   12....       LCALL     ?Subroutine57 & 0xFFFF
   \                     ??CrossCallReturnLabel_96:
   \   0001AA   12....       LCALL     ??Subroutine202_0 & 0xFFFF
   \                     ??CrossCallReturnLabel_462:
   \   0001AD   12....       LCALL     `??osal_memcpy::?relay`; Banked call to: osal_memcpy
   \   0001B0   7403         MOV       A,#0x3
   \   0001B2   12....       LCALL     ?DEALLOC_XSTACK8
   \   0001B5   800B         SJMP      ??ZDO_MatchEndDeviceBind_8
   \                     ??ZDO_MatchEndDeviceBind_9:
   \   0001B7   85..82       MOV       DPL,?XSP + 0
   \   0001BA   85..83       MOV       DPH,?XSP + 1
   \   0001BD   7488         MOV       A,#-0x78
   \   0001BF   F0           MOVX      @DPTR,A
   \   0001C0   7E01         MOV       R6,#0x1
   \                     ??ZDO_MatchEndDeviceBind_8:
   \   0001C2                ; Setup parameters for call to function ZDO_CompareClusterLists
   \   0001C2   75....       MOV       ?V10,#ZDOBuildBuf & 0xff
   \   0001C5   75....       MOV       ?V11,#(ZDOBuildBuf >> 8) & 0xff
   \   0001C8   78..         MOV       R0,#?V10
   \   0001CA   12....       LCALL     ?PUSH_XSTACK_I_TWO
   \   0001CD   12....       LCALL     ??Subroutine203_0 & 0xFFFF
   \                     ??CrossCallReturnLabel_475:
   \   0001D0   2412         ADD       A,#0x12
   \   0001D2   F582         MOV       DPL,A
   \   0001D4   E4           CLR       A
   \   0001D5   38           ADDC      A,R0
   \   0001D6   F583         MOV       DPH,A
   \   0001D8   12....       LCALL     ?PUSH_XSTACK8_X_TWO
   \   0001DB   12....       LCALL     ??Subroutine203_0 & 0xFFFF
   \                     ??CrossCallReturnLabel_476:
   \   0001DE   2411         ADD       A,#0x11
   \   0001E0   12....       LCALL     ?Subroutine123 & 0xFFFF
   \                     ??CrossCallReturnLabel_218:
   \   0001E3   FC           MOV       R4,A
   \   0001E4   12....       LCALL     ??Subroutine203_0 & 0xFFFF
   \                     ??CrossCallReturnLabel_477:
   \   0001E7   242C         ADD       A,#0x2c
   \   0001E9   12....       LCALL     ?Subroutine71 & 0xFFFF
   \                     ??CrossCallReturnLabel_490:
   \   0001EC   242B         ADD       A,#0x2b
   \   0001EE   12....       LCALL     ?Subroutine123 & 0xFFFF
   \                     ??CrossCallReturnLabel_219:
   \   0001F1   F9           MOV       R1,A
   \   0001F2   12....       LCALL     `??ZDO_CompareClusterLists::?relay`; Banked call to: ZDO_CompareClusterLists
   \   0001F5   7404         MOV       A,#0x4
   \   0001F7   12....       LCALL     ?DEALLOC_XSTACK8
   \   0001FA   E9           MOV       A,R1
   \   0001FB   F8           MOV       R0,A
   \   0001FC   12....       LCALL     ??Subroutine203_0 & 0xFFFF
   \                     ??CrossCallReturnLabel_478:
   \   0001FF   2434         ADD       A,#0x34
   \   000201   12....       LCALL     ?Subroutine16 & 0xFFFF
   \                     ??CrossCallReturnLabel_457:
   \   000204   2434         ADD       A,#0x34
   \   000206   12....       LCALL     ?Subroutine123 & 0xFFFF
   \                     ??CrossCallReturnLabel_220:
   \   000209   6023         JZ        ??ZDO_MatchEndDeviceBind_10
   \   00020B                ; Setup parameters for call to function osal_mem_alloc
   \   00020B   12....       LCALL     ?Subroutine104 & 0xFFFF
   \                     ??CrossCallReturnLabel_168:
   \   00020E   12....       LCALL     `??osal_mem_alloc::?relay`; Banked call to: osal_mem_alloc
   \   000211   12....       LCALL     ??Subroutine203_0 & 0xFFFF
   \                     ??CrossCallReturnLabel_479:
   \   000214   2435         ADD       A,#0x35
   \   000216   12....       LCALL     ?Subroutine22 & 0xFFFF
   \                     ??CrossCallReturnLabel_453:
   \   000219   602E         JZ        ??ZDO_MatchEndDeviceBind_11
   \   00021B                ; Setup parameters for call to function osal_memcpy
   \   00021B   78..         MOV       R0,#?V0
   \   00021D   12....       LCALL     ?PUSH_XSTACK_I_THREE
   \   000220   12....       LCALL     ?Subroutine58 & 0xFFFF
   \                     ??CrossCallReturnLabel_444:
   \   000223   12....       LCALL     ??Subroutine202_0 & 0xFFFF
   \                     ??CrossCallReturnLabel_463:
   \   000226   12....       LCALL     `??osal_memcpy::?relay`; Banked call to: osal_memcpy
   \   000229   7403         MOV       A,#0x3
   \   00022B   12....       LCALL     ?DEALLOC_XSTACK8
   \                     ??ZDO_MatchEndDeviceBind_10:
   \   00022E   EE           MOV       A,R6
   \   00022F   A2E0         MOV       C,0xE0 /* A   */.0
   \   000231   401F         JC        ??ZDO_MatchEndDeviceBind_12
   \   000233   12....       LCALL     ?Subroutine57 & 0xFFFF
   \                     ??CrossCallReturnLabel_97:
   \   000236   7005         JNZ       ??ZDO_MatchEndDeviceBind_13
   \   000238   12....       LCALL     ?Subroutine58 & 0xFFFF
   \                     ??CrossCallReturnLabel_445:
   \   00023B   6015         JZ        ??ZDO_MatchEndDeviceBind_12
   \                     ??ZDO_MatchEndDeviceBind_13:
   \   00023D                ; Setup parameters for call to function ZDMatchSendState
   \   00023D   7B00         MOV       R3,#0x0
   \   00023F   7A00         MOV       R2,#0x0
   \   000241   7900         MOV       R1,#0x0
   \   000243   12....       LCALL     `??ZDMatchSendState::?relay`; Banked call to: ZDMatchSendState
   \   000246   02....       LJMP      ??ZDO_MatchEndDeviceBind_5 & 0xFFFF
   \                     ??ZDO_MatchEndDeviceBind_11:
   \   000249   85..82       MOV       DPL,?XSP + 0
   \   00024C   85..83       MOV       DPH,?XSP + 1
   \   00024F   7488         MOV       A,#-0x78
   \   000251   F0           MOVX      @DPTR,A
   \                     ??ZDO_MatchEndDeviceBind_12:
   \   000252   85..82       MOV       DPL,?XSP + 0
   \   000255   85..83       MOV       DPH,?XSP + 1
   \   000258   7486         MOV       A,#-0x7a
   \   00025A   02....       LJMP      ??ZDO_MatchEndDeviceBind_3 & 0xFFFF
   \                     ??ZDO_MatchEndDeviceBind_6:
   \   00025D   85..82       MOV       DPL,?XSP + 0
   \   000260   85..83       MOV       DPH,?XSP + 1
   \   000263   7488         MOV       A,#-0x78
   \   000265   F0           MOVX      @DPTR,A
   \   000266   7409         MOV       A,#0x9
   \   000268   12....       LCALL     ?XSTACK_DISP0_8
   \   00026B   12....       LCALL     ?Subroutine18 & 0xFFFF
   \                     ??CrossCallReturnLabel_23:
   \   00026E   12....       LCALL     ?XSTACK_DISP0_8
   \   000271   12....       LCALL     ?Subroutine13 & 0xFFFF
   \                     ??CrossCallReturnLabel_9:
   \   000274   12....       LCALL     ?PUSH_XSTACK_I_ONE
   \   000277   7401         MOV       A,#0x1
   \   000279   12....       LCALL     ?XSTACK_DISP100_8
   \   00027C   88..         MOV       ?V0,R0
   \   00027E   89..         MOV       ?V1,R1
   \   000280   78..         MOV       R0,#?V0
   \   000282   12....       LCALL     ?PUSH_XSTACK_I_TWO
   \   000285   75..20       MOV       ?V0,#0x20
   \   000288   75..80       MOV       ?V1,#-0x80
   \   00028B   78..         MOV       R0,#?V0
   \   00028D   12....       LCALL     ?PUSH_XSTACK_I_TWO
   \   000290   7901         MOV       R1,#0x1
   \   000292   7406         MOV       A,#0x6
   \   000294   12....       LCALL     ?XSTACK_DISP102_8
   \   000297   12....       LCALL     `??ZDP_SendData::?relay`; Banked call to: ZDP_SendData
   \   00029A   7405         MOV       A,#0x5
   \   00029C   12....       LCALL     ?DEALLOC_XSTACK8
   \   00029F   02....       LJMP      ??ZDO_MatchEndDeviceBind_5 & 0xFFFF

   \                                 In  segment BANKED_CODE, align 1, keep-with-next
   \                     ?Subroutine65:
   \   000000   F583         MOV       DPH,A
   \   000002   8882         MOV       DPL,R0
   \   000004                REQUIRE ??Subroutine195_0
   \   000004                ; // Fall through to label ??Subroutine195_0

   \                                 In  segment BANKED_CODE, align 1, keep-with-next
   \                     ??Subroutine195_0:
   \   000000   A3           INC       DPTR
   \   000001   A3           INC       DPTR
   \   000002                REQUIRE ??Subroutine196_0
   \   000002                ; // Fall through to label ??Subroutine196_0

   \                                 In  segment BANKED_CODE, align 1, keep-with-next
   \                     ??Subroutine196_0:
   \   000000   12....       LCALL     ?Subroutine154 & 0xFFFF
   \                     ??CrossCallReturnLabel_442:
   \   000003   7401         MOV       A,#0x1
   \   000005   22           RET

   \                                 In  segment BANKED_CODE, align 1, keep-with-next
   \                     ?Subroutine58:
   \   000000   90....       MOV       DPTR,#matchED
   \   000003                REQUIRE ??Subroutine197_0
   \   000003                ; // Fall through to label ??Subroutine197_0

   \                                 In  segment BANKED_CODE, align 1, keep-with-next
   \                     ??Subroutine197_0:
   \   000000   12....       LCALL     ??Subroutine207_0 & 0xFFFF
   \                     ??CrossCallReturnLabel_498:
   \   000003   2434         ADD       A,#0x34
   \   000005   12....       LCALL     ?Subroutine157 & 0xFFFF
   \                     ??CrossCallReturnLabel_451:
   \   000008   22           RET

   \                                 In  segment BANKED_CODE, align 1, keep-with-next
   \                     ?Subroutine22:
   \   000000   F582         MOV       DPL,A
   \   000002   E4           CLR       A
   \   000003   38           ADDC      A,R0
   \   000004   F583         MOV       DPH,A
   \   000006                REQUIRE ??Subroutine198_0
   \   000006                ; // Fall through to label ??Subroutine198_0

   \                                 In  segment BANKED_CODE, align 1, keep-with-next
   \                     ??Subroutine198_0:
   \   000000   EA           MOV       A,R2
   \   000001   F0           MOVX      @DPTR,A
   \   000002   A3           INC       DPTR
   \   000003   EB           MOV       A,R3
   \   000004   F0           MOVX      @DPTR,A
   \   000005   EA           MOV       A,R2
   \   000006   4B           ORL       A,R3
   \   000007   22           RET

   \                                 In  segment BANKED_CODE, align 1, keep-with-next
   \                     ?Subroutine18:
   \   000000   7402         MOV       A,#0x2
   \   000002   F0           MOVX      @DPTR,A
   \   000003   85..82       MOV       DPL,?V6
   \   000006   85..83       MOV       DPH,?V7
   \   000009   12....       LCALL     ?Subroutine154 & 0xFFFF
   \                     ??CrossCallReturnLabel_438:
   \   00000C   7401         MOV       A,#0x1
   \   00000E   22           RET

   \                                 In  segment BANKED_CODE, align 1, keep-with-next
   \                     ?Subroutine16:
   \   000000   F582         MOV       DPL,A
   \   000002   E4           CLR       A
   \   000003   38           ADDC      A,R0
   \   000004   F583         MOV       DPH,A
   \   000006                REQUIRE ??Subroutine199_0
   \   000006                ; // Fall through to label ??Subroutine199_0

   \                                 In  segment BANKED_CODE, align 1, keep-with-next
   \                     ??Subroutine199_0:
   \   000000   12....       LCALL     ?Subroutine134 & 0xFFFF
   \                     ??CrossCallReturnLabel_459:
   \   000003   C8           XCH       A,R0
   \   000004   22           RET

   \                                 In  segment BANKED_CODE, align 1, keep-with-next
   \                     ?Subroutine134:
   \   000000   E9           MOV       A,R1
   \   000001                REQUIRE ??Subroutine200_0
   \   000001                ; // Fall through to label ??Subroutine200_0

   \                                 In  segment BANKED_CODE, align 1, keep-with-next
   \                     ??Subroutine200_0:
   \   000000   F0           MOVX      @DPTR,A
   \   000001                ; Setup parameters for call to function ZDP_SendData
   \   000001                ; Setup parameters for call to function ZDP_SendData
   \   000001                ; Setup parameters for call to function ZDP_SendData
   \   000001   12....       LCALL     ?Subroutine162 & 0xFFFF
   \                     ??CrossCallReturnLabel_508:
   \   000004   22           RET

   \                                 In  segment BANKED_CODE, align 1, keep-with-next
   \                     ?Subroutine162:
   \   000000   90....       MOV       DPTR,#matchED
   \   000003                REQUIRE ??Subroutine201_0
   \   000003                ; // Fall through to label ??Subroutine201_0

   \                                 In  segment BANKED_CODE, align 1, keep-with-next
   \                     ?Subroutine13:
   \   000000   E8           MOV       A,R0
   \   000001   F0           MOVX      @DPTR,A
   \   000002   A3           INC       DPTR
   \   000003   E9           MOV       A,R1
   \   000004   F0           MOVX      @DPTR,A
   \   000005                ; Setup parameters for call to function ZDP_SendData
   \   000005                ; Setup parameters for call to function ZDP_SendData
   \   000005   85..82       MOV       DPL,?V8
   \   000008   85..83       MOV       DPH,?V9
   \   00000B   E0           MOVX      A,@DPTR
   \   00000C   F5..         MOV       ?V0,A
   \   00000E   78..         MOV       R0,#?V0
   \   000010   22           RET

   \                                 In  segment BANKED_CODE, align 1, keep-with-next
   \                     ??Subroutine202_0:
   \   000000   25E0         ADD       A,0xE0 /* A   */
   \   000002   FC           MOV       R4,A
   \   000003   E4           CLR       A
   \   000004   33           RLC       A
   \   000005   FD           MOV       R5,A
   \   000006   22           RET

   \                                 In  segment BANKED_CODE, align 1, keep-with-next
   \                     ?Subroutine94:
   \   000000   90....       MOV       DPTR,#matchED
   \   000003   E0           MOVX      A,@DPTR
   \   000004   2417         ADD       A,#0x17
   \   000006   FA           MOV       R2,A
   \   000007   A3           INC       DPTR
   \   000008   E0           MOVX      A,@DPTR
   \   000009   3400         ADDC      A,#0x0
   \   00000B   FB           MOV       R3,A
   \   00000C   22           RET

   \                                 In  segment BANKED_CODE, align 1, keep-with-next
   \                     ?Subroutine71:
   \   000000   F582         MOV       DPL,A
   \   000002   E4           CLR       A
   \   000003   38           ADDC      A,R0
   \   000004   12....       LCALL     ?Subroutine150 & 0xFFFF
   \                     ??CrossCallReturnLabel_491:
   \   000007                REQUIRE ??Subroutine203_0
   \   000007                ; // Fall through to label ??Subroutine203_0

   \                                 In  segment BANKED_CODE, align 1, keep-with-next
   \                     ??Subroutine203_0:
   \   000000   90....       MOV       DPTR,#matchED
   \   000003                REQUIRE ??Subroutine204_0
   \   000003                ; // Fall through to label ??Subroutine204_0

   \                                 In  segment BANKED_CODE, align 1, keep-with-next
   \                     ?Subroutine68:
   \   000000   F8           MOV       R0,A
   \   000001   A3           INC       DPTR
   \   000002   E0           MOVX      A,@DPTR
   \   000003   3400         ADDC      A,#0x0
   \   000005   F9           MOV       R1,A
   \   000006   8882         MOV       DPL,R0
   \   000008   8983         MOV       DPH,R1
   \   00000A   E0           MOVX      A,@DPTR
   \   00000B   22           RET

   \                                 In  segment BANKED_CODE, align 1, keep-with-next
   \                     ?Subroutine63:
   \   000000   12....       LCALL     ?Subroutine148 & 0xFFFF
   \                     ??CrossCallReturnLabel_497:
   \   000003   242E         ADD       A,#0x2e
   \   000005   12....       LCALL     ?Subroutine157 & 0xFFFF
   \                     ??CrossCallReturnLabel_447:
   \   000008   6402         XRL       A,#0x2
   \   00000A   22           RET

   \                                 In  segment BANKED_CODE, align 1, keep-with-next
   \                     ?Subroutine57:
   \   000000   12....       LCALL     ?Subroutine148 & 0xFFFF
   \                     ??CrossCallReturnLabel_496:
   \   000003   2431         ADD       A,#0x31
   \   000005   12....       LCALL     ?Subroutine157 & 0xFFFF
   \                     ??CrossCallReturnLabel_446:
   \   000008   22           RET

   \                                 In  segment BANKED_CODE, align 1, keep-with-next
   \                     ?Subroutine49:
   \   000000   12....       LCALL     ??Subroutine200_0 & 0xFFFF
   \                     ??CrossCallReturnLabel_461:
   \   000003   22           RET

   \                                 In  segment BANKED_CODE, align 1, keep-with-next
   \                     ?Subroutine11:
   \   000000   E8           MOV       A,R0
   \   000001   F0           MOVX      @DPTR,A
   \   000002   A3           INC       DPTR
   \   000003   12....       LCALL     ?Subroutine134 & 0xFFFF
   \                     ??CrossCallReturnLabel_460:
   \   000006   F583         MOV       DPH,A
   \   000008   8882         MOV       DPL,R0
   \   00000A   A3           INC       DPTR
   \   00000B   E0           MOVX      A,@DPTR
   \   00000C   F5..         MOV       ?V0,A
   \   00000E   78..         MOV       R0,#?V0
   \   000010   22           RET

   \                                 In  segment BANKED_CODE, align 1, keep-with-next
   \                     ?Subroutine148:
   \   000000   90....       MOV       DPTR,#matchED
   \   000003                REQUIRE ??Subroutine207_0
   \   000003                ; // Fall through to label ??Subroutine207_0
   2592          #endif
   2593          
   2594          /*********************************************************************
   2595           * @fn      ZDO_RemoveMatchMemory()
   2596           *
   2597           * @brief   Called to clear the memory used for the end device bind.
   2598           *
   2599           * @param  none
   2600           *
   2601           * @return  none
   2602           */

   \                                 In  segment BANKED_CODE, align 1, keep-with-next
   2603          static void ZDO_RemoveMatchMemory( void )
   \                     ZDO_RemoveMatchMemory:
   2604          {
   \   000000   C082         PUSH      DPL
   \   000002   C083         PUSH      DPH
   \   000004                ; Saved register size: 2
   \   000004                ; Auto size: 0
   2605            if ( matchED != NULL )
   \   000004   90....       MOV       DPTR,#matchED
   \   000007   12....       LCALL     ??Subroutine193_0 & 0xFFFF
   \                     ??CrossCallReturnLabel_414:
   \   00000A   605D         JZ        ??ZDO_RemoveMatchMemory_0
   2606            {
   2607              if ( matchED->ed2Matched != NULL )
   \   00000C   E0           MOVX      A,@DPTR
   \   00000D   C8           XCH       A,R0
   \   00000E   2435         ADD       A,#0x35
   \   000010   12....       LCALL     ?Subroutine51 & 0xFFFF
   \                     ??CrossCallReturnLabel_314:
   \   000013   6003         JZ        ??ZDO_RemoveMatchMemory_1
   2608              {
   2609                osal_mem_free( matchED->ed2Matched );
   \   000015                ; Setup parameters for call to function osal_mem_free
   \   000015   12....       LCALL     `??osal_mem_free::?relay`; Banked call to: osal_mem_free
   2610              }
   2611              if ( matchED->ed1Matched != NULL )
   \                     ??ZDO_RemoveMatchMemory_1:
   \   000018   12....       LCALL     ??Subroutine203_0 & 0xFFFF
   \                     ??CrossCallReturnLabel_480:
   \   00001B   2432         ADD       A,#0x32
   \   00001D   12....       LCALL     ?Subroutine51 & 0xFFFF
   \                     ??CrossCallReturnLabel_315:
   \   000020   6003         JZ        ??ZDO_RemoveMatchMemory_2
   2612              {
   2613                osal_mem_free( matchED->ed1Matched );
   \   000022                ; Setup parameters for call to function osal_mem_free
   \   000022   12....       LCALL     `??osal_mem_free::?relay`; Banked call to: osal_mem_free
   2614              }
   2615              if ( matchED->ed1.inClusters != NULL )
   \                     ??ZDO_RemoveMatchMemory_2:
   \   000025   12....       LCALL     ??Subroutine203_0 & 0xFFFF
   \                     ??CrossCallReturnLabel_481:
   \   000028   2412         ADD       A,#0x12
   \   00002A   12....       LCALL     ?Subroutine51 & 0xFFFF
   \                     ??CrossCallReturnLabel_316:
   \   00002D   6003         JZ        ??ZDO_RemoveMatchMemory_3
   2616              {
   2617                osal_mem_free( matchED->ed1.inClusters );
   \   00002F                ; Setup parameters for call to function osal_mem_free
   \   00002F   12....       LCALL     `??osal_mem_free::?relay`; Banked call to: osal_mem_free
   2618              }
   2619              if ( matchED->ed1.outClusters != NULL )
   \                     ??ZDO_RemoveMatchMemory_3:
   \   000032   12....       LCALL     ??Subroutine203_0 & 0xFFFF
   \                     ??CrossCallReturnLabel_482:
   \   000035   2415         ADD       A,#0x15
   \   000037   12....       LCALL     ?Subroutine51 & 0xFFFF
   \                     ??CrossCallReturnLabel_317:
   \   00003A   6003         JZ        ??ZDO_RemoveMatchMemory_4
   2620              {
   2621                osal_mem_free( matchED->ed1.outClusters );
   \   00003C                ; Setup parameters for call to function osal_mem_free
   \   00003C   12....       LCALL     `??osal_mem_free::?relay`; Banked call to: osal_mem_free
   2622              }
   2623              if ( matchED->ed2.inClusters != NULL )
   \                     ??ZDO_RemoveMatchMemory_4:
   \   00003F   12....       LCALL     ??Subroutine203_0 & 0xFFFF
   \                     ??CrossCallReturnLabel_483:
   \   000042   2429         ADD       A,#0x29
   \   000044   12....       LCALL     ?Subroutine51 & 0xFFFF
   \                     ??CrossCallReturnLabel_318:
   \   000047   6003         JZ        ??ZDO_RemoveMatchMemory_5
   2624              {
   2625                osal_mem_free( matchED->ed2.inClusters );
   \   000049                ; Setup parameters for call to function osal_mem_free
   \   000049   12....       LCALL     `??osal_mem_free::?relay`; Banked call to: osal_mem_free
   2626              }
   2627              if ( matchED->ed2.outClusters != NULL )
   \                     ??ZDO_RemoveMatchMemory_5:
   \   00004C   12....       LCALL     ??Subroutine203_0 & 0xFFFF
   \                     ??CrossCallReturnLabel_484:
   \   00004F   242C         ADD       A,#0x2c
   \   000051   12....       LCALL     ?Subroutine51 & 0xFFFF
   \                     ??CrossCallReturnLabel_319:
   \   000054   6003         JZ        ??ZDO_RemoveMatchMemory_6
   2628              {
   2629                osal_mem_free( matchED->ed2.outClusters );
   \   000056                ; Setup parameters for call to function osal_mem_free
   \   000056   12....       LCALL     `??osal_mem_free::?relay`; Banked call to: osal_mem_free
   2630              }
   2631          
   2632              osal_mem_free( matchED );
   \                     ??ZDO_RemoveMatchMemory_6:
   \   000059                ; Setup parameters for call to function osal_mem_free
   \   000059   90....       MOV       DPTR,#matchED
   \   00005C   12....       LCALL     ??Subroutine194_0 & 0xFFFF
   \                     ??CrossCallReturnLabel_426:
   \   00005F   12....       LCALL     `??osal_mem_free::?relay`; Banked call to: osal_mem_free
   2633              matchED = (ZDMatchEndDeviceBind_t *)NULL;
   \   000062   90....       MOV       DPTR,#matchED
   \   000065   E4           CLR       A
   \   000066   F0           MOVX      @DPTR,A
   \   000067   A3           INC       DPTR
   \   000068   F0           MOVX      @DPTR,A
   2634            }
   2635          }
   \                     ??ZDO_RemoveMatchMemory_0:
   \   000069   02....       LJMP      ?Subroutine0 & 0xFFFF
   2636          
   2637          /*********************************************************************
   2638           * @fn      ZDO_CopyMatchInfo()
   2639           *
   2640           * @brief   Called to copy memory used for the end device bind.
   2641           *
   2642           * @param  srcReq - source information
   2643           * @param  dstReq - destination location
   2644           *
   2645           * @return  TRUE if copy was successful.
   2646           */

   \                                 In  segment BANKED_CODE, align 1, keep-with-next
   2647          static uint8 ZDO_CopyMatchInfo( ZDEndDeviceBind_t *destReq, ZDEndDeviceBind_t *srcReq )
   \                     ZDO_CopyMatchInfo:
   2648          {
   \   000000                REQUIRE ?V0
   \   000000                REQUIRE ?V1
   \   000000                REQUIRE ?V2
   \   000000                REQUIRE ?V3
   \   000000                REQUIRE ?V4
   \   000000                REQUIRE ?V5
   \   000000                REQUIRE ?V6
   \   000000                REQUIRE ?V7
   \   000000                REQUIRE ?V8
   \   000000                REQUIRE ?V9
   \   000000   74EE         MOV       A,#-0x12
   \   000002   12....       LCALL     ?BANKED_ENTER_XDATA
   \   000005                ; Saved register size: 18
   \   000005                ; Auto size: 0
   \   000005   EA           MOV       A,R2
   \   000006   FE           MOV       R6,A
   \   000007   EB           MOV       A,R3
   \   000008   FF           MOV       R7,A
   \   000009   8C..         MOV       ?V0,R4
   \   00000B   8D..         MOV       ?V1,R5
   2649            uint8 allOK = TRUE;
   \   00000D   75..01       MOV       ?V7,#0x1
   2650          
   2651            // Copy bind information into the match info structure
   2652            osal_memcpy( (uint8 *)destReq, srcReq, sizeof ( ZDEndDeviceBind_t ) );
   \   000010                ; Setup parameters for call to function osal_memcpy
   \   000010   8C..         MOV       ?V4,R4
   \   000012   8D..         MOV       ?V5,R5
   \   000014   75..00       MOV       ?V6,#0x0
   \   000017   78..         MOV       R0,#?V4
   \   000019   12....       LCALL     ?PUSH_XSTACK_I_THREE
   \   00001C   7C17         MOV       R4,#0x17
   \   00001E   7D00         MOV       R5,#0x0
   \   000020   12....       LCALL     `??osal_memcpy::?relay`; Banked call to: osal_memcpy
   \   000023   7403         MOV       A,#0x3
   \   000025   12....       LCALL     ?DEALLOC_XSTACK8
   2653          
   2654            // Initialize the destination cluster pointers
   2655            destReq->inClusters = NULL;
   \   000028   EE           MOV       A,R6
   \   000029   2412         ADD       A,#0x12
   \   00002B   12....       LCALL     ?Subroutine103 & 0xFFFF
   \                     ??CrossCallReturnLabel_164:
   \   00002E   E4           CLR       A
   \   00002F   F0           MOVX      @DPTR,A
   \   000030   A3           INC       DPTR
   \   000031   F0           MOVX      @DPTR,A
   2656            destReq->outClusters = NULL;
   \   000032   EE           MOV       A,R6
   \   000033   2415         ADD       A,#0x15
   \   000035   FE           MOV       R6,A
   \   000036   5001         JNC       ??ZDO_CopyMatchInfo_0
   \   000038   0F           INC       R7
   \                     ??ZDO_CopyMatchInfo_0:
   \   000039   8E82         MOV       DPL,R6
   \   00003B   8F83         MOV       DPH,R7
   \   00003D   E4           CLR       A
   \   00003E   F0           MOVX      @DPTR,A
   \   00003F   A3           INC       DPTR
   \   000040   F0           MOVX      @DPTR,A
   2657          
   2658            // Copy input cluster IDs
   2659            if ( srcReq->numInClusters )
   \   000041   E5..         MOV       A,?V0
   \   000043   2411         ADD       A,#0x11
   \   000045   12....       LCALL     ?Subroutine125 & 0xFFFF
   \                     ??CrossCallReturnLabel_223:
   \   000048   602B         JZ        ??ZDO_CopyMatchInfo_1
   2660            {
   2661              destReq->inClusters = osal_mem_alloc( (short)(srcReq->numInClusters * sizeof ( uint16 )) );
   \   00004A                ; Setup parameters for call to function osal_mem_alloc
   \   00004A   12....       LCALL     ?Subroutine104 & 0xFFFF
   \                     ??CrossCallReturnLabel_169:
   \   00004D   12....       LCALL     `??osal_mem_alloc::?relay`; Banked call to: osal_mem_alloc
   \   000050   85..82       MOV       DPL,?V8
   \   000053   85..83       MOV       DPH,?V9
   \   000056   12....       LCALL     ??Subroutine198_0 & 0xFFFF
   2662              if ( destReq->inClusters )
   \                     ??CrossCallReturnLabel_454:
   \   000059   6017         JZ        ??ZDO_CopyMatchInfo_2
   2663              {
   2664                // Copy the clusters
   2665                osal_memcpy( (uint8*)(destReq->inClusters), (uint8 *)(srcReq->inClusters),
   2666                                (srcReq->numInClusters * sizeof ( uint16 )) );
   \   00005B                ; Setup parameters for call to function osal_memcpy
   \   00005B   E5..         MOV       A,?V0
   \   00005D   2412         ADD       A,#0x12
   \   00005F   12....       LCALL     ?Subroutine92 & 0xFFFF
   2667              }
   \                     ??CrossCallReturnLabel_146:
   \   000062   12....       LCALL     ?PUSH_XSTACK_I_THREE
   \   000065   12....       LCALL     ?Subroutine108 & 0xFFFF
   \                     ??CrossCallReturnLabel_464:
   \   000068   12....       LCALL     `??osal_memcpy::?relay`; Banked call to: osal_memcpy
   \   00006B   7403         MOV       A,#0x3
   \   00006D   12....       LCALL     ?DEALLOC_XSTACK8
   \   000070   8003         SJMP      ??ZDO_CopyMatchInfo_1
   2668              else
   2669              {
   2670                allOK = FALSE;
   \                     ??ZDO_CopyMatchInfo_2:
   \   000072   75..00       MOV       ?V7,#0x0
   2671              }
   2672            }
   2673          
   2674            // Copy output cluster IDs
   2675            if ( srcReq->numOutClusters )
   \                     ??ZDO_CopyMatchInfo_1:
   \   000075   E5..         MOV       A,?V0
   \   000077   2414         ADD       A,#0x14
   \   000079   12....       LCALL     ?Subroutine125 & 0xFFFF
   \                     ??CrossCallReturnLabel_224:
   \   00007C   6024         JZ        ??ZDO_CopyMatchInfo_3
   2676            {
   2677              destReq->outClusters = osal_mem_alloc( (short)(srcReq->numOutClusters * sizeof ( uint16 )) );
   \   00007E                ; Setup parameters for call to function osal_mem_alloc
   \   00007E   12....       LCALL     ?Subroutine104 & 0xFFFF
   \                     ??CrossCallReturnLabel_170:
   \   000081   12....       LCALL     `??osal_mem_alloc::?relay`; Banked call to: osal_mem_alloc
   \   000084   8E82         MOV       DPL,R6
   \   000086   8F83         MOV       DPH,R7
   \   000088   12....       LCALL     ??Subroutine198_0 & 0xFFFF
   2678              if ( destReq->outClusters )
   \                     ??CrossCallReturnLabel_455:
   \   00008B   603A         JZ        ??ZDO_CopyMatchInfo_4
   2679              {
   2680                // Copy the clusters
   2681                osal_memcpy( (uint8 *)(destReq->outClusters), (uint8 *)(srcReq->outClusters),
   2682                                (srcReq->numOutClusters * sizeof ( uint16 )) );
   \   00008D                ; Setup parameters for call to function osal_memcpy
   \   00008D   E5..         MOV       A,?V0
   \   00008F   2415         ADD       A,#0x15
   \   000091   12....       LCALL     ?Subroutine92 & 0xFFFF
   2683              }
   \                     ??CrossCallReturnLabel_147:
   \   000094   12....       LCALL     ?PUSH_XSTACK_I_THREE
   \   000097   12....       LCALL     ?Subroutine108 & 0xFFFF
   \                     ??CrossCallReturnLabel_465:
   \   00009A   12....       LCALL     `??osal_memcpy::?relay`; Banked call to: osal_memcpy
   \   00009D   7403         MOV       A,#0x3
   \   00009F   12....       LCALL     ?DEALLOC_XSTACK8
   2684              else
   2685              {
   2686                allOK = FALSE;
   2687              }
   2688            }
   2689          
   2690            if ( allOK == FALSE )
   \                     ??ZDO_CopyMatchInfo_3:
   \   0000A2   E5..         MOV       A,?V7
   \   0000A4   A2E0         MOV       C,0xE0 /* A   */.0
   \   0000A6   401A         JC        ??ZDO_CopyMatchInfo_5
   2691            {
   2692              if ( destReq->inClusters != NULL )
   \                     ??ZDO_CopyMatchInfo_6:
   \   0000A8   85..82       MOV       DPL,?V8
   \   0000AB   85..83       MOV       DPH,?V9
   \   0000AE   12....       LCALL     ??Subroutine176_0 & 0xFFFF
   \                     ??CrossCallReturnLabel_309:
   \   0000B1   6003         JZ        ??ZDO_CopyMatchInfo_7
   2693              {
   2694                osal_mem_free( destReq->inClusters );
   \   0000B3                ; Setup parameters for call to function osal_mem_free
   \   0000B3   12....       LCALL     `??osal_mem_free::?relay`; Banked call to: osal_mem_free
   2695              }
   2696              if ( destReq->outClusters != NULL )
   \                     ??ZDO_CopyMatchInfo_7:
   \   0000B6   8E82         MOV       DPL,R6
   \   0000B8   8F83         MOV       DPH,R7
   \   0000BA   12....       LCALL     ??Subroutine176_0 & 0xFFFF
   \                     ??CrossCallReturnLabel_310:
   \   0000BD   6003         JZ        ??ZDO_CopyMatchInfo_5
   2697              {
   2698                osal_mem_free( destReq->outClusters );
   \   0000BF                ; Setup parameters for call to function osal_mem_free
   \   0000BF   12....       LCALL     `??osal_mem_free::?relay`; Banked call to: osal_mem_free
   2699              }
   2700            }
   2701          
   2702            return ( allOK );
   \                     ??ZDO_CopyMatchInfo_5:
   \   0000C2   A9..         MOV       R1,?V7
   \   0000C4   02....       LJMP      ??Subroutine206_0 & 0xFFFF
   \                     ??ZDO_CopyMatchInfo_4:
   \   0000C7   75..00       MOV       ?V7,#0x0
   \   0000CA   80DC         SJMP      ??ZDO_CopyMatchInfo_6
   2703          }

   \                                 In  segment BANKED_CODE, align 1, keep-with-next
   \                     ?Subroutine125:
   \   000000   F5..         MOV       ?V2,A
   \   000002   E4           CLR       A
   \   000003   35..         ADDC      A,?V1
   \   000005   F5..         MOV       ?V3,A
   \   000007   85..82       MOV       DPL,?V2
   \   00000A   F583         MOV       DPH,A
   \   00000C   E0           MOVX      A,@DPTR
   \   00000D   22           RET

   \                                 In  segment BANKED_CODE, align 1, keep-with-next
   \                     ?Subroutine108:
   \   000000   85..82       MOV       DPL,?V2
   \   000003   85..83       MOV       DPH,?V3
   \   000006   E0           MOVX      A,@DPTR
   \   000007                REQUIRE ??Subroutine202_0
   \   000007                ; // Fall through to label ??Subroutine202_0

   \                                 In  segment BANKED_CODE, align 1, keep-with-next
   \                     ?Subroutine92:
   \   000000   F582         MOV       DPL,A
   \   000002   E4           CLR       A
   \   000003   35..         ADDC      A,?V1
   \   000005   F583         MOV       DPH,A
   \   000007   E0           MOVX      A,@DPTR
   \   000008   F5..         MOV       ?V4,A
   \   00000A   A3           INC       DPTR
   \   00000B   E0           MOVX      A,@DPTR
   \   00000C   F5..         MOV       ?V5,A
   \   00000E   78..         MOV       R0,#?V4
   \   000010   22           RET
   2704          
   2705          /*********************************************************************
   2706           * @fn      ZDMatchSendState()
   2707           *
   2708           * @brief   State machine for the End device match message algorithm.
   2709           *
   2710           * @param  reason - state of algoritm
   2711           * @param  status - initial message status
   2712           * @param  TransSeq - next transaction sequence number
   2713           *
   2714           * @return  FALSE if error and we are not currently matching, TRUE
   2715           *          if success.
   2716           */

   \                                 In  segment BANKED_CODE, align 1, keep-with-next
   2717          uint8 ZDMatchSendState( uint8 reason, uint8 status, uint8 TransSeq )
   \                     ZDMatchSendState:
   2718          {
   \   000000                REQUIRE ?V0
   \   000000                REQUIRE ?V1
   \   000000                REQUIRE ?V2
   \   000000                REQUIRE ?V3
   \   000000                REQUIRE ?V4
   \   000000                REQUIRE ?V5
   \   000000                REQUIRE ?V6
   \   000000                REQUIRE ?V7
   \   000000                REQUIRE ?V8
   \   000000                REQUIRE ?V9
   \   000000   74EE         MOV       A,#-0x12
   \   000002   12....       LCALL     ?BANKED_ENTER_XDATA
   \   000005                ; Saved register size: 18
   \   000005                ; Auto size: 19
   \   000005   74ED         MOV       A,#-0x13
   \   000007   12....       LCALL     ?ALLOC_XSTACK8
   \   00000A   89..         MOV       ?V3,R1
   \   00000C   8A..         MOV       ?V6,R2
   \   00000E   8B..         MOV       ?V7,R3
   2719            uint8 *dstIEEEAddr = NULL;
   \   000010   75..00       MOV       ?V4,#0x0
   \   000013   75..00       MOV       ?V5,#0x0
   2720            uint8 dstEP = 0xFF;
   \   000016   75..FF       MOV       ?V2,#-0x1
   2721            zAddrType_t dstAddr;
   2722            zAddrType_t destinationAddr;
   2723            uint16 msgType;
   2724            uint16 clusterID = 0xFFFF;
   \   000019   75..FF       MOV       ?V8,#-0x1
   \   00001C   75..FF       MOV       ?V9,#-0x1
   2725            ZDEndDeviceBind_t *ed = NULL;
   \   00001F   75..00       MOV       ?V0,#0x0
   \   000022   75..00       MOV       ?V1,#0x0
   2726            uint8 rspStatus = ZDP_SUCCESS;
   \   000025   85..82       MOV       DPL,?XSP + 0
   \   000028   85..83       MOV       DPH,?XSP + 1
   \   00002B   E4           CLR       A
   \   00002C   12....       LCALL     ?Subroutine49 & 0xFFFF
   2727          
   2728            if ( matchED == NULL )
   \                     ??CrossCallReturnLabel_83:
   \   00002F   F9           MOV       R1,A
   \   000030   E8           MOV       A,R0
   \   000031   49           ORL       A,R1
   \   000032   6017         JZ        ??ZDMatchSendState_0
   2729            {
   2730              return ( FALSE );
   2731            }
   2732          
   2733            // Check sequence number
   2734            if ( reason == ZDMATCH_REASON_BIND_RSP || reason == ZDMATCH_REASON_UNBIND_RSP )
   \   000034   7403         MOV       A,#0x3
   \   000036   65..         XRL       A,?V3
   \   000038   6006         JZ        ??ZDMatchSendState_1
   \   00003A   7402         MOV       A,#0x2
   \   00003C   65..         XRL       A,?V3
   \   00003E   7010         JNZ       ??ZDMatchSendState_2
   2735            {
   2736              if ( TransSeq != matchED->transSeq )
   \                     ??ZDMatchSendState_1:
   \   000040   E0           MOVX      A,@DPTR
   \   000041   C8           XCH       A,R0
   \   000042   2430         ADD       A,#0x30
   \   000044   12....       LCALL     ?Subroutine123 & 0xFFFF
   \                     ??CrossCallReturnLabel_221:
   \   000047   65..         XRL       A,?V7
   \   000049   6005         JZ        ??ZDMatchSendState_2
   2737              {
   2738                return( FALSE ); // ignore the message
   \                     ??ZDMatchSendState_0:
   \   00004B   7900         MOV       R1,#0x0
   \   00004D   02....       LJMP      ??ZDMatchSendState_3 & 0xFFFF
   2739              }
   2740            }
   2741          
   2742            // turn off timer
   2743            APS_SetEndDeviceBindTimeout( 0, ZDO_EndDeviceBindMatchTimeoutCB );
   \                     ??ZDMatchSendState_2:
   \   000050                ; Setup parameters for call to function APS_SetEndDeviceBindTimeout
   \   000050   7C..         MOV       R4,#`??ZDO_EndDeviceBindMatchTimeoutCB::?relay` & 0xff
   \   000052   7D..         MOV       R5,#(`??ZDO_EndDeviceBindMatchTimeoutCB::?relay` >> 8) & 0xff
   \   000054   7A00         MOV       R2,#0x0
   \   000056   7B00         MOV       R3,#0x0
   \   000058   12....       LCALL     `??APS_SetEndDeviceBindTimeout::?relay`; Banked call to: APS_SetEndDeviceBindTimeout
   2744          
   2745            if ( reason == ZDMATCH_REASON_TIMEOUT )
   \   00005B   7401         MOV       A,#0x1
   \   00005D   65..         XRL       A,?V3
   \   00005F   700A         JNZ       ??ZDMatchSendState_4
   2746            {
   2747              rspStatus = ZDP_TIMEOUT;    // The process will stop
   \   000061   85..82       MOV       DPL,?XSP + 0
   \   000064   85..83       MOV       DPH,?XSP + 1
   \   000067   7485         MOV       A,#-0x7b
   \   000069   803D         SJMP      ??ZDMatchSendState_5
   2748            }
   2749          
   2750            if ( reason == ZDMATCH_REASON_START || reason == ZDMATCH_REASON_BIND_RSP )
   \                     ??ZDMatchSendState_4:
   \   00006B   E5..         MOV       A,?V3
   \   00006D   6006         JZ        ??ZDMatchSendState_6
   \   00006F   7403         MOV       A,#0x3
   \   000071   65..         XRL       A,?V3
   \   000073   7019         JNZ       ??ZDMatchSendState_7
   2751            {
   2752              matchED->sending = ZDMATCH_SENDING_UNBIND;
   \                     ??ZDMatchSendState_6:
   \   000075   90....       MOV       DPTR,#matchED
   \   000078   12....       LCALL     ?Subroutine66 & 0xFFFF
   \                     ??CrossCallReturnLabel_109:
   \   00007B   F0           MOVX      @DPTR,A
   2753          
   2754              if ( reason == ZDMATCH_REASON_BIND_RSP && status != ZDP_SUCCESS )
   \   00007C   7403         MOV       A,#0x3
   \   00007E   65..         XRL       A,?V3
   \   000080   7029         JNZ       ??ZDMatchSendState_8
   \   000082   E5..         MOV       A,?V6
   \   000084   6029         JZ        ??ZDMatchSendState_9
   2755              {
   2756                rspStatus = status;
   \   000086   85..82       MOV       DPL,?XSP + 0
   \   000089   85..83       MOV       DPH,?XSP + 1
   \   00008C   801A         SJMP      ??ZDMatchSendState_5
   2757              }
   2758            }
   2759            else if ( reason == ZDMATCH_REASON_UNBIND_RSP )
   \                     ??ZDMatchSendState_7:
   \   00008E   7402         MOV       A,#0x2
   \   000090   65..         XRL       A,?V3
   \   000092   701B         JNZ       ??ZDMatchSendState_9
   2760            {
   2761              if ( status == ZDP_SUCCESS )
   \   000094   E5..         MOV       A,?V6
   \   000096   90....       MOV       DPTR,#matchED
   \   000099   7005         JNZ       ??ZDMatchSendState_10
   2762              {
   2763                matchED->sending = ZDMATCH_SENDING_UNBIND;
   \   00009B   12....       LCALL     ?Subroutine66 & 0xFFFF
   2764              }
   \                     ??CrossCallReturnLabel_110:
   \   00009E   8008         SJMP      ??ZDMatchSendState_5
   2765              else
   2766              {
   2767                matchED->sending = ZDMATCH_SENDING_BIND;
   \                     ??ZDMatchSendState_10:
   \   0000A0   12....       LCALL     ??Subroutine204_0 & 0xFFFF
   2768              }
   2769            }
   \                     ??CrossCallReturnLabel_468:
   \   0000A3   12....       LCALL     ?Subroutine165 & 0xFFFF
   \                     ??CrossCallReturnLabel_282:
   \   0000A6   7402         MOV       A,#0x2
   \                     ??ZDMatchSendState_5:
   \   0000A8   F0           MOVX      @DPTR,A
   \   0000A9   8004         SJMP      ??ZDMatchSendState_9
   2770          
   2771            if ( reason != ZDMATCH_REASON_START && matchED->sending == ZDMATCH_SENDING_UNBIND )
   \                     ??ZDMatchSendState_8:
   \   0000AB   E5..         MOV       A,?V3
   \   0000AD   601D         JZ        ??ZDMatchSendState_11
   \                     ??ZDMatchSendState_9:
   \   0000AF   12....       LCALL     ?Subroutine64 & 0xFFFF
   \                     ??CrossCallReturnLabel_107:
   \   0000B2   7018         JNZ       ??ZDMatchSendState_11
   2772            {
   2773              // Move to the next cluster ID
   2774              if ( matchED->ed1numMatched )
   \   0000B4   90....       MOV       DPTR,#matchED
   \   0000B7   E0           MOVX      A,@DPTR
   \   0000B8   2431         ADD       A,#0x31
   \   0000BA   12....       LCALL     ?Subroutine68 & 0xFFFF
   \                     ??CrossCallReturnLabel_116:
   \   0000BD   700B         JNZ       ??ZDMatchSendState_12
   2775              {
   2776                matchED->ed1numMatched--;
   2777              }
   2778              else if ( matchED->ed2numMatched )
   \   0000BF   90....       MOV       DPTR,#matchED
   \   0000C2   E0           MOVX      A,@DPTR
   \   0000C3   2434         ADD       A,#0x34
   \   0000C5   12....       LCALL     ?Subroutine68 & 0xFFFF
   \                     ??CrossCallReturnLabel_117:
   \   0000C8   6002         JZ        ??ZDMatchSendState_11
   2779              {
   2780                matchED->ed2numMatched--;
   \                     ??ZDMatchSendState_12:
   \   0000CA   14           DEC       A
   \   0000CB   F0           MOVX      @DPTR,A
   2781              }
   2782            }
   2783          
   2784            // What message do we send now
   2785            if ( matchED->ed1numMatched )
   \                     ??ZDMatchSendState_11:
   \   0000CC   12....       LCALL     ?Subroutine57 & 0xFFFF
   \                     ??CrossCallReturnLabel_98:
   \   0000CF   F8           MOV       R0,A
   \   0000D0   90....       MOV       DPTR,#matchED
   \   0000D3   601C         JZ        ??ZDMatchSendState_13
   2786            {
   2787              ed = &(matchED->ed1);
   \   0000D5   12....       LCALL     ??Subroutine171_0 & 0xFFFF
   2788              clusterID = matchED->ed1Matched[matchED->ed1numMatched-1];
   \                     ??CrossCallReturnLabel_299:
   \   0000D8   12....       LCALL     ?Subroutine107 & 0xFFFF
   \                     ??CrossCallReturnLabel_178:
   \   0000DB   2432         ADD       A,#0x32
   \   0000DD   12....       LCALL     ?Subroutine56 & 0xFFFF
   2789              dstIEEEAddr = matchED->ed2.ieeeAddr;
   \                     ??CrossCallReturnLabel_94:
   \   0000E0   241D         ADD       A,#0x1d
   \   0000E2   F5..         MOV       ?V4,A
   \   0000E4   A3           INC       DPTR
   \   0000E5   E0           MOVX      A,@DPTR
   \   0000E6   3400         ADDC      A,#0x0
   \   0000E8   F5..         MOV       ?V5,A
   2790              dstEP = matchED->ed2.endpoint;
   \   0000EA   12....       LCALL     ??Subroutine203_0 & 0xFFFF
   2791            }
   \                     ??CrossCallReturnLabel_485:
   \   0000ED   2425         ADD       A,#0x25
   \   0000EF   802B         SJMP      ??ZDMatchSendState_14
   2792            else if ( matchED->ed2numMatched )
   \                     ??ZDMatchSendState_13:
   \   0000F1   12....       LCALL     ??Subroutine197_0 & 0xFFFF
   \                     ??CrossCallReturnLabel_443:
   \   0000F4   F8           MOV       R0,A
   \   0000F5   602A         JZ        ??ZDMatchSendState_15
   2793            {
   2794              ed = &(matchED->ed2);
   \   0000F7   90....       MOV       DPTR,#matchED
   \   0000FA   E0           MOVX      A,@DPTR
   \   0000FB   2417         ADD       A,#0x17
   \   0000FD   F5..         MOV       ?V0,A
   \   0000FF   A3           INC       DPTR
   \   000100   E0           MOVX      A,@DPTR
   \   000101   3400         ADDC      A,#0x0
   \   000103   F5..         MOV       ?V1,A
   2795              clusterID = matchED->ed2Matched[matchED->ed2numMatched-1];
   \   000105   12....       LCALL     ?Subroutine107 & 0xFFFF
   \                     ??CrossCallReturnLabel_179:
   \   000108   2435         ADD       A,#0x35
   \   00010A   12....       LCALL     ?Subroutine56 & 0xFFFF
   2796              dstIEEEAddr = matchED->ed1.ieeeAddr;
   \                     ??CrossCallReturnLabel_95:
   \   00010D   2406         ADD       A,#0x6
   \   00010F   F5..         MOV       ?V4,A
   \   000111   A3           INC       DPTR
   \   000112   E0           MOVX      A,@DPTR
   \   000113   3400         ADDC      A,#0x0
   \   000115   F5..         MOV       ?V5,A
   2797              dstEP = matchED->ed1.endpoint;
   \   000117   12....       LCALL     ??Subroutine203_0 & 0xFFFF
   2798            }
   \                     ??CrossCallReturnLabel_486:
   \   00011A   240E         ADD       A,#0xe
   \                     ??ZDMatchSendState_14:
   \   00011C   12....       LCALL     ?Subroutine123 & 0xFFFF
   \                     ??CrossCallReturnLabel_222:
   \   00011F   F5..         MOV       ?V2,A
   2799          
   2800            dstAddr.addrMode = Addr16Bit;
   \                     ??ZDMatchSendState_15:
   \   000121   7409         MOV       A,#0x9
   \   000123   12....       LCALL     ?XSTACK_DISP0_8
   \   000126   7402         MOV       A,#0x2
   \   000128   12....       LCALL     ?Subroutine34 & 0xFFFF
   2801          
   2802            // Send the next message
   2803            if ( (rspStatus == ZDP_SUCCESS) && ed )
   \                     ??CrossCallReturnLabel_47:
   \   00012B   E0           MOVX      A,@DPTR
   \   00012C   6003         JZ        $+5
   \   00012E   02....       LJMP      ??ZDMatchSendState_16 & 0xFFFF
   \   000131   E5..         MOV       A,?V0
   \   000133   45..         ORL       A,?V1
   \   000135   7003         JNZ       $+5
   \   000137   02....       LJMP      ??ZDMatchSendState_16 & 0xFFFF
   2804            {
   2805              // Send unbind/bind message to source
   2806              if ( matchED->sending == ZDMATCH_SENDING_UNBIND )
   \   00013A   12....       LCALL     ?Subroutine64 & 0xFFFF
   \                     ??CrossCallReturnLabel_108:
   \   00013D   7004         JNZ       ??ZDMatchSendState_17
   2807              {
   2808                msgType = Unbind_req;
   \   00013F   7E22         MOV       R6,#0x22
   \   000141   8002         SJMP      ??ZDMatchSendState_18
   2809              }
   2810              else
   2811              {
   2812                msgType = Bind_req;
   \                     ??ZDMatchSendState_17:
   \   000143   7E21         MOV       R6,#0x21
   2813              }
   2814          
   2815              dstAddr.addr.shortAddr = ed->srcAddr;
   \                     ??ZDMatchSendState_18:
   \   000145   85..82       MOV       DPL,?V0
   \   000148   85..83       MOV       DPH,?V1
   \   00014B   12....       LCALL     ??Subroutine195_0 & 0xFFFF
   \                     ??CrossCallReturnLabel_435:
   \   00014E   12....       LCALL     ?XSTACK_DISP0_8
   \   000151   12....       LCALL     ??Subroutine178_0 & 0xFFFF
   2816          
   2817              // Save off the transaction sequence number
   2818              matchED->transSeq = ZDP_TransID;
   \                     ??CrossCallReturnLabel_342:
   \   000154   90....       MOV       DPTR,#ZDP_TransID
   \   000157   E0           MOVX      A,@DPTR
   \   000158   C0E0         PUSH      A
   \   00015A   12....       LCALL     ??Subroutine203_0 & 0xFFFF
   \                     ??CrossCallReturnLabel_487:
   \   00015D   2430         ADD       A,#0x30
   \   00015F   F582         MOV       DPL,A
   \   000161   E4           CLR       A
   \   000162   38           ADDC      A,R0
   \   000163   F583         MOV       DPH,A
   \   000165   D0E0         POP       A
   \   000167   F0           MOVX      @DPTR,A
   2819          
   2820              destinationAddr.addrMode = Addr64Bit;
   \   000168   7412         MOV       A,#0x12
   \   00016A   12....       LCALL     ?XSTACK_DISP0_8
   \   00016D   7403         MOV       A,#0x3
   \   00016F   F0           MOVX      @DPTR,A
   2821              osal_cpyExtAddr( destinationAddr.addr.extAddr, dstIEEEAddr );
   \   000170                ; Setup parameters for call to function sAddrExtCpy
   \   000170   AC..         MOV       R4,?V4
   \   000172   AD..         MOV       R5,?V5
   \   000174   740A         MOV       A,#0xa
   \   000176   12....       LCALL     ?XSTACK_DISP101_8
   \   000179   12....       LCALL     `??sAddrExtCpy::?relay`; Banked call to: sAddrExtCpy
   2822          
   2823              ZDP_BindUnbindReq( msgType, &dstAddr, ed->ieeeAddr, ed->endpoint, clusterID,
   2824                  &destinationAddr, dstEP, ed->SecurityUse );
   \   00017C                ; Setup parameters for call to function ZDP_BindUnbindReq
   \   00017C   85..82       MOV       DPL,?V0
   \   00017F   85..83       MOV       DPH,?V1
   \   000182   A3           INC       DPTR
   \   000183   E0           MOVX      A,@DPTR
   \   000184   F5..         MOV       ?V4,A
   \   000186   78..         MOV       R0,#?V4
   \   000188   12....       LCALL     ?PUSH_XSTACK_I_ONE
   \   00018B   78..         MOV       R0,#?V2
   \   00018D   12....       LCALL     ?PUSH_XSTACK_I_ONE
   \   000190   740C         MOV       A,#0xc
   \   000192   12....       LCALL     ?XSTACK_DISP100_8
   \   000195   88..         MOV       ?V4,R0
   \   000197   89..         MOV       ?V5,R1
   \   000199   78..         MOV       R0,#?V4
   \   00019B   12....       LCALL     ?PUSH_XSTACK_I_TWO
   \   00019E   78..         MOV       R0,#?V8
   \   0001A0   12....       LCALL     ?PUSH_XSTACK_I_TWO
   \   0001A3   E5..         MOV       A,?V0
   \   0001A5   2406         ADD       A,#0x6
   \   0001A7   F5..         MOV       ?V4,A
   \   0001A9   E4           CLR       A
   \   0001AA   35..         ADDC      A,?V1
   \   0001AC   F5..         MOV       ?V5,A
   \   0001AE   78..         MOV       R0,#?V4
   \   0001B0   12....       LCALL     ?PUSH_XSTACK_I_TWO
   \   0001B3   12....       LCALL     ?Subroutine115 & 0xFFFF
   \                     ??CrossCallReturnLabel_194:
   \   0001B6   F9           MOV       R1,A
   \   0001B7   7409         MOV       A,#0x9
   \   0001B9   12....       LCALL     ?XSTACK_DISP102_8
   \   0001BC   EE           MOV       A,R6
   \   0001BD   FA           MOV       R2,A
   \   0001BE   7B00         MOV       R3,#0x0
   \   0001C0   12....       LCALL     `??ZDP_BindUnbindReq::?relay`; Banked call to: ZDP_BindUnbindReq
   \   0001C3   7408         MOV       A,#0x8
   \   0001C5   12....       LCALL     ?DEALLOC_XSTACK8
   2825          
   2826              // Set timeout for response
   2827              APS_SetEndDeviceBindTimeout( AIB_MaxBindingTime, ZDO_EndDeviceBindMatchTimeoutCB );
   \   0001C8                ; Setup parameters for call to function APS_SetEndDeviceBindTimeout
   \   0001C8   7C..         MOV       R4,#`??ZDO_EndDeviceBindMatchTimeoutCB::?relay` & 0xff
   \   0001CA   7D..         MOV       R5,#(`??ZDO_EndDeviceBindMatchTimeoutCB::?relay` >> 8) & 0xff
   \   0001CC   90....       MOV       DPTR,#AIB_MaxBindingTime
   \   0001CF   12....       LCALL     ??Subroutine194_0 & 0xFFFF
   2828            }
   \                     ??CrossCallReturnLabel_427:
   \   0001D2   12....       LCALL     `??APS_SetEndDeviceBindTimeout::?relay`; Banked call to: APS_SetEndDeviceBindTimeout
   \   0001D5   02....       LJMP      ??ZDMatchSendState_19 & 0xFFFF
   2829            else
   2830            {
   2831              // Send the response messages to requesting devices
   2832              // send response to first requester
   2833              dstAddr.addr.shortAddr = matchED->ed1.srcAddr;
   \                     ??ZDMatchSendState_16:
   \   0001D8   12....       LCALL     ?Subroutine162 & 0xFFFF
   \                     ??CrossCallReturnLabel_507:
   \   0001DB   12....       LCALL     ?Subroutine65 & 0xFFFF
   \                     ??CrossCallReturnLabel_437:
   \   0001DE   12....       LCALL     ?XSTACK_DISP0_8
   \   0001E1   12....       LCALL     ?Subroutine11 & 0xFFFF
   2834              ZDP_EndDeviceBindRsp( matchED->ed1.TransSeq, &dstAddr, rspStatus, matchED->ed1.SecurityUse );
   \                     ??CrossCallReturnLabel_5:
   \   0001E4   12....       LCALL     ?PUSH_XSTACK_I_ONE
   \   0001E7   7401         MOV       A,#0x1
   \   0001E9   12....       LCALL     ?XSTACK_DISP100_8
   \   0001EC   88..         MOV       ?V0,R0
   \   0001EE   89..         MOV       ?V1,R1
   \   0001F0   78..         MOV       R0,#?V0
   \   0001F2   12....       LCALL     ?PUSH_XSTACK_I_TWO
   \   0001F5   75..20       MOV       ?V0,#0x20
   \   0001F8   75..80       MOV       ?V1,#-0x80
   \   0001FB   78..         MOV       R0,#?V0
   \   0001FD   12....       LCALL     ?PUSH_XSTACK_I_TWO
   \   000200   7901         MOV       R1,#0x1
   \   000202   7406         MOV       A,#0x6
   \   000204   12....       LCALL     ?XSTACK_DISP102_8
   \   000207   90....       MOV       DPTR,#matchED
   \   00020A   12....       LCALL     ??Subroutine194_0 & 0xFFFF
   \                     ??CrossCallReturnLabel_428:
   \   00020D   12....       LCALL     `??ZDP_SendData::?relay`; Banked call to: ZDP_SendData
   \   000210   7405         MOV       A,#0x5
   \   000212   12....       LCALL     ?DEALLOC_XSTACK8
   2835          
   2836              // send response to second requester
   2837              if ( matchED->state == ZDMATCH_SENDING_BINDS )
   \   000215   12....       LCALL     ?Subroutine63 & 0xFFFF
   \                     ??CrossCallReturnLabel_106:
   \   000218   704A         JNZ       ??ZDMatchSendState_20
   2838              {
   2839                dstAddr.addr.shortAddr = matchED->ed2.srcAddr;
   \   00021A   12....       LCALL     ??Subroutine203_0 & 0xFFFF
   2840                ZDP_EndDeviceBindRsp( matchED->ed2.TransSeq, &dstAddr, rspStatus, matchED->ed2.SecurityUse );
   2841              }
   \                     ??CrossCallReturnLabel_488:
   \   00021D   2419         ADD       A,#0x19
   \   00021F   F582         MOV       DPL,A
   \   000221   E4           CLR       A
   \   000222   38           ADDC      A,R0
   \   000223   F583         MOV       DPH,A
   \   000225   12....       LCALL     ??Subroutine196_0 & 0xFFFF
   \                     ??CrossCallReturnLabel_434:
   \   000228   12....       LCALL     ?XSTACK_DISP0_8
   \   00022B   E8           MOV       A,R0
   \   00022C   F0           MOVX      @DPTR,A
   \   00022D   A3           INC       DPTR
   \   00022E   12....       LCALL     ??Subroutine199_0 & 0xFFFF
   \                     ??CrossCallReturnLabel_458:
   \   000231   2418         ADD       A,#0x18
   \   000233   12....       LCALL     ?Subroutine122 & 0xFFFF
   \                     ??CrossCallReturnLabel_213:
   \   000236   12....       LCALL     ?PUSH_XSTACK_I_ONE
   \   000239   7401         MOV       A,#0x1
   \   00023B   12....       LCALL     ?XSTACK_DISP100_8
   \   00023E   88..         MOV       ?V0,R0
   \   000240   89..         MOV       ?V1,R1
   \   000242   78..         MOV       R0,#?V0
   \   000244   12....       LCALL     ?PUSH_XSTACK_I_TWO
   \   000247   75..20       MOV       ?V0,#0x20
   \   00024A   75..80       MOV       ?V1,#-0x80
   \   00024D   78..         MOV       R0,#?V0
   \   00024F   12....       LCALL     ?PUSH_XSTACK_I_TWO
   \   000252   7901         MOV       R1,#0x1
   \   000254   7406         MOV       A,#0x6
   \   000256   12....       LCALL     ?XSTACK_DISP102_8
   \   000259   12....       LCALL     ?Subroutine94 & 0xFFFF
   \                     ??CrossCallReturnLabel_151:
   \   00025C   12....       LCALL     `??ZDP_SendData::?relay`; Banked call to: ZDP_SendData
   \   00025F   7405         MOV       A,#0x5
   \   000261   12....       LCALL     ?DEALLOC_XSTACK8
   2842          
   2843              // Process ended - release memory used
   2844              ZDO_RemoveMatchMemory();
   \                     ??ZDMatchSendState_20:
   \   000264                ; Setup parameters for call to function ZDO_RemoveMatchMemory
   \   000264   12....       LCALL     `??ZDO_RemoveMatchMemory::?relay`; Banked call to: ZDO_RemoveMatchMemory
   2845            }
   2846          
   2847            return ( TRUE );
   \                     ??ZDMatchSendState_19:
   \   000267   7901         MOV       R1,#0x1
   \                     ??ZDMatchSendState_3:
   \   000269   7413         MOV       A,#0x13
   \   00026B   02....       LJMP      ?Subroutine7 & 0xFFFF
   2848          }

   \                                 In  segment BANKED_CODE, align 1, keep-with-next
   \                     ?Subroutine122:
   \   000000   12....       LCALL     ?Subroutine157 & 0xFFFF
   \                     ??CrossCallReturnLabel_449:
   \   000003   F5..         MOV       ?V0,A
   \   000005   78..         MOV       R0,#?V0
   \   000007   22           RET

   \                                 In  segment BANKED_CODE, align 1, keep-with-next
   \                     ?Subroutine107:
   \   000000   E8           MOV       A,R0
   \   000001   28           ADD       A,R0
   \   000002   F8           MOV       R0,A
   \   000003   E4           CLR       A
   \   000004   33           RLC       A
   \   000005   F9           MOV       R1,A
   \   000006   90....       MOV       DPTR,#matchED
   \   000009   E0           MOVX      A,@DPTR
   \   00000A   FA           MOV       R2,A
   \   00000B   A3           INC       DPTR
   \   00000C   E0           MOVX      A,@DPTR
   \   00000D   CA           XCH       A,R2
   \   00000E   22           RET

   \                                 In  segment BANKED_CODE, align 1, keep-with-next
   \                     ?Subroutine66:
   \   000000   12....       LCALL     ?Subroutine145 & 0xFFFF
   \                     ??CrossCallReturnLabel_265:
   \   000003   7401         MOV       A,#0x1
   \   000005   22           RET

   \                                 In  segment BANKED_CODE, align 1, keep-with-next
   \                     ?Subroutine64:
   \   000000   90....       MOV       DPTR,#matchED
   \   000003   12....       LCALL     ?Subroutine145 & 0xFFFF
   \                     ??CrossCallReturnLabel_264:
   \   000006   E0           MOVX      A,@DPTR
   \   000007   6401         XRL       A,#0x1
   \   000009   22           RET

   \                                 In  segment BANKED_CODE, align 1, keep-with-next
   \                     ?Subroutine145:
   \   000000   12....       LCALL     ??Subroutine201_0 & 0xFFFF
   \                     ??CrossCallReturnLabel_504:
   \   000003   C8           XCH       A,R0
   \   000004   12....       LCALL     ?Subroutine165 & 0xFFFF
   \                     ??CrossCallReturnLabel_283:
   \   000007   22           RET

   \                                 In  segment BANKED_CODE, align 1, keep-with-next
   \                     ?Subroutine165:
   \   000000   242F         ADD       A,#0x2f
   \   000002   F582         MOV       DPL,A
   \   000004   E4           CLR       A
   \   000005   38           ADDC      A,R0
   \   000006   F583         MOV       DPH,A
   \   000008   22           RET

   \                                 In  segment BANKED_CODE, align 1, keep-with-next
   \                     ?Subroutine56:
   \   000000   F582         MOV       DPL,A
   \   000002   E4           CLR       A
   \   000003   3A           ADDC      A,R2
   \   000004   F583         MOV       DPH,A
   \   000006   E0           MOVX      A,@DPTR
   \   000007   28           ADD       A,R0
   \   000008   F8           MOV       R0,A
   \   000009   A3           INC       DPTR
   \   00000A   E0           MOVX      A,@DPTR
   \   00000B   39           ADDC      A,R1
   \   00000C   F9           MOV       R1,A
   \   00000D   E8           MOV       A,R0
   \   00000E   24FE         ADD       A,#-0x2
   \   000010   F582         MOV       DPL,A
   \   000012   E9           MOV       A,R1
   \   000013   34FF         ADDC      A,#-0x1
   \   000015   F583         MOV       DPH,A
   \   000017   E0           MOVX      A,@DPTR
   \   000018   F5..         MOV       ?V8,A
   \   00001A   A3           INC       DPTR
   \   00001B   E0           MOVX      A,@DPTR
   \   00001C   F5..         MOV       ?V9,A
   \   00001E   90....       MOV       DPTR,#matchED
   \   000021   E0           MOVX      A,@DPTR
   \   000022   22           RET
   2849          
   2850          /*********************************************************************
   2851           * @fn      ZDO_EndDeviceBindMatchTimeoutCB()
   2852           *
   2853           * @brief   End device bind timeout.
   2854           *
   2855           * @param  none
   2856           *
   2857           * @return  none
   2858           */

   \                                 In  segment BANKED_CODE, align 1, keep-with-next
   2859          static void ZDO_EndDeviceBindMatchTimeoutCB( void )
   \                     ZDO_EndDeviceBindMatchTimeoutCB:
   2860          {
   \   000000   C082         PUSH      DPL
   \   000002   C083         PUSH      DPH
   \   000004                ; Saved register size: 2
   \   000004                ; Auto size: 0
   2861            ZDMatchSendState( ZDMATCH_REASON_TIMEOUT, ZDP_TIMEOUT, 0 );
   \   000004                ; Setup parameters for call to function ZDMatchSendState
   \   000004   7B00         MOV       R3,#0x0
   \   000006   7A85         MOV       R2,#-0x7b
   \   000008   7901         MOV       R1,#0x1
   \   00000A   12....       LCALL     `??ZDMatchSendState::?relay`; Banked call to: ZDMatchSendState
   2862          }
   \   00000D   02....       LJMP      ?Subroutine0 & 0xFFFF
   2863          #endif // ZG_BUILD_COORDINATOR_TYPE
   2864          
   2865          /*********************************************************************
   2866           * ZDO MESSAGE PARSING API FUNCTIONS
   2867           */
   2868          
   2869          #ifdef ZDO_ENDDEVICEBIND_RESPONSE
   2870          /*********************************************************************
   2871           * @fn          ZDO_ParseEndDeviceBindReq
   2872           *
   2873           * @brief       This function parses the End_Device_Bind_req message.
   2874           *
   2875           *     NOTE:  The clusters lists in bindReq are allocated in this
   2876           *            function and must be freed by that calling function.
   2877           *
   2878           * @param       inMsg  - incoming message (request)
   2879           * @param       bindReq - pointer to place to parse message to
   2880           *
   2881           * @return      none
   2882           */

   \                                 In  segment BANKED_CODE, align 1, keep-with-next
   2883          void ZDO_ParseEndDeviceBindReq( zdoIncomingMsg_t *inMsg, ZDEndDeviceBind_t *bindReq )
   \                     ZDO_ParseEndDeviceBindReq:
   2884          {
   \   000000                REQUIRE ?V0
   \   000000                REQUIRE ?V1
   \   000000                REQUIRE ?V2
   \   000000                REQUIRE ?V3
   \   000000                REQUIRE ?V4
   \   000000                REQUIRE ?V5
   \   000000                REQUIRE ?V6
   \   000000                REQUIRE ?V7
   \   000000                REQUIRE ?V8
   \   000000                REQUIRE ?V9
   \   000000   74EE         MOV       A,#-0x12
   \   000002   12....       LCALL     ?BANKED_ENTER_XDATA
   \   000005                ; Saved register size: 18
   \   000005                ; Auto size: 0
   \   000005   EC           MOV       A,R4
   \   000006   FE           MOV       R6,A
   \   000007   ED           MOV       A,R5
   \   000008   FF           MOV       R7,A
   2885            uint8 *msg;
   2886          
   2887            // Parse the message
   2888            bindReq->TransSeq = inMsg->TransSeq;
   \   000009   EA           MOV       A,R2
   \   00000A   12....       LCALL     ?Subroutine120 & 0xFFFF
   \                     ??CrossCallReturnLabel_207:
   \   00000D   12....       LCALL     ?Subroutine133 & 0xFFFF
   \                     ??CrossCallReturnLabel_239:
   \   000010   12....       LCALL     ?Subroutine47 & 0xFFFF
   2889            bindReq->srcAddr = inMsg->srcAddr.addr.shortAddr;
   \                     ??CrossCallReturnLabel_75:
   \   000013   12....       LCALL     ?Subroutine82 & 0xFFFF
   \                     ??CrossCallReturnLabel_133:
   \   000016   12....       LCALL     ??Subroutine178_0 & 0xFFFF
   2890            bindReq->SecurityUse = inMsg->SecurityUse;
   \                     ??CrossCallReturnLabel_343:
   \   000019   EA           MOV       A,R2
   \   00001A   12....       LCALL     ?Subroutine116 & 0xFFFF
   \                     ??CrossCallReturnLabel_196:
   \   00001D   12....       LCALL     ?Subroutine133 & 0xFFFF
   \                     ??CrossCallReturnLabel_240:
   \   000020   A3           INC       DPTR
   \   000021   F0           MOVX      @DPTR,A
   2891            msg = inMsg->asdu;
   \   000022   12....       LCALL     ?Subroutine105 & 0xFFFF
   \                     ??CrossCallReturnLabel_173:
   \   000025   F5..         MOV       ?V2,A
   \   000027   A3           INC       DPTR
   \   000028   E0           MOVX      A,@DPTR
   \   000029   F5..         MOV       ?V3,A
   2892          
   2893            bindReq->localCoordinator = BUILD_UINT16( msg[0], msg[1] );
   \   00002B   85..82       MOV       DPL,?V2
   \   00002E   F583         MOV       DPH,A
   \   000030   12....       LCALL     ??Subroutine210_0 & 0xFFFF
   \                     ??CrossCallReturnLabel_517:
   \   000033   8E82         MOV       DPL,R6
   \   000035   8F83         MOV       DPH,R7
   \   000037   A3           INC       DPTR
   \   000038   A3           INC       DPTR
   \   000039   A3           INC       DPTR
   \   00003A   A3           INC       DPTR
   \   00003B   12....       LCALL     ?Subroutine36 & 0xFFFF
   2894            msg += 2;
   \                     ??CrossCallReturnLabel_51:
   \   00003E   5002         JNC       ??ZDO_ParseEndDeviceBindReq_0
   \   000040   05..         INC       ?V3
   2895          
   2896            osal_cpyExtAddr( bindReq->ieeeAddr, msg );
   \                     ??ZDO_ParseEndDeviceBindReq_0:
   \   000042                ; Setup parameters for call to function sAddrExtCpy
   \   000042   FC           MOV       R4,A
   \   000043   AD..         MOV       R5,?V3
   \   000045   EE           MOV       A,R6
   \   000046   2406         ADD       A,#0x6
   \   000048   FA           MOV       R2,A
   \   000049   E4           CLR       A
   \   00004A   3F           ADDC      A,R7
   \   00004B   FB           MOV       R3,A
   \   00004C   12....       LCALL     `??sAddrExtCpy::?relay`; Banked call to: sAddrExtCpy
   2897            msg += Z_EXTADDR_LEN;
   2898          
   2899            bindReq->endpoint = *msg++;
   \   00004F   85..82       MOV       DPL,?V2
   \   000052   85..83       MOV       DPH,?V3
   \   000055   A3           INC       DPTR
   \   000056   A3           INC       DPTR
   \   000057   A3           INC       DPTR
   \   000058   A3           INC       DPTR
   \   000059   A3           INC       DPTR
   \   00005A   A3           INC       DPTR
   \   00005B   A3           INC       DPTR
   \   00005C   A3           INC       DPTR
   \   00005D   E0           MOVX      A,@DPTR
   \   00005E   C0E0         PUSH      A
   \   000060   EE           MOV       A,R6
   \   000061   12....       LCALL     ?Subroutine116 & 0xFFFF
   \                     ??CrossCallReturnLabel_197:
   \   000064   3F           ADDC      A,R7
   \   000065   F583         MOV       DPH,A
   \   000067   D0E0         POP       A
   \   000069   12....       LCALL     ?Subroutine35 & 0xFFFF
   \                     ??CrossCallReturnLabel_48:
   \   00006C   5002         JNC       ??ZDO_ParseEndDeviceBindReq_1
   \   00006E   05..         INC       ?V3
   2900            bindReq->profileID = BUILD_UINT16( msg[0], msg[1] );
   \                     ??ZDO_ParseEndDeviceBindReq_1:
   \   000070   F582         MOV       DPL,A
   \   000072   85..83       MOV       DPH,?V3
   \   000075   12....       LCALL     ??Subroutine210_0 & 0xFFFF
   \                     ??CrossCallReturnLabel_518:
   \   000078   F8           MOV       R0,A
   \   000079   EE           MOV       A,R6
   \   00007A   12....       LCALL     ?Subroutine120 & 0xFFFF
   \                     ??CrossCallReturnLabel_208:
   \   00007D   3F           ADDC      A,R7
   \   00007E   F583         MOV       DPH,A
   \   000080   12....       LCALL     ??Subroutine178_0 & 0xFFFF
   2901            msg += 2;
   2902          
   2903            bindReq->inClusters = NULL;
   \                     ??CrossCallReturnLabel_344:
   \   000083   EE           MOV       A,R6
   \   000084   2412         ADD       A,#0x12
   \   000086   F5..         MOV       ?V4,A
   \   000088   E4           CLR       A
   \   000089   3F           ADDC      A,R7
   \   00008A   F5..         MOV       ?V5,A
   \   00008C   85..82       MOV       DPL,?V4
   \   00008F   F583         MOV       DPH,A
   \   000091   E4           CLR       A
   \   000092   F0           MOVX      @DPTR,A
   \   000093   A3           INC       DPTR
   \   000094   F0           MOVX      @DPTR,A
   2904            bindReq->outClusters = NULL;
   \   000095   EE           MOV       A,R6
   \   000096   2415         ADD       A,#0x15
   \   000098   F5..         MOV       ?V6,A
   \   00009A   E4           CLR       A
   \   00009B   3F           ADDC      A,R7
   \   00009C   F5..         MOV       ?V7,A
   \   00009E   85..82       MOV       DPL,?V6
   \   0000A1   F583         MOV       DPH,A
   \   0000A3   E4           CLR       A
   \   0000A4   F0           MOVX      @DPTR,A
   \   0000A5   A3           INC       DPTR
   \   0000A6   12....       LCALL     ?Subroutine27 & 0xFFFF
   2905          
   2906            if ((bindReq->numInClusters = *msg++) &&
   2907                (bindReq->inClusters = (uint16*)osal_mem_alloc( (bindReq->numInClusters * sizeof( uint16 )))))
   \                     ??CrossCallReturnLabel_32:
   \   0000A9   2411         ADD       A,#0x11
   \   0000AB   F5..         MOV       ?V0,A
   \   0000AD   E4           CLR       A
   \   0000AE   3F           ADDC      A,R7
   \   0000AF   F5..         MOV       ?V1,A
   \   0000B1   E8           MOV       A,R0
   \   0000B2   85..82       MOV       DPL,?V0
   \   0000B5   85..83       MOV       DPH,?V1
   \   0000B8   F0           MOVX      @DPTR,A
   \   0000B9   E5..         MOV       A,?V2
   \   0000BB   2403         ADD       A,#0x3
   \   0000BD   F5..         MOV       ?V2,A
   \   0000BF   5002         JNC       ??ZDO_ParseEndDeviceBindReq_2
   \   0000C1   05..         INC       ?V3
   \                     ??ZDO_ParseEndDeviceBindReq_2:
   \   0000C3   E8           MOV       A,R0
   \   0000C4   6034         JZ        ??ZDO_ParseEndDeviceBindReq_3
   \   0000C6                ; Setup parameters for call to function osal_mem_alloc
   \   0000C6   28           ADD       A,R0
   \   0000C7   FA           MOV       R2,A
   \   0000C8   E4           CLR       A
   \   0000C9   33           RLC       A
   \   0000CA   FB           MOV       R3,A
   \   0000CB   12....       LCALL     `??osal_mem_alloc::?relay`; Banked call to: osal_mem_alloc
   \   0000CE   8A..         MOV       ?V8,R2
   \   0000D0   8B..         MOV       ?V9,R3
   \   0000D2   AC..         MOV       R4,?V8
   \   0000D4   AD..         MOV       R5,?V9
   \   0000D6   85..82       MOV       DPL,?V4
   \   0000D9   85..83       MOV       DPH,?V5
   \   0000DC   EC           MOV       A,R4
   \   0000DD   F0           MOVX      @DPTR,A
   \   0000DE   A3           INC       DPTR
   \   0000DF   ED           MOV       A,R5
   \   0000E0   F0           MOVX      @DPTR,A
   \   0000E1   EC           MOV       A,R4
   \   0000E2   4D           ORL       A,R5
   \   0000E3   6015         JZ        ??ZDO_ParseEndDeviceBindReq_3
   2908            {
   2909              msg = ZDO_ConvertOTAClusters( bindReq->numInClusters, msg, bindReq->inClusters );
   \   0000E5                ; Setup parameters for call to function ZDO_ConvertOTAClusters
   \   0000E5   AA..         MOV       R2,?V2
   \   0000E7   AB..         MOV       R3,?V3
   \   0000E9   85..82       MOV       DPL,?V0
   \   0000EC   85..83       MOV       DPH,?V1
   \   0000EF   E0           MOVX      A,@DPTR
   \   0000F0   F9           MOV       R1,A
   \   0000F1   12....       LCALL     `??ZDO_ConvertOTAClusters::?relay`; Banked call to: ZDO_ConvertOTAClusters
   \   0000F4   8A..         MOV       ?V2,R2
   \   0000F6   8B..         MOV       ?V3,R3
   \   0000F8   8008         SJMP      ??ZDO_ParseEndDeviceBindReq_4
   2910            }
   2911            else
   2912            {
   2913              bindReq->numInClusters = 0;
   \                     ??ZDO_ParseEndDeviceBindReq_3:
   \   0000FA   85..82       MOV       DPL,?V0
   \   0000FD   85..83       MOV       DPH,?V1
   \   000100   E4           CLR       A
   \   000101   F0           MOVX      @DPTR,A
   2914            }
   2915          
   2916            if ((bindReq->numOutClusters = *msg++) &&
   2917                (bindReq->outClusters = (uint16*)osal_mem_alloc((bindReq->numOutClusters * sizeof(uint16)))))
   \                     ??ZDO_ParseEndDeviceBindReq_4:
   \   000102   85..82       MOV       DPL,?V2
   \   000105   85..83       MOV       DPH,?V3
   \   000108   E0           MOVX      A,@DPTR
   \   000109   FA           MOV       R2,A
   \   00010A   EE           MOV       A,R6
   \   00010B   2414         ADD       A,#0x14
   \   00010D   F8           MOV       R0,A
   \   00010E   E4           CLR       A
   \   00010F   3F           ADDC      A,R7
   \   000110   F9           MOV       R1,A
   \   000111   E8           MOV       A,R0
   \   000112   FE           MOV       R6,A
   \   000113   E9           MOV       A,R1
   \   000114   FF           MOV       R7,A
   \   000115   EA           MOV       A,R2
   \   000116   8E82         MOV       DPL,R6
   \   000118   8F83         MOV       DPH,R7
   \   00011A   12....       LCALL     ?Subroutine28 & 0xFFFF
   \                     ??CrossCallReturnLabel_36:
   \   00011D   8582..       MOV       ?V2,DPL
   \   000120   8583..       MOV       ?V3,DPH
   \   000123   602E         JZ        ??ZDO_ParseEndDeviceBindReq_5
   \   000125                ; Setup parameters for call to function osal_mem_alloc
   \   000125   2A           ADD       A,R2
   \   000126   FA           MOV       R2,A
   \   000127   E4           CLR       A
   \   000128   33           RLC       A
   \   000129   FB           MOV       R3,A
   \   00012A   12....       LCALL     `??osal_mem_alloc::?relay`; Banked call to: osal_mem_alloc
   \   00012D   8A..         MOV       ?V0,R2
   \   00012F   8B..         MOV       ?V1,R3
   \   000131   AC..         MOV       R4,?V0
   \   000133   AD..         MOV       R5,?V1
   \   000135   85..82       MOV       DPL,?V6
   \   000138   85..83       MOV       DPH,?V7
   \   00013B   EC           MOV       A,R4
   \   00013C   F0           MOVX      @DPTR,A
   \   00013D   A3           INC       DPTR
   \   00013E   ED           MOV       A,R5
   \   00013F   F0           MOVX      @DPTR,A
   \   000140   EC           MOV       A,R4
   \   000141   4D           ORL       A,R5
   \   000142   600F         JZ        ??ZDO_ParseEndDeviceBindReq_5
   2918            {
   2919              msg = ZDO_ConvertOTAClusters( bindReq->numOutClusters, msg, bindReq->outClusters );
   \   000144                ; Setup parameters for call to function ZDO_ConvertOTAClusters
   \   000144   AA..         MOV       R2,?V2
   \   000146   AB..         MOV       R3,?V3
   \   000148   8E82         MOV       DPL,R6
   \   00014A   8F83         MOV       DPH,R7
   \   00014C   E0           MOVX      A,@DPTR
   \   00014D   F9           MOV       R1,A
   \   00014E   12....       LCALL     `??ZDO_ConvertOTAClusters::?relay`; Banked call to: ZDO_ConvertOTAClusters
   \   000151   8006         SJMP      ??ZDO_ParseEndDeviceBindReq_6
   2920            }
   2921            else
   2922            {
   2923              bindReq->numOutClusters = 0;
   \                     ??ZDO_ParseEndDeviceBindReq_5:
   \   000153   8E82         MOV       DPL,R6
   \   000155   8F83         MOV       DPH,R7
   \   000157   E4           CLR       A
   \   000158   F0           MOVX      @DPTR,A
   2924            }
   2925          }
   \                     ??ZDO_ParseEndDeviceBindReq_6:
   \   000159   80..         SJMP      ??Subroutine206_0

   \                                 In  segment BANKED_CODE, align 1, keep-with-next
   \                     ?Subroutine133:
   \   000000   3B           ADDC      A,R3
   \   000001   F583         MOV       DPH,A
   \   000003   E0           MOVX      A,@DPTR
   \   000004   8E82         MOV       DPL,R6
   \   000006   8F83         MOV       DPH,R7
   \   000008   22           RET

   \                                 In  segment BANKED_CODE, align 1, keep-with-next
   \                     ?Subroutine164:
   \   000000   EA           MOV       A,R2
   \   000001                REQUIRE ??Subroutine208_0
   \   000001                ; // Fall through to label ??Subroutine208_0

   \                                 In  segment BANKED_CODE, align 1, keep-with-next
   \                     ?Subroutine28:
   \   000000   12....       LCALL     ?Subroutine142 & 0xFFFF
   \                     ??CrossCallReturnLabel_260:
   \   000003   22           RET

   \                                 In  segment BANKED_CODE, align 1, keep-with-next
   \                     ?Subroutine142:
   \   000000   F0           MOVX      @DPTR,A
   \   000001                ; Setup parameters for call to function osal_memcpy
   \   000001   85..82       MOV       DPL,?V2
   \   000004   85..83       MOV       DPH,?V3
   \   000007   A3           INC       DPTR
   \   000008   22           RET

   \                                 In  segment BANKED_CODE, align 1, keep-with-next
   \                     ??Subroutine210_0:
   \   000000   12....       LCALL     ?Subroutine151 & 0xFFFF
   \                     ??CrossCallReturnLabel_524:
   \   000003   22           RET

   \                                 In  segment BANKED_CODE, align 1, keep-with-next
   \                     ?Subroutine151:
   \   000000   E0           MOVX      A,@DPTR
   \   000001   FA           MOV       R2,A
   \   000002   A3           INC       DPTR
   \   000003   E0           MOVX      A,@DPTR
   \   000004   F9           MOV       R1,A
   \   000005   EA           MOV       A,R2
   \   000006   22           RET

   \                                 In  segment BANKED_CODE, align 1, keep-with-next
   \                     ?Subroutine47:
   \   000000   12....       LCALL     ?Subroutine140 & 0xFFFF
   \                     ??CrossCallReturnLabel_256:
   \   000003   A3           INC       DPTR
   \   000004   A3           INC       DPTR
   \   000005   22           RET

   \                                 In  segment BANKED_CODE, align 1, keep-with-next
   \                     ?Subroutine36:
   \   000000   F0           MOVX      @DPTR,A
   \   000001   A3           INC       DPTR
   \   000002   E9           MOV       A,R1
   \   000003   F0           MOVX      @DPTR,A
   \   000004   E5..         MOV       A,?V2
   \   000006   2402         ADD       A,#0x2
   \   000008   F5..         MOV       ?V2,A
   \   00000A   22           RET

   \                                 In  segment BANKED_CODE, align 1, keep-with-next
   \                     ?Subroutine35:
   \   000000   F0           MOVX      @DPTR,A
   \   000001   E5..         MOV       A,?V2
   \   000003   2409         ADD       A,#0x9
   \   000005   F5..         MOV       ?V2,A
   \   000007   22           RET

   \                                 In  segment BANKED_CODE, align 1, keep-with-next
   \                     ?Subroutine27:
   \   000000   12....       LCALL     ?Subroutine142 & 0xFFFF
   \                     ??CrossCallReturnLabel_261:
   \   000003   A3           INC       DPTR
   \   000004   E0           MOVX      A,@DPTR
   \   000005   F8           MOV       R0,A
   \   000006   EE           MOV       A,R6
   \   000007   22           RET

   \                                 In  segment BANKED_CODE, align 1, keep-with-next
   \                     ?Subroutine105:
   \   000000   12....       LCALL     ?Subroutine155 & 0xFFFF
   \                     ??CrossCallReturnLabel_271:
   \   000003   22           RET

   \                                 In  segment BANKED_CODE, align 1, keep-with-next
   \                     ?Subroutine155:
   \   000000   12....       LCALL     ?Subroutine164 & 0xFFFF
   \                     ??CrossCallReturnLabel_511:
   \   000003   3B           ADDC      A,R3
   \   000004   F583         MOV       DPH,A
   \   000006   E0           MOVX      A,@DPTR
   \   000007   22           RET
   2926          #endif
   2927          
   2928          /*********************************************************************
   2929           * @fn          ZDO_ParseBindUnbindReq
   2930           *
   2931           * @brief       This function parses the Bind_req or Unbind_req message.
   2932           *
   2933           * @param       inMsg  - incoming message (request)
   2934           * @param       pReq - place to put parsed information
   2935           *
   2936           * @return      none
   2937           */

   \                                 In  segment BANKED_CODE, align 1, keep-with-next
   2938          void ZDO_ParseBindUnbindReq( zdoIncomingMsg_t *inMsg, ZDO_BindUnbindReq_t *pReq )
   \                     ZDO_ParseBindUnbindReq:
   2939          {
   \   000000                REQUIRE ?V0
   \   000000                REQUIRE ?V1
   \   000000   74F6         MOV       A,#-0xa
   \   000002   12....       LCALL     ?BANKED_ENTER_XDATA
   \   000005                ; Saved register size: 10
   \   000005                ; Auto size: 0
   \   000005   EC           MOV       A,R4
   \   000006   FE           MOV       R6,A
   \   000007   ED           MOV       A,R5
   \   000008   FF           MOV       R7,A
   2940            uint8 *msg;
   2941          
   2942            msg = inMsg->asdu;
   \   000009   12....       LCALL     ?Subroutine112 & 0xFFFF
   \                     ??CrossCallReturnLabel_188:
   \   00000C   12....       LCALL     ?Subroutine84 & 0xFFFF
   2943            osal_cpyExtAddr( pReq->srcAddress, msg );
   \                     ??CrossCallReturnLabel_301:
   \   00000F                ; Setup parameters for call to function sAddrExtCpy
   \   00000F   AC..         MOV       R4,?V0
   \   000011   FD           MOV       R5,A
   \   000012   EE           MOV       A,R6
   \   000013   FA           MOV       R2,A
   \   000014   EF           MOV       A,R7
   \   000015   FB           MOV       R3,A
   \   000016   12....       LCALL     `??sAddrExtCpy::?relay`; Banked call to: sAddrExtCpy
   2944            msg += Z_EXTADDR_LEN;
   2945            pReq->srcEndpoint = *msg++;
   \   000019   85..82       MOV       DPL,?V0
   \   00001C   85..83       MOV       DPH,?V1
   \   00001F   12....       LCALL     ?Subroutine77 & 0xFFFF
   \                     ??CrossCallReturnLabel_124:
   \   000022   F0           MOVX      @DPTR,A
   \   000023   E5..         MOV       A,?V0
   \   000025   2409         ADD       A,#0x9
   \   000027   F5..         MOV       ?V0,A
   \   000029   5002         JNC       ??ZDO_ParseBindUnbindReq_0
   \   00002B   05..         INC       ?V1
   2946            pReq->clusterID = BUILD_UINT16( msg[0], msg[1] );
   \                     ??ZDO_ParseBindUnbindReq_0:
   \   00002D   F582         MOV       DPL,A
   \   00002F   85..83       MOV       DPH,?V1
   \   000032   12....       LCALL     ?Subroutine61 & 0xFFFF
   \                     ??CrossCallReturnLabel_101:
   \   000035   12....       LCALL     ??Subroutine179_0 & 0xFFFF
   2947            msg += 2;
   2948            pReq->dstAddress.addrMode = *msg++;
   \                     ??CrossCallReturnLabel_330:
   \   000038   85..82       MOV       DPL,?V0
   \   00003B   85..83       MOV       DPH,?V1
   \   00003E   A3           INC       DPTR
   \   00003F   A3           INC       DPTR
   \   000040   E0           MOVX      A,@DPTR
   \   000041   F8           MOV       R0,A
   \   000042   EE           MOV       A,R6
   \   000043   12....       LCALL     ?Subroutine109 & 0xFFFF
   \                     ??CrossCallReturnLabel_180:
   \   000046   E5..         MOV       A,?V0
   \   000048   2403         ADD       A,#0x3
   \   00004A   F5..         MOV       ?V0,A
   \   00004C   5002         JNC       ??ZDO_ParseBindUnbindReq_1
   \   00004E   05..         INC       ?V1
   2949            if ( pReq->dstAddress.addrMode == Addr64Bit )
   \                     ??ZDO_ParseBindUnbindReq_1:
   \   000050   12....       LCALL     ?Subroutine126 & 0xFFFF
   \                     ??CrossCallReturnLabel_225:
   \   000053   701F         JNZ       ??ZDO_ParseBindUnbindReq_2
   2950            {
   2951              osal_cpyExtAddr( pReq->dstAddress.addr.extAddr, msg );
   \   000055                ; Setup parameters for call to function sAddrExtCpy
   \   000055   AC..         MOV       R4,?V0
   \   000057   AD..         MOV       R5,?V1
   \   000059   12....       LCALL     `??sAddrExtCpy::?relay`; Banked call to: sAddrExtCpy
   2952              msg += Z_EXTADDR_LEN;
   2953              pReq->dstEndpoint = *msg;
   \   00005C   85..82       MOV       DPL,?V0
   \   00005F   85..83       MOV       DPH,?V1
   \   000062   A3           INC       DPTR
   \   000063   A3           INC       DPTR
   \   000064   A3           INC       DPTR
   \   000065   A3           INC       DPTR
   \   000066   A3           INC       DPTR
   \   000067   A3           INC       DPTR
   \   000068   A3           INC       DPTR
   \   000069   A3           INC       DPTR
   \   00006A   E0           MOVX      A,@DPTR
   \   00006B   C0E0         PUSH      A
   \   00006D   12....       LCALL     ?Subroutine130 & 0xFFFF
   2954            }
   \                     ??CrossCallReturnLabel_232:
   \   000070   D0E0         POP       A
   \   000072   800C         SJMP      ??ZDO_ParseBindUnbindReq_3
   2955            else
   2956            {
   2957              // copy group address
   2958              pReq->dstAddress.addr.shortAddr = BUILD_UINT16( msg[0], msg[1] );
   \                     ??ZDO_ParseBindUnbindReq_2:
   \   000074   85..82       MOV       DPL,?V0
   \   000077   85..83       MOV       DPH,?V1
   \   00007A   12....       LCALL     ?Subroutine86 & 0xFFFF
   2959            }
   \                     ??CrossCallReturnLabel_138:
   \   00007D   F0           MOVX      @DPTR,A
   \   00007E   A3           INC       DPTR
   \   00007F   E9           MOV       A,R1
   \                     ??ZDO_ParseBindUnbindReq_3:
   \   000080   F0           MOVX      @DPTR,A
   2960          }
   \   000081   02....       LJMP      ??Subroutine173_0 & 0xFFFF

   \                                 In  segment BANKED_CODE, align 1, keep-with-next
   \                     ?Subroutine112:
   \   000000   12....       LCALL     ?Subroutine156 & 0xFFFF
   \                     ??CrossCallReturnLabel_275:
   \   000003   22           RET

   \                                 In  segment BANKED_CODE, align 1, keep-with-next
   \                     ?Subroutine156:
   \   000000   12....       LCALL     ?Subroutine164 & 0xFFFF
   \                     ??CrossCallReturnLabel_512:
   \   000003   3B           ADDC      A,R3
   \   000004   22           RET

   \                                 In  segment BANKED_CODE, align 1, keep-with-next
   \                     ?Subroutine130:
   \   000000   EE           MOV       A,R6
   \   000001   2414         ADD       A,#0x14
   \   000003   F582         MOV       DPL,A
   \   000005   E4           CLR       A
   \   000006   3F           ADDC      A,R7
   \   000007   F583         MOV       DPH,A
   \   000009   22           RET

   \                                 In  segment BANKED_CODE, align 1, keep-with-next
   \                     ?Subroutine126:
   \   000000   EE           MOV       A,R6
   \   000001   240B         ADD       A,#0xb
   \   000003   FA           MOV       R2,A
   \   000004   E4           CLR       A
   \   000005   3F           ADDC      A,R7
   \   000006   FB           MOV       R3,A
   \   000007   7403         MOV       A,#0x3
   \   000009   68           XRL       A,R0
   \   00000A   22           RET

   \                                 In  segment BANKED_CODE, align 1, keep-with-next
   \                     ?Subroutine109:
   \   000000   12....       LCALL     ?Subroutine163 & 0xFFFF
   \                     ??CrossCallReturnLabel_280:
   \   000003   E8           MOV       A,R0
   \   000004   F0           MOVX      @DPTR,A
   \   000005   22           RET

   \                                 In  segment BANKED_CODE, align 1, keep-with-next
   \                     ?Subroutine86:
   \   000000   E0           MOVX      A,@DPTR
   \   000001   FC           MOV       R4,A
   \   000002   A3           INC       DPTR
   \   000003   E0           MOVX      A,@DPTR
   \   000004   F9           MOV       R1,A
   \   000005   EC           MOV       A,R4
   \   000006   8A82         MOV       DPL,R2
   \   000008   8B83         MOV       DPH,R3
   \   00000A   22           RET

   \                                 In  segment BANKED_CODE, align 1, keep-with-next
   \                     ?Subroutine77:
   \   000000   A3           INC       DPTR
   \   000001   A3           INC       DPTR
   \   000002   A3           INC       DPTR
   \   000003   A3           INC       DPTR
   \   000004   A3           INC       DPTR
   \   000005   A3           INC       DPTR
   \   000006   A3           INC       DPTR
   \   000007   A3           INC       DPTR
   \   000008   E0           MOVX      A,@DPTR
   \   000009   8E82         MOV       DPL,R6
   \   00000B   8F83         MOV       DPH,R7
   \   00000D   A3           INC       DPTR
   \   00000E   A3           INC       DPTR
   \   00000F   A3           INC       DPTR
   \   000010   A3           INC       DPTR
   \   000011   A3           INC       DPTR
   \   000012   A3           INC       DPTR
   \   000013   A3           INC       DPTR
   \   000014   A3           INC       DPTR
   \   000015   22           RET

   \                                 In  segment BANKED_CODE, align 1, keep-with-next
   \                     ?Subroutine61:
   \   000000   12....       LCALL     ?Subroutine151 & 0xFFFF
   \                     ??CrossCallReturnLabel_522:
   \   000003   8E82         MOV       DPL,R6
   \   000005   8F83         MOV       DPH,R7
   \   000007   A3           INC       DPTR
   \   000008   A3           INC       DPTR
   \   000009   A3           INC       DPTR
   \   00000A   A3           INC       DPTR
   \   00000B   A3           INC       DPTR
   \   00000C   A3           INC       DPTR
   \   00000D   A3           INC       DPTR
   \   00000E   A3           INC       DPTR
   \   00000F   A3           INC       DPTR
   \   000010   22           RET
   2961          
   2962          /*********************************************************************
   2963           * @fn      ZDO_ParseAddrRsp
   2964           *
   2965           * @brief   Turns the inMsg (incoming message) into the out parsed
   2966           *          structure.
   2967           *
   2968           * @param   inMsg - incoming message
   2969           *
   2970           * @return  pointer to parsed structures.  This structure was
   2971           *          allocated using osal_mem_alloc, so it must be freed
   2972           *          by the calling function [osal_mem_free()].
   2973           */

   \                                 In  segment BANKED_CODE, align 1, keep-with-next
   \                     ?Subroutine124:
   \   000000   E5..         MOV       A,?V0
   \   000002   240C         ADD       A,#0xc
   \   000004                REQUIRE ??Subroutine182_0
   \   000004                ; // Fall through to label ??Subroutine182_0

   \                                 In  segment BANKED_CODE, align 1, keep-with-next
   2974          ZDO_NwkIEEEAddrResp_t *ZDO_ParseAddrRsp( zdoIncomingMsg_t *inMsg )
   \                     ZDO_ParseAddrRsp:
   2975          {
   \   000000                REQUIRE ?V0
   \   000000                REQUIRE ?V1
   \   000000                REQUIRE ?V2
   \   000000                REQUIRE ?V3
   \   000000                REQUIRE ?V4
   \   000000                REQUIRE ?V5
   \   000000   74F2         MOV       A,#-0xe
   \   000002   12....       LCALL     ?BANKED_ENTER_XDATA
   \   000005                ; Saved register size: 14
   \   000005                ; Auto size: 0
   2976            ZDO_NwkIEEEAddrResp_t *rsp;
   2977            uint8 *msg;
   2978            byte cnt = 0;
   \   000005   75..00       MOV       ?V2,#0x0
   2979          
   2980            // Calculate the number of items in the list
   2981            if ( inMsg->asduLen > (1 + Z_EXTADDR_LEN + 2) )
   \   000008   EA           MOV       A,R2
   \   000009   2413         ADD       A,#0x13
   \   00000B   12....       LCALL     ?Subroutine131 & 0xFFFF
   \                     ??CrossCallReturnLabel_234:
   \   00000E   EA           MOV       A,R2
   \   00000F   2410         ADD       A,#0x10
   \   000011   F582         MOV       DPL,A
   \   000013   E4           CLR       A
   \   000014   3B           ADDC      A,R3
   \   000015   F583         MOV       DPH,A
   \   000017   E0           MOVX      A,@DPTR
   \   000018   C3           CLR       C
   \   000019   940C         SUBB      A,#0xc
   \   00001B   4009         JC        ??ZDO_ParseAddrRsp_0
   2982            {
   2983              cnt = inMsg->asdu[1 + Z_EXTADDR_LEN + 2];
   \   00001D   8E82         MOV       DPL,R6
   \   00001F   8F83         MOV       DPH,R7
   \   000021   12....       LCALL     ?Subroutine70 & 0xFFFF
   2984            }
   \                     ??CrossCallReturnLabel_119:
   \   000024   F5..         MOV       ?V2,A
   2985            else
   2986            {
   2987              cnt = 0;
   2988            }
   2989          
   2990            // Make buffer
   2991            rsp = (ZDO_NwkIEEEAddrResp_t *)osal_mem_alloc( sizeof(ZDO_NwkIEEEAddrResp_t) + (cnt * sizeof ( uint16 )) );
   \                     ??ZDO_ParseAddrRsp_0:
   \   000026                ; Setup parameters for call to function osal_mem_alloc
   \   000026   A8..         MOV       R0,?V2
   \   000028   E8           MOV       A,R0
   \   000029   28           ADD       A,R0
   \   00002A   F8           MOV       R0,A
   \   00002B   E4           CLR       A
   \   00002C   33           RLC       A
   \   00002D   F9           MOV       R1,A
   \   00002E   E8           MOV       A,R0
   \   00002F   240D         ADD       A,#0xd
   \   000031   FA           MOV       R2,A
   \   000032   E4           CLR       A
   \   000033   39           ADDC      A,R1
   \   000034   FB           MOV       R3,A
   \   000035   12....       LCALL     `??osal_mem_alloc::?relay`; Banked call to: osal_mem_alloc
   \   000038   8A..         MOV       ?V0,R2
   \   00003A   8B..         MOV       ?V1,R3
   2992          
   2993            if ( rsp )
   \   00003C   EA           MOV       A,R2
   \   00003D   45..         ORL       A,?V1
   \   00003F   7003         JNZ       $+5
   \   000041   02....       LJMP      ??ZDO_ParseAddrRsp_1 & 0xFFFF
   2994            {
   2995              msg = inMsg->asdu;
   \   000044   8E82         MOV       DPL,R6
   \   000046   8F83         MOV       DPH,R7
   \   000048   12....       LCALL     ??Subroutine212_0 & 0xFFFF
   2996          
   2997              rsp->status = *msg++;
   \                     ??CrossCallReturnLabel_529:
   \   00004B   F8           MOV       R0,A
   \   00004C   8A82         MOV       DPL,R2
   \   00004E   8B83         MOV       DPH,R3
   \   000050   12....       LCALL     ?Subroutine38 & 0xFFFF
   2998              if ( rsp->status == ZDO_SUCCESS )
   \                     ??CrossCallReturnLabel_53:
   \   000053   6003         JZ        $+5
   \   000055   02....       LJMP      ??ZDO_ParseAddrRsp_1 & 0xFFFF
   2999              {
   3000                osal_cpyExtAddr( rsp->extAddr, msg );
   \   000058                ; Setup parameters for call to function sAddrExtCpy
   \   000058   EE           MOV       A,R6
   \   000059   FC           MOV       R4,A
   \   00005A   EF           MOV       A,R7
   \   00005B   FD           MOV       R5,A
   \   00005C   EA           MOV       A,R2
   \   00005D   2403         ADD       A,#0x3
   \   00005F   FA           MOV       R2,A
   \   000060   E4           CLR       A
   \   000061   35..         ADDC      A,?V1
   \   000063   FB           MOV       R3,A
   \   000064   12....       LCALL     `??sAddrExtCpy::?relay`; Banked call to: sAddrExtCpy
   3001                msg += Z_EXTADDR_LEN;
   \   000067   EE           MOV       A,R6
   \   000068   2408         ADD       A,#0x8
   \   00006A   FE           MOV       R6,A
   \   00006B   5001         JNC       ??ZDO_ParseAddrRsp_2
   \   00006D   0F           INC       R7
   3002                rsp->nwkAddr = BUILD_UINT16( msg[0], msg[1] );
   \                     ??ZDO_ParseAddrRsp_2:
   \   00006E   12....       LCALL     ?Subroutine75 & 0xFFFF
   \                     ??CrossCallReturnLabel_519:
   \   000071   85..82       MOV       DPL,?V0
   \   000074   85..83       MOV       DPH,?V1
   \   000077   A3           INC       DPTR
   \   000078   12....       LCALL     ??Subroutine179_0 & 0xFFFF
   3003          
   3004                msg += 2;
   3005                rsp->numAssocDevs = 0;
   \                     ??CrossCallReturnLabel_331:
   \   00007B   E5..         MOV       A,?V0
   \   00007D   240B         ADD       A,#0xb
   \   00007F   F8           MOV       R0,A
   \   000080   E4           CLR       A
   \   000081   35..         ADDC      A,?V1
   \   000083   F9           MOV       R1,A
   \   000084   E8           MOV       A,R0
   \   000085   FA           MOV       R2,A
   \   000086   E9           MOV       A,R1
   \   000087   FB           MOV       R3,A
   \   000088   8A82         MOV       DPL,R2
   \   00008A   8B83         MOV       DPH,R3
   \   00008C   E4           CLR       A
   \   00008D   F0           MOVX      @DPTR,A
   3006          
   3007                // StartIndex field is only present if NumAssocDev field is non-zero.
   3008                if ( cnt > 0 )
   \   00008E   E5..         MOV       A,?V2
   \   000090   604B         JZ        ??ZDO_ParseAddrRsp_1
   3009                {
   3010                  uint16 *pList = &(rsp->devList[0]);
   \   000092   E5..         MOV       A,?V0
   \   000094   240D         ADD       A,#0xd
   \   000096   F8           MOV       R0,A
   \   000097   E4           CLR       A
   \   000098   35..         ADDC      A,?V1
   \   00009A   F9           MOV       R1,A
   3011                  byte n = cnt;
   3012          
   3013                  rsp->numAssocDevs = *msg++;
   \   00009B   8E82         MOV       DPL,R6
   \   00009D   8F83         MOV       DPH,R7
   \   00009F   A3           INC       DPTR
   \   0000A0   12....       LCALL     ?Subroutine69 & 0xFFFF
   \                     ??CrossCallReturnLabel_556:
   \   0000A3   12....       LCALL     ?Subroutine14 & 0xFFFF
   3014                  rsp->startIndex = *msg++;
   \                     ??CrossCallReturnLabel_10:
   \   0000A6   C0E0         PUSH      A
   \   0000A8   12....       LCALL     ?Subroutine124 & 0xFFFF
   \                     ??CrossCallReturnLabel_371:
   \   0000AB   D0E0         POP       A
   \   0000AD   F0           MOVX      @DPTR,A
   \   0000AE   EE           MOV       A,R6
   \   0000AF   2404         ADD       A,#0x4
   \   0000B1   FE           MOV       R6,A
   \   0000B2   5001         JNC       ??ZDO_ParseAddrRsp_3
   \   0000B4   0F           INC       R7
   \                     ??ZDO_ParseAddrRsp_3:
   \   0000B5   85....       MOV       ?V3,?V2
   3015          
   3016                  while ( n != 0 )
   3017                  {
   3018                    *pList++ = BUILD_UINT16( msg[0], msg[1] );
   \                     ??ZDO_ParseAddrRsp_4:
   \   0000B8   8E82         MOV       DPL,R6
   \   0000BA   8F83         MOV       DPH,R7
   \   0000BC   E0           MOVX      A,@DPTR
   \   0000BD   FC           MOV       R4,A
   \   0000BE   A3           INC       DPTR
   \   0000BF   E0           MOVX      A,@DPTR
   \   0000C0   FB           MOV       R3,A
   \   0000C1   EC           MOV       A,R4
   \   0000C2   8882         MOV       DPL,R0
   \   0000C4   8983         MOV       DPH,R1
   \   0000C6   12....       LCALL     ??Subroutine181_0 & 0xFFFF
   \                     ??CrossCallReturnLabel_349:
   \   0000C9   E8           MOV       A,R0
   \   0000CA   2402         ADD       A,#0x2
   \   0000CC   F8           MOV       R0,A
   \   0000CD   5001         JNC       ??ZDO_ParseAddrRsp_5
   \   0000CF   09           INC       R1
   3019                    msg += sizeof( uint16 );
   \                     ??ZDO_ParseAddrRsp_5:
   \   0000D0   EE           MOV       A,R6
   \   0000D1   2402         ADD       A,#0x2
   \   0000D3   FE           MOV       R6,A
   \   0000D4   5001         JNC       ??ZDO_ParseAddrRsp_6
   \   0000D6   0F           INC       R7
   3020                    n--;
   3021                  }
   \                     ??ZDO_ParseAddrRsp_6:
   \   0000D7   15..         DEC       ?V3
   \   0000D9   E5..         MOV       A,?V3
   \   0000DB   70DB         JNZ       ??ZDO_ParseAddrRsp_4
   3022                }
   3023              }
   3024            }
   3025          
   3026            return ( rsp );
   \                     ??ZDO_ParseAddrRsp_1:
   \   0000DD   AA..         MOV       R2,?V0
   \   0000DF   AB..         MOV       R3,?V1
   \   0000E1                REQUIRE ?Subroutine5
   \   0000E1                ; // Fall through to label ?Subroutine5
   3027          }

   \                                 In  segment BANKED_CODE, align 1, keep-with-next
   \                     ?Subroutine131:
   \   000000   F8           MOV       R0,A
   \   000001   E4           CLR       A
   \   000002   3B           ADDC      A,R3
   \   000003   F9           MOV       R1,A
   \   000004   E8           MOV       A,R0
   \   000005   FE           MOV       R6,A
   \   000006   E9           MOV       A,R1
   \   000007   FF           MOV       R7,A
   \   000008   22           RET

   \                                 In  segment BANKED_CODE, align 1, keep-with-next
   \                     ?Subroutine75:
   \   000000   8E82         MOV       DPL,R6
   \   000002   8F83         MOV       DPH,R7
   \   000004                REQUIRE ??Subroutine210_0
   \   000004                ; // Fall through to label ??Subroutine210_0

   \                                 In  segment BANKED_CODE, align 1, keep-with-next
   \                     ?Subroutine14:
   \   000000   12....       LCALL     ?Subroutine138 & 0xFFFF
   \                     ??CrossCallReturnLabel_250:
   \   000003   E0           MOVX      A,@DPTR
   \   000004   22           RET

   \                                 In  segment BANKED_CODE, align 1, keep-with-next
   \                     ?Subroutine38:
   \   000000   12....       LCALL     ?Subroutine166 & 0xFFFF
   \                     ??CrossCallReturnLabel_539:
   \   000003   AE82         MOV       R6,DPL
   \   000005   AF83         MOV       R7,DPH
   \   000007   22           RET
   3028          
   3029          /*********************************************************************
   3030           * @fn          ZDO_ParseNodeDescRsp
   3031           *
   3032           * @brief       This function parses the Node_Desc_rsp message.
   3033           *
   3034           * @param       inMsg - incoming message
   3035           * @param       pNDRsp - place to parse the message into
   3036           *
   3037           * @return      none
   3038           */

   \                                 In  segment BANKED_CODE, align 1, keep-with-next
   3039          void ZDO_ParseNodeDescRsp( zdoIncomingMsg_t *inMsg, ZDO_NodeDescRsp_t *pNDRsp )
   \                     ZDO_ParseNodeDescRsp:
   3040          {
   \   000000                REQUIRE ?V0
   \   000000                REQUIRE ?V1
   \   000000   74F6         MOV       A,#-0xa
   \   000002   12....       LCALL     ?BANKED_ENTER_XDATA
   \   000005                ; Saved register size: 10
   \   000005                ; Auto size: 0
   3041            uint8 *msg;
   3042          
   3043            msg = inMsg->asdu;
   \   000005   12....       LCALL     ?Subroutine9 & 0xFFFF
   3044          
   3045            pNDRsp->status = *msg++;
   3046            pNDRsp->nwkAddr = BUILD_UINT16( msg[0], msg[1] );
   3047          
   3048            if ( pNDRsp->status == ZDP_SUCCESS )
   \                     ??CrossCallReturnLabel_0:
   \   000008   6003         JZ        $+5
   \   00000A   02....       LJMP      ??ZDO_ParseNodeDescRsp_0 & 0xFFFF
   3049            {
   3050              msg += 2;
   3051              pNDRsp->nodeDesc.LogicalType = *msg & 0x07;
   \   00000D   E8           MOV       A,R0
   \   00000E   12....       LCALL     ??Subroutine184_0 & 0xFFFF
   \                     ??CrossCallReturnLabel_377:
   \   000011   39           ADDC      A,R1
   \   000012   FB           MOV       R3,A
   \   000013   EC           MOV       A,R4
   \   000014   2403         ADD       A,#0x3
   \   000016   FE           MOV       R6,A
   \   000017   E4           CLR       A
   \   000018   3D           ADDC      A,R5
   \   000019   FF           MOV       R7,A
   \   00001A   8A82         MOV       DPL,R2
   \   00001C   8B83         MOV       DPH,R3
   \   00001E   E0           MOVX      A,@DPTR
   \   00001F   5407         ANL       A,#0x7
   \   000021   F5..         MOV       ?V0,A
   \   000023   8E82         MOV       DPL,R6
   \   000025   8F83         MOV       DPH,R7
   \   000027   E0           MOVX      A,@DPTR
   \   000028   54F8         ANL       A,#0xf8
   \   00002A   45..         ORL       A,?V0
   \   00002C   F5..         MOV       ?V1,A
   \   00002E   12....       LCALL     ?Subroutine42 & 0xFFFF
   3052          
   3053              pNDRsp->nodeDesc.ComplexDescAvail = ( *msg & 0x08 ) >> 3;
   \                     ??CrossCallReturnLabel_62:
   \   000031   A2E3         MOV       C,0xE0 /* A   */.3
   \   000033   E4           CLR       A
   \   000034   33           RLC       A
   \   000035   F5..         MOV       ?V0,A
   \   000037   A2E0         MOV       C,0xE0 /* A   */.0
   \   000039   E4           CLR       A
   \   00003A   33           RLC       A
   \   00003B   33           RLC       A
   \   00003C   33           RLC       A
   \   00003D   33           RLC       A
   \   00003E   F5..         MOV       ?V0,A
   \   000040   74F7         MOV       A,#-0x9
   \   000042   55..         ANL       A,?V1
   \   000044   45..         ORL       A,?V0
   \   000046   8E82         MOV       DPL,R6
   \   000048   8F83         MOV       DPH,R7
   \   00004A   12....       LCALL     ?Subroutine42 & 0xFFFF
   3054              pNDRsp->nodeDesc.UserDescAvail = ( *msg & 0x10 ) >> 4;
   \                     ??CrossCallReturnLabel_63:
   \   00004D   A2E4         MOV       C,0xE0 /* A   */.4
   \   00004F   E4           CLR       A
   \   000050   33           RLC       A
   \   000051   FA           MOV       R2,A
   \   000052   A2E0         MOV       C,0xE0 /* A   */.0
   \   000054   E4           CLR       A
   \   000055   33           RLC       A
   \   000056   C4           SWAP      A
   \   000057   FA           MOV       R2,A
   \   000058   8E82         MOV       DPL,R6
   \   00005A   8F83         MOV       DPH,R7
   \   00005C   E0           MOVX      A,@DPTR
   \   00005D   54EF         ANL       A,#0xef
   \   00005F   4A           ORL       A,R2
   \   000060   F0           MOVX      @DPTR,A
   3055          
   3056              msg++;  // Reserved bits.
   3057              pNDRsp->nodeDesc.FrequencyBand = (*msg >> 3) & 0x1f;
   \   000061   E8           MOV       A,R0
   \   000062   2403         ADD       A,#0x3
   \   000064   FA           MOV       R2,A
   \   000065   E4           CLR       A
   \   000066   39           ADDC      A,R1
   \   000067   FB           MOV       R3,A
   \   000068   EC           MOV       A,R4
   \   000069   2404         ADD       A,#0x4
   \   00006B   0E           INC       R6
   \   00006C   E4           CLR       A
   \   00006D   3D           ADDC      A,R5
   \   00006E   FF           MOV       R7,A
   \   00006F   8A82         MOV       DPL,R2
   \   000071   8B83         MOV       DPH,R3
   \   000073   E0           MOVX      A,@DPTR
   \   000074   54F8         ANL       A,#0xf8
   \   000076   F5..         MOV       ?V0,A
   \   000078   8E82         MOV       DPL,R6
   \   00007A   8F83         MOV       DPH,R7
   \   00007C   E0           MOVX      A,@DPTR
   \   00007D   5407         ANL       A,#0x7
   \   00007F   45..         ORL       A,?V0
   \   000081   F5..         MOV       ?V0,A
   \   000083   12....       LCALL     ?Subroutine42 & 0xFFFF
   3058              pNDRsp->nodeDesc.APSFlags = *msg++ & 0x07;
   \                     ??CrossCallReturnLabel_64:
   \   000086   5407         ANL       A,#0x7
   \   000088   FA           MOV       R2,A
   \   000089   74F8         MOV       A,#-0x8
   \   00008B   55..         ANL       A,?V0
   \   00008D   4A           ORL       A,R2
   \   00008E   8E82         MOV       DPL,R6
   \   000090   8F83         MOV       DPH,R7
   \   000092   12....       LCALL     ?Subroutine39 & 0xFFFF
   3059              pNDRsp->nodeDesc.CapabilityFlags = *msg++;
   \                     ??CrossCallReturnLabel_55:
   \   000095   8C82         MOV       DPL,R4
   \   000097   8D83         MOV       DPH,R5
   \   000099   A3           INC       DPTR
   \   00009A   A3           INC       DPTR
   \   00009B   A3           INC       DPTR
   \   00009C   A3           INC       DPTR
   \   00009D   A3           INC       DPTR
   \   00009E   12....       LCALL     ?Subroutine40 & 0xFFFF
   3060              pNDRsp->nodeDesc.ManufacturerCode[0] = *msg++;
   \                     ??CrossCallReturnLabel_58:
   \   0000A1   A3           INC       DPTR
   \   0000A2   12....       LCALL     ?Subroutine96 & 0xFFFF
   \                     ??CrossCallReturnLabel_560:
   \   0000A5   12....       LCALL     ?Subroutine33 & 0xFFFF
   3061              pNDRsp->nodeDesc.ManufacturerCode[1] = *msg++;
   \                     ??CrossCallReturnLabel_43:
   \   0000A8   12....       LCALL     ?Subroutine95 & 0xFFFF
   \                     ??CrossCallReturnLabel_152:
   \   0000AB   12....       LCALL     ?Subroutine33 & 0xFFFF
   3062              pNDRsp->nodeDesc.MaxBufferSize = *msg++;
   \                     ??CrossCallReturnLabel_44:
   \   0000AE   12....       LCALL     ?Subroutine96 & 0xFFFF
   \                     ??CrossCallReturnLabel_561:
   \   0000B1   12....       LCALL     ?Subroutine21 & 0xFFFF
   3063              pNDRsp->nodeDesc.MaxInTransferSize[0] = *msg++;
   \                     ??CrossCallReturnLabel_26:
   \   0000B4   12....       LCALL     ?Subroutine95 & 0xFFFF
   \                     ??CrossCallReturnLabel_153:
   \   0000B7   12....       LCALL     ?Subroutine21 & 0xFFFF
   3064              pNDRsp->nodeDesc.MaxInTransferSize[1] = *msg++;
   \                     ??CrossCallReturnLabel_27:
   \   0000BA   A3           INC       DPTR
   \   0000BB   12....       LCALL     ?Subroutine95 & 0xFFFF
   \                     ??CrossCallReturnLabel_154:
   \   0000BE   A3           INC       DPTR
   \   0000BF   A3           INC       DPTR
   \   0000C0   A3           INC       DPTR
   \   0000C1   A3           INC       DPTR
   \   0000C2   A3           INC       DPTR
   \   0000C3   A3           INC       DPTR
   \   0000C4   A3           INC       DPTR
   \   0000C5   A3           INC       DPTR
   \   0000C6   A3           INC       DPTR
   \   0000C7   F0           MOVX      @DPTR,A
   \   0000C8   E8           MOV       A,R0
   \   0000C9   240A         ADD       A,#0xa
   \   0000CB   F8           MOV       R0,A
   \   0000CC   5001         JNC       ??ZDO_ParseNodeDescRsp_1
   \   0000CE   09           INC       R1
   3065              pNDRsp->nodeDesc.ServerMask = BUILD_UINT16( msg[0], msg[1] );
   \                     ??ZDO_ParseNodeDescRsp_1:
   \   0000CF   8882         MOV       DPL,R0
   \   0000D1   8983         MOV       DPH,R1
   \   0000D3   E0           MOVX      A,@DPTR
   \   0000D4   FE           MOV       R6,A
   \   0000D5   A3           INC       DPTR
   \   0000D6   E0           MOVX      A,@DPTR
   \   0000D7   FB           MOV       R3,A
   \   0000D8   EE           MOV       A,R6
   \   0000D9   FA           MOV       R2,A
   \   0000DA   EC           MOV       A,R4
   \   0000DB   240B         ADD       A,#0xb
   \   0000DD   F582         MOV       DPL,A
   \   0000DF   E4           CLR       A
   \   0000E0   3D           ADDC      A,R5
   \   0000E1   F583         MOV       DPH,A
   \   0000E3   12....       LCALL     ??Subroutine180_0 & 0xFFFF
   3066              msg += 2;
   3067              pNDRsp->nodeDesc.MaxOutTransferSize[0] = *msg++;
   \                     ??CrossCallReturnLabel_356:
   \   0000E6   8882         MOV       DPL,R0
   \   0000E8   8983         MOV       DPH,R1
   \   0000EA   A3           INC       DPTR
   \   0000EB   A3           INC       DPTR
   \   0000EC   E0           MOVX      A,@DPTR
   \   0000ED   C0E0         PUSH      A
   \   0000EF   EC           MOV       A,R4
   \   0000F0   240D         ADD       A,#0xd
   \   0000F2   F582         MOV       DPL,A
   \   0000F4   E4           CLR       A
   \   0000F5   3D           ADDC      A,R5
   \   0000F6   F583         MOV       DPH,A
   \   0000F8   D0E0         POP       A
   \   0000FA   12....       LCALL     ?Subroutine40 & 0xFFFF
   3068              pNDRsp->nodeDesc.MaxOutTransferSize[1] = *msg++;
   3069              pNDRsp->nodeDesc.DescriptorCapability = *msg;
   3070            }
   \                     ??CrossCallReturnLabel_59:
   \   0000FD   E0           MOVX      A,@DPTR
   \   0000FE   C0E0         PUSH      A
   \   000100   EC           MOV       A,R4
   \   000101   12....       LCALL     ?Subroutine116 & 0xFFFF
   \                     ??CrossCallReturnLabel_198:
   \   000104   3D           ADDC      A,R5
   \   000105   F583         MOV       DPH,A
   \   000107   D0E0         POP       A
   \   000109   12....       LCALL     ?Subroutine39 & 0xFFFF
   \                     ??CrossCallReturnLabel_56:
   \   00010C   C0E0         PUSH      A
   \   00010E   EC           MOV       A,R4
   \   00010F   12....       LCALL     ?Subroutine120 & 0xFFFF
   \                     ??CrossCallReturnLabel_209:
   \   000112   3D           ADDC      A,R5
   \   000113   F583         MOV       DPH,A
   \   000115   D0E0         POP       A
   \   000117   F0           MOVX      @DPTR,A
   3071          }
   \                     ??ZDO_ParseNodeDescRsp_0:
   \   000118   02....       LJMP      ??Subroutine173_0 & 0xFFFF

   \                                 In  segment BANKED_CODE, align 1, keep-with-next
   \                     ?Subroutine95:
   \   000000   E0           MOVX      A,@DPTR
   \   000001   8C82         MOV       DPL,R4
   \   000003   8D83         MOV       DPH,R5
   \   000005   A3           INC       DPTR
   \   000006   22           RET

   \                                 In  segment BANKED_CODE, align 1, keep-with-next
   \                     ?Subroutine42:
   \   000000   12....       LCALL     ?Subroutine140 & 0xFFFF
   \                     ??CrossCallReturnLabel_254:
   \   000003   E0           MOVX      A,@DPTR
   \   000004   22           RET

   \                                 In  segment BANKED_CODE, align 1, keep-with-next
   \                     ?Subroutine39:
   \   000000   12....       LCALL     ?Subroutine141 & 0xFFFF
   \                     ??CrossCallReturnLabel_259:
   \   000003   A3           INC       DPTR
   \   000004   E0           MOVX      A,@DPTR
   \   000005   22           RET

   \                                 In  segment BANKED_CODE, align 1, keep-with-next
   \                     ?Subroutine33:
   \   000000   12....       LCALL     ?Subroutine136 & 0xFFFF
   \                     ??CrossCallReturnLabel_244:
   \   000003   22           RET

   \                                 In  segment BANKED_CODE, align 1, keep-with-next
   \                     ?Subroutine136:
   \   000000   A3           INC       DPTR
   \   000001   A3           INC       DPTR
   \   000002   A3           INC       DPTR
   \   000003   A3           INC       DPTR
   \   000004   A3           INC       DPTR
   \   000005   A3           INC       DPTR
   \   000006   12....       LCALL     ?Subroutine159 & 0xFFFF
   \                     ??CrossCallReturnLabel_277:
   \   000009   A3           INC       DPTR
   \   00000A   A3           INC       DPTR
   \   00000B   A3           INC       DPTR
   \   00000C   22           RET

   \                                 In  segment BANKED_CODE, align 1, keep-with-next
   \                     ?Subroutine21:
   \   000000   A3           INC       DPTR
   \   000001   A3           INC       DPTR
   \   000002   12....       LCALL     ?Subroutine136 & 0xFFFF
   \                     ??CrossCallReturnLabel_245:
   \   000005   A3           INC       DPTR
   \   000006   A3           INC       DPTR
   \   000007   22           RET

   \                                 In  segment BANKED_CODE, align 1, keep-with-next
   \                     ?Subroutine9:
   \   000000   12....       LCALL     ?Subroutine156 & 0xFFFF
   \                     ??CrossCallReturnLabel_272:
   \   000003   12....       LCALL     ?Subroutine146 & 0xFFFF
   \                     ??CrossCallReturnLabel_397:
   \   000006   E0           MOVX      A,@DPTR
   \   000007   8C82         MOV       DPL,R4
   \   000009   8D83         MOV       DPH,R5
   \   00000B   F0           MOVX      @DPTR,A
   \   00000C   8882         MOV       DPL,R0
   \   00000E   8983         MOV       DPH,R1
   \   000010   A3           INC       DPTR
   \   000011   A882         MOV       R0,DPL
   \   000013   A983         MOV       R1,DPH
   \   000015   E0           MOVX      A,@DPTR
   \   000016   FE           MOV       R6,A
   \   000017   A3           INC       DPTR
   \   000018   E0           MOVX      A,@DPTR
   \   000019   FB           MOV       R3,A
   \   00001A   EE           MOV       A,R6
   \   00001B   8C82         MOV       DPL,R4
   \   00001D   8D83         MOV       DPH,R5
   \   00001F   A3           INC       DPTR
   \   000020   F0           MOVX      @DPTR,A
   \   000021   A3           INC       DPTR
   \   000022   EB           MOV       A,R3
   \   000023   F0           MOVX      @DPTR,A
   \   000024   8C82         MOV       DPL,R4
   \   000026   8D83         MOV       DPH,R5
   \   000028   E0           MOVX      A,@DPTR
   \   000029   22           RET

   \                                 In  segment BANKED_CODE, align 1, keep-with-next
   \                     ?Subroutine96:
   \   000000   A3           INC       DPTR
   \   000001                REQUIRE ??Subroutine217_0
   \   000001                ; // Fall through to label ??Subroutine217_0

   \                                 In  segment BANKED_CODE, align 1, keep-with-next
   \                     ??Subroutine217_0:
   \   000000   E0           MOVX      A,@DPTR
   \   000001   8C82         MOV       DPL,R4
   \   000003   8D83         MOV       DPH,R5
   \   000005   22           RET
   3072          
   3073          /*********************************************************************
   3074           * @fn          ZDO_ParsePowerDescRsp
   3075           *
   3076           * @brief       This function parses the Power_Desc_rsp message.
   3077           *
   3078           * @param       inMsg  - incoming message
   3079           * @param       pNPRsp - place to parse the message into
   3080           *
   3081           * @return      none
   3082           */

   \                                 In  segment BANKED_CODE, align 1, keep-with-next
   3083          void ZDO_ParsePowerDescRsp( zdoIncomingMsg_t *inMsg, ZDO_PowerRsp_t *pNPRsp )
   \                     ZDO_ParsePowerDescRsp:
   3084          {
   \   000000                REQUIRE ?V0
   \   000000                REQUIRE ?V1
   \   000000                REQUIRE ?V2
   \   000000                REQUIRE ?V3
   \   000000   74F4         MOV       A,#-0xc
   \   000002   12....       LCALL     ?BANKED_ENTER_XDATA
   \   000005                ; Saved register size: 12
   \   000005                ; Auto size: 0
   3085            uint8 *msg;
   3086          
   3087            msg = inMsg->asdu;
   \   000005   12....       LCALL     ?Subroutine112 & 0xFFFF
   \                     ??CrossCallReturnLabel_189:
   \   000008   12....       LCALL     ?Subroutine87 & 0xFFFF
   3088            pNPRsp->status = *msg++;
   \                     ??CrossCallReturnLabel_140:
   \   00000B   12....       LCALL     ??Subroutine217_0 & 0xFFFF
   \                     ??CrossCallReturnLabel_557:
   \   00000E   12....       LCALL     ?Subroutine48 & 0xFFFF
   \                     ??CrossCallReturnLabel_81:
   \   000011   A3           INC       DPTR
   \   000012   AA82         MOV       R2,DPL
   \   000014   AB83         MOV       R3,DPH
   3089            pNPRsp->nwkAddr = BUILD_UINT16( msg[0], msg[1] );
   \   000016   E0           MOVX      A,@DPTR
   \   000017   FE           MOV       R6,A
   \   000018   A3           INC       DPTR
   \   000019   E0           MOVX      A,@DPTR
   \   00001A   F9           MOV       R1,A
   \   00001B   EE           MOV       A,R6
   \   00001C   8C82         MOV       DPL,R4
   \   00001E   8D83         MOV       DPH,R5
   \   000020   A3           INC       DPTR
   \   000021   F0           MOVX      @DPTR,A
   \   000022   A3           INC       DPTR
   \   000023   E9           MOV       A,R1
   \   000024   12....       LCALL     ?Subroutine15 & 0xFFFF
   3090          
   3091            if ( pNPRsp->status == ZDP_SUCCESS )
   \                     ??CrossCallReturnLabel_19:
   \   000027   E0           MOVX      A,@DPTR
   \   000028   6003         JZ        $+5
   \   00002A   02....       LJMP      ??ZDO_ParsePowerDescRsp_0 & 0xFFFF
   3092            {
   3093              msg += 2;
   3094              pNPRsp->pwrDesc.AvailablePowerSources = *msg >> 4;
   \   00002D   EA           MOV       A,R2
   \   00002E   2402         ADD       A,#0x2
   \   000030   12....       LCALL     ?Subroutine131 & 0xFFFF
   \                     ??CrossCallReturnLabel_235:
   \   000033   EC           MOV       A,R4
   \   000034   2403         ADD       A,#0x3
   \   000036   E4           CLR       A
   \   000037   3D           ADDC      A,R5
   \   000038   0C           INC       R4
   \   000039   0C           INC       R4
   \   00003A   0C           INC       R4
   \   00003B   FD           MOV       R5,A
   \   00003C   8C82         MOV       DPL,R4
   \   00003E   8D83         MOV       DPH,R5
   \   000040   E0           MOVX      A,@DPTR
   \   000041   540F         ANL       A,#0xf
   \   000043   F5..         MOV       ?V0,A
   \   000045   A3           INC       DPTR
   \   000046   E0           MOVX      A,@DPTR
   \   000047   F5..         MOV       ?V1,A
   \   000049   8E82         MOV       DPL,R6
   \   00004B   8F83         MOV       DPH,R7
   \   00004D   E0           MOVX      A,@DPTR
   \   00004E   C4           SWAP      A
   \   00004F   540F         ANL       A,#0xf
   \   000051   F5..         MOV       ?V2,A
   \   000053   75..00       MOV       ?V3,#0x0
   \   000056   7404         MOV       A,#0x4
   \   000058   78..         MOV       R0,#?V2
   \   00005A   12....       LCALL     ?S_SHL
   \   00005D   E5..         MOV       A,?V0
   \   00005F   45..         ORL       A,?V2
   \   000061   F8           MOV       R0,A
   \   000062   A9..         MOV       R1,?V1
   \   000064   8C82         MOV       DPL,R4
   \   000066   8D83         MOV       DPH,R5
   \   000068   12....       LCALL     ??Subroutine179_0 & 0xFFFF
   3095              pNPRsp->pwrDesc.PowerMode = *msg++ & 0x0F;
   \                     ??CrossCallReturnLabel_332:
   \   00006B   E8           MOV       A,R0
   \   00006C   54F0         ANL       A,#0xf0
   \   00006E   F8           MOV       R0,A
   \   00006F   8E82         MOV       DPL,R6
   \   000071   8F83         MOV       DPH,R7
   \   000073   E0           MOVX      A,@DPTR
   \   000074   540F         ANL       A,#0xf
   \   000076   FE           MOV       R6,A
   \   000077   E8           MOV       A,R0
   \   000078   4E           ORL       A,R6
   \   000079   F5..         MOV       ?V0,A
   \   00007B   8C82         MOV       DPL,R4
   \   00007D   8D83         MOV       DPH,R5
   \   00007F   12....       LCALL     ??Subroutine179_0 & 0xFFFF
   3096              pNPRsp->pwrDesc.CurrentPowerSourceLevel = *msg >> 4;
   \                     ??CrossCallReturnLabel_333:
   \   000082   EA           MOV       A,R2
   \   000083   2403         ADD       A,#0x3
   \   000085   12....       LCALL     ?Subroutine131 & 0xFFFF
   3097              pNPRsp->pwrDesc.CurrentPowerSource = *msg++ & 0x0F;
   3098            }
   \                     ??CrossCallReturnLabel_236:
   \   000088   E5..         MOV       A,?V1
   \   00008A   540F         ANL       A,#0xf
   \   00008C   F5..         MOV       ?V1,A
   \   00008E   8E82         MOV       DPL,R6
   \   000090   8F83         MOV       DPH,R7
   \   000092   E0           MOVX      A,@DPTR
   \   000093   C4           SWAP      A
   \   000094   540F         ANL       A,#0xf
   \   000096   F5..         MOV       ?V2,A
   \   000098   740C         MOV       A,#0xc
   \   00009A   78..         MOV       R0,#?V2
   \   00009C   12....       LCALL     ?S_SHL
   \   00009F   E5..         MOV       A,?V1
   \   0000A1   45..         ORL       A,?V3
   \   0000A3   F9           MOV       R1,A
   \   0000A4   8C82         MOV       DPL,R4
   \   0000A6   8D83         MOV       DPH,R5
   \   0000A8   E5..         MOV       A,?V0
   \   0000AA   F0           MOVX      @DPTR,A
   \   0000AB   A3           INC       DPTR
   \   0000AC   E9           MOV       A,R1
   \   0000AD   12....       LCALL     ??Subroutine215_0 & 0xFFFF
   \                     ??CrossCallReturnLabel_548:
   \   0000B0   540F         ANL       A,#0xf
   \   0000B2   F8           MOV       R0,A
   \   0000B3   EA           MOV       A,R2
   \   0000B4   2404         ADD       A,#0x4
   \   0000B6   8C82         MOV       DPL,R4
   \   0000B8   8D83         MOV       DPH,R5
   \   0000BA   A3           INC       DPTR
   \   0000BB   E0           MOVX      A,@DPTR
   \   0000BC   54F0         ANL       A,#0xf0
   \   0000BE   F0           MOVX      @DPTR,A
   \   0000BF   E8           MOV       A,R0
   \   0000C0   F9           MOV       R1,A
   \   0000C1   8C82         MOV       DPL,R4
   \   0000C3   8D83         MOV       DPH,R5
   \   0000C5   A3           INC       DPTR
   \   0000C6   E0           MOVX      A,@DPTR
   \   0000C7   49           ORL       A,R1
   \   0000C8   F0           MOVX      @DPTR,A
   3099          }
   \                     ??ZDO_ParsePowerDescRsp_0:
   \   0000C9   02....       LJMP      ??Subroutine167_0 & 0xFFFF
   3100          
   3101          /*********************************************************************
   3102           * @fn          ZDO_ParseSimpleDescRsp
   3103           *
   3104           * @brief       This function parse the Simple_Desc_rsp message.
   3105           *
   3106           *   NOTE: The pAppInClusterList and pAppOutClusterList fields
   3107           *         in the SimpleDescriptionFormat_t structure are allocated
   3108           *         and the calling function needs to free [osal_msg_free()]
   3109           *         these buffers.
   3110           *
   3111           * @param       inMsg  - incoming message
   3112           * @param       pSimpleDescRsp - place to parse the message into
   3113           *
   3114           * @return      none
   3115           */

   \                                 In  segment BANKED_CODE, align 1, keep-with-next
   3116          void ZDO_ParseSimpleDescRsp( zdoIncomingMsg_t *inMsg, ZDO_SimpleDescRsp_t *pSimpleDescRsp )
   \                     ZDO_ParseSimpleDescRsp:
   3117          {
   \   000000   74F7         MOV       A,#-0x9
   \   000002   12....       LCALL     ?BANKED_ENTER_XDATA
   \   000005                ; Saved register size: 9
   \   000005                ; Auto size: 0
   3118            uint8 *msg;
   3119          
   3120            msg = inMsg->asdu;
   \   000005   12....       LCALL     ?Subroutine9 & 0xFFFF
   3121            pSimpleDescRsp->status = *msg++;
   3122            pSimpleDescRsp->nwkAddr = BUILD_UINT16( msg[0], msg[1] );
   3123            msg += sizeof ( uint16 );
   3124            msg++; // Skip past the length field.
   3125          
   3126            if ( pSimpleDescRsp->status == ZDP_SUCCESS )
   \                     ??CrossCallReturnLabel_1:
   \   000008   7011         JNZ       ??ZDO_ParseSimpleDescRsp_0
   3127            {
   3128              ZDO_ParseSimpleDescBuf( msg, &(pSimpleDescRsp->simpleDesc) );
   \   00000A                ; Setup parameters for call to function ZDO_ParseSimpleDescBuf
   \   00000A   EC           MOV       A,R4
   \   00000B   2403         ADD       A,#0x3
   \   00000D   FC           MOV       R4,A
   \   00000E   5001         JNC       ??ZDO_ParseSimpleDescRsp_1
   \   000010   0D           INC       R5
   \                     ??ZDO_ParseSimpleDescRsp_1:
   \   000011   E8           MOV       A,R0
   \   000012   2403         ADD       A,#0x3
   \   000014   FA           MOV       R2,A
   \   000015   E4           CLR       A
   \   000016   39           ADDC      A,R1
   \   000017   FB           MOV       R3,A
   \   000018   12....       LCALL     `??ZDO_ParseSimpleDescBuf::?relay`; Banked call to: ZDO_ParseSimpleDescBuf
   3129            }
   3130          }
   \                     ??ZDO_ParseSimpleDescRsp_0:
   \   00001B   02....       LJMP      ?Subroutine3 & 0xFFFF
   3131          
   3132          /*********************************************************************
   3133           * @fn          ZDO_ParseEPListRsp
   3134           *
   3135           * @brief       This parse the Active_EP_rsp or Match_Desc_rsp message.
   3136           *
   3137           * @param       inMsg  - incoming message
   3138           *
   3139           * @return      none
   3140           */

   \                                 In  segment BANKED_CODE, align 1, keep-with-next
   3141          ZDO_ActiveEndpointRsp_t *ZDO_ParseEPListRsp( zdoIncomingMsg_t *inMsg )
   \                     ZDO_ParseEPListRsp:
   3142          {
   \   000000                REQUIRE ?V0
   \   000000                REQUIRE ?V1
   \   000000                REQUIRE ?V2
   \   000000                REQUIRE ?V3
   \   000000                REQUIRE ?V4
   \   000000                REQUIRE ?V5
   \   000000                REQUIRE ?V6
   \   000000                REQUIRE ?V7
   \   000000   74F0         MOV       A,#-0x10
   \   000002   12....       LCALL     ?BANKED_ENTER_XDATA
   \   000005                ; Saved register size: 16
   \   000005                ; Auto size: 0
   3143            ZDO_ActiveEndpointRsp_t *pRsp;
   3144            uint8 *msg;
   3145            uint8 Status;
   3146            uint8 cnt;
   3147          
   3148            msg = inMsg->asdu;
   \   000005   12....       LCALL     ?Subroutine85 & 0xFFFF
   3149            Status = *msg++;
   \                     ??CrossCallReturnLabel_136:
   \   000008   F5..         MOV       ?V5,A
   \   00000A   A3           INC       DPTR
   \   00000B   8582..       MOV       ?V2,DPL
   \   00000E   8583..       MOV       ?V3,DPH
   3150            cnt = msg[2];
   \   000011   A3           INC       DPTR
   \   000012   A3           INC       DPTR
   \   000013   E0           MOVX      A,@DPTR
   \   000014   F5..         MOV       ?V4,A
   3151          
   3152            pRsp = (ZDO_ActiveEndpointRsp_t *)osal_mem_alloc( sizeof(  ZDO_ActiveEndpointRsp_t ) + cnt );
   \   000016   F5..         MOV       ?V0,A
   \   000018                ; Setup parameters for call to function osal_mem_alloc
   \   000018   12....       LCALL     ??Subroutine214_0 & 0xFFFF
   \                     ??CrossCallReturnLabel_540:
   \   00001B   3400         ADDC      A,#0x0
   \   00001D   FB           MOV       R3,A
   \   00001E   12....       LCALL     `??osal_mem_alloc::?relay`; Banked call to: osal_mem_alloc
   \   000021   8A..         MOV       ?V6,R2
   \   000023   8B..         MOV       ?V7,R3
   \   000025   AE..         MOV       R6,?V6
   \   000027   AF..         MOV       R7,?V7
   3153            if ( pRsp )
   \   000029   EE           MOV       A,R6
   \   00002A   4F           ORL       A,R7
   \   00002B   603F         JZ        ??ZDO_ParseEPListRsp_0
   3154            {
   3155              pRsp->status = Status;
   \   00002D   8E82         MOV       DPL,R6
   \   00002F   8F83         MOV       DPH,R7
   \   000031   E5..         MOV       A,?V5
   \   000033   F0           MOVX      @DPTR,A
   3156              pRsp->nwkAddr = BUILD_UINT16( msg[0], msg[1] );
   \   000034   85..82       MOV       DPL,?V2
   \   000037   85..83       MOV       DPH,?V3
   \   00003A   12....       LCALL     ?Subroutine89 & 0xFFFF
   3157              msg += sizeof( uint16 );
   3158              pRsp->cnt = cnt;
   3159              msg++; // pass cnt
   3160              osal_memcpy( pRsp->epList, msg, cnt );
   3161            }
   \                     ??CrossCallReturnLabel_515:
   \   00003D   8E82         MOV       DPL,R6
   \   00003F   8F83         MOV       DPH,R7
   \   000041   A3           INC       DPTR
   \   000042   12....       LCALL     ?Subroutine29 & 0xFFFF
   \                     ??CrossCallReturnLabel_38:
   \   000045   E5..         MOV       A,?V4
   \   000047   12....       LCALL     ?Subroutine28 & 0xFFFF
   \                     ??CrossCallReturnLabel_34:
   \   00004A   A3           INC       DPTR
   \   00004B   A3           INC       DPTR
   \   00004C   A982         MOV       R1,DPL
   \   00004E   AA83         MOV       R2,DPH
   \   000050   89..         MOV       ?V4,R1
   \   000052   8A..         MOV       ?V5,R2
   \   000054   88..         MOV       ?V6,R0
   \   000056   78..         MOV       R0,#?V4
   \   000058   12....       LCALL     ?PUSH_XSTACK_I_THREE
   \   00005B   AC..         MOV       R4,?V0
   \   00005D   7D00         MOV       R5,#0x0
   \   00005F   12....       LCALL     ?Subroutine158 & 0xFFFF
   \                     ??CrossCallReturnLabel_544:
   \   000062   3F           ADDC      A,R7
   \   000063   FB           MOV       R3,A
   \   000064   12....       LCALL     `??osal_memcpy::?relay`; Banked call to: osal_memcpy
   \   000067   7403         MOV       A,#0x3
   \   000069   12....       LCALL     ?DEALLOC_XSTACK8
   3162          
   3163            return ( pRsp );
   \                     ??ZDO_ParseEPListRsp_0:
   \   00006C   EE           MOV       A,R6
   \   00006D   FA           MOV       R2,A
   \   00006E   EF           MOV       A,R7
   \   00006F   FB           MOV       R3,A
   \   000070   02....       LJMP      ??Subroutine189_0 & 0xFFFF
   3164          }

   \                                 In  segment BANKED_CODE, align 1, keep-with-next
   \                     ?Subroutine89:
   \   000000   E0           MOVX      A,@DPTR
   \   000001   FA           MOV       R2,A
   \   000002                REQUIRE ??Subroutine209_0
   \   000002                ; // Fall through to label ??Subroutine209_0

   \                                 In  segment BANKED_CODE, align 1, keep-with-next
   \                     ??Subroutine209_0:
   \   000000   A3           INC       DPTR
   \   000001   E0           MOVX      A,@DPTR
   \   000002   F8           MOV       R0,A
   \   000003   E4           CLR       A
   \   000004   C8           XCH       A,R0
   \   000005   F9           MOV       R1,A
   \   000006   EA           MOV       A,R2
   \   000007   22           RET

   \                                 In  segment BANKED_CODE, align 1, keep-with-next
   \                     ?Subroutine158:
   \   000000   EE           MOV       A,R6
   \   000001                REQUIRE ??Subroutine214_0
   \   000001                ; // Fall through to label ??Subroutine214_0

   \                                 In  segment BANKED_CODE, align 1, keep-with-next
   \                     ??Subroutine214_0:
   \   000000   2404         ADD       A,#0x4
   \   000002   FA           MOV       R2,A
   \   000003   E4           CLR       A
   \   000004   22           RET

   \                                 In  segment BANKED_CODE, align 1, keep-with-next
   \                     ?Subroutine85:
   \   000000   12....       LCALL     ?Subroutine155 & 0xFFFF
   \                     ??CrossCallReturnLabel_270:
   \   000003   F5..         MOV       ?V2,A
   \   000005   A3           INC       DPTR
   \   000006   E0           MOVX      A,@DPTR
   \   000007   85..82       MOV       DPL,?V2
   \   00000A   F583         MOV       DPH,A
   \   00000C   E0           MOVX      A,@DPTR
   \   00000D   22           RET
   3165          
   3166          /*********************************************************************
   3167           * @fn          ZDO_ParseServerDiscRsp
   3168           *
   3169           * @brief       Parse the Server_Discovery_rsp message.
   3170           *
   3171           * @param       inMsg - incoming message.
   3172           * @param       pRsp - place to put the parsed information.
   3173           *
   3174           * @return      none
   3175           */

   \                                 In  segment BANKED_CODE, align 1, keep-with-next
   3176          void ZDO_ParseServerDiscRsp( zdoIncomingMsg_t *inMsg, ZDO_ServerDiscRsp_t *pRsp )
   \                     ZDO_ParseServerDiscRsp:
   3177          {
   \   000000   74F7         MOV       A,#-0x9
   \   000002   12....       LCALL     ?BANKED_ENTER_XDATA
   \   000005                ; Saved register size: 9
   \   000005                ; Auto size: 0
   3178            pRsp->status = inMsg->asdu[0];
   \   000005   EA           MOV       A,R2
   \   000006   2413         ADD       A,#0x13
   \   000008   F8           MOV       R0,A
   \   000009   E4           CLR       A
   \   00000A   3B           ADDC      A,R3
   \   00000B   F9           MOV       R1,A
   \   00000C   8882         MOV       DPL,R0
   \   00000E   8983         MOV       DPH,R1
   \   000010   E0           MOVX      A,@DPTR
   \   000011   FA           MOV       R2,A
   \   000012   A3           INC       DPTR
   \   000013   E0           MOVX      A,@DPTR
   \   000014   F583         MOV       DPH,A
   \   000016   8A82         MOV       DPL,R2
   \   000018   12....       LCALL     ??Subroutine217_0 & 0xFFFF
   \                     ??CrossCallReturnLabel_558:
   \   00001B   12....       LCALL     ?Subroutine44 & 0xFFFF
   3179            pRsp->serverMask = BUILD_UINT16( inMsg->asdu[1], inMsg->asdu[2] );
   \                     ??CrossCallReturnLabel_70:
   \   00001E   12....       LCALL     ??Subroutine191_0 & 0xFFFF
   \                     ??CrossCallReturnLabel_398:
   \   000021   A3           INC       DPTR
   \   000022   E0           MOVX      A,@DPTR
   \   000023   FA           MOV       R2,A
   \   000024   8882         MOV       DPL,R0
   \   000026   8983         MOV       DPH,R1
   \   000028   A3           INC       DPTR
   \   000029   12....       LCALL     ??Subroutine218_0 & 0xFFFF
   \                     ??CrossCallReturnLabel_562:
   \   00002C   12....       LCALL     ??Subroutine179_0 & 0xFFFF
   3180          }
   \                     ??CrossCallReturnLabel_334:
   \   00002F   02....       LJMP      ?Subroutine3 & 0xFFFF

   \                                 In  segment BANKED_CODE, align 1, keep-with-next
   \                     ??Subroutine218_0:
   \   000000   A3           INC       DPTR
   \   000001   E0           MOVX      A,@DPTR
   \   000002   F9           MOV       R1,A
   \   000003   EA           MOV       A,R2
   \   000004   8C82         MOV       DPL,R4
   \   000006   8D83         MOV       DPH,R5
   \   000008   A3           INC       DPTR
   \   000009   22           RET
   3181          
   3182          /*********************************************************************
   3183           * @fn          ZDO_ParseMgmtLqiRsp
   3184           *
   3185           * @brief       This function parses the incoming Management
   3186           *              LQI response
   3187           *
   3188           * @param       inMsg - incoming message
   3189           *
   3190           * @return      a pointer to parsed response structure (NULL if not allocated).
   3191           *          This structure was allocated using osal_mem_alloc, so it must be freed
   3192           *          by the calling function [osal_mem_free()].
   3193           */

   \                                 In  segment BANKED_CODE, align 1, keep-with-next
   \                     ?Subroutine118:
   \   000000   FC           MOV       R4,A
   \   000001   EF           MOV       A,R7
   \   000002   FD           MOV       R5,A
   \   000003   E5..         MOV       A,?V0
   \   000005                REQUIRE ??Subroutine184_0
   \   000005                ; // Fall through to label ??Subroutine184_0

   \                                 In  segment BANKED_CODE, align 1, keep-with-next
   \                     ?Subroutine4:
   \   000000   AA..         MOV       R2,?V2
   \   000002   AB..         MOV       R3,?V3
   \   000004                REQUIRE ??Subroutine189_0
   \   000004                ; // Fall through to label ??Subroutine189_0

   \                                 In  segment BANKED_CODE, align 1, keep-with-next
   3194          ZDO_MgmtLqiRsp_t *ZDO_ParseMgmtLqiRsp( zdoIncomingMsg_t *inMsg )
   \                     ZDO_ParseMgmtLqiRsp:
   3195          {
   \   000000                REQUIRE ?V0
   \   000000                REQUIRE ?V1
   \   000000                REQUIRE ?V2
   \   000000                REQUIRE ?V3
   \   000000                REQUIRE ?V4
   \   000000                REQUIRE ?V5
   \   000000                REQUIRE ?V6
   \   000000                REQUIRE ?V7
   \   000000   74F0         MOV       A,#-0x10
   \   000002   12....       LCALL     ?BANKED_ENTER_XDATA
   \   000005                ; Saved register size: 16
   \   000005                ; Auto size: 0
   3196            ZDO_MgmtLqiRsp_t *pRsp;
   3197            uint8 status;
   3198            uint8 startIndex = 0;
   \   000005   75..00       MOV       ?V5,#0x0
   3199            uint8 neighborLqiCount = 0;
   \   000008   75..00       MOV       ?V4,#0x0
   3200            uint8 neighborLqiEntries = 0;
   \   00000B   75..00       MOV       ?V6,#0x0
   3201            uint8 *msg;
   3202          
   3203            msg = inMsg->asdu;
   \   00000E   12....       LCALL     ?Subroutine54 & 0xFFFF
   3204          
   3205            status = *msg++;
   \                     ??CrossCallReturnLabel_525:
   \   000011   F5..         MOV       ?V7,A
   \   000013   A3           INC       DPTR
   \   000014   AE82         MOV       R6,DPL
   \   000016   AF83         MOV       R7,DPH
   3206            if ( status == ZSuccess )
   \   000018   7015         JNZ       ??ZDO_ParseMgmtLqiRsp_0
   3207            {
   3208              neighborLqiEntries = *msg++;
   \   00001A   12....       LCALL     ?Subroutine91 & 0xFFFF
   3209              startIndex = *msg++;
   \                     ??CrossCallReturnLabel_142:
   \   00001D   F5..         MOV       ?V5,A
   3210              neighborLqiCount = *msg++;
   \   00001F   8E82         MOV       DPL,R6
   \   000021   8F83         MOV       DPH,R7
   \   000023   A3           INC       DPTR
   \   000024   A3           INC       DPTR
   \   000025   E0           MOVX      A,@DPTR
   \   000026   F5..         MOV       ?V4,A
   \   000028   EE           MOV       A,R6
   \   000029   2403         ADD       A,#0x3
   \   00002B   FE           MOV       R6,A
   \   00002C   5001         JNC       ??ZDO_ParseMgmtLqiRsp_0
   \   00002E   0F           INC       R7
   3211            }
   3212          
   3213            // Allocate a buffer big enough to handle the list.
   3214            pRsp = (ZDO_MgmtLqiRsp_t *)osal_mem_alloc(
   3215                      sizeof( ZDO_MgmtLqiRsp_t ) + (neighborLqiCount * sizeof( ZDP_MgmtLqiItem_t )) );
   \                     ??ZDO_ParseMgmtLqiRsp_0:
   \   00002F                ; Setup parameters for call to function osal_mem_alloc
   \   00002F   E5..         MOV       A,?V4
   \   000031   75F01A       MOV       B,#0x1a
   \   000034   12....       LCALL     ?Subroutine128 & 0xFFFF
   \                     ??CrossCallReturnLabel_227:
   \   000037   12....       LCALL     `??osal_mem_alloc::?relay`; Banked call to: osal_mem_alloc
   \   00003A   8A..         MOV       ?V2,R2
   \   00003C   8B..         MOV       ?V3,R3
   3216            if ( pRsp )
   \   00003E   EA           MOV       A,R2
   \   00003F   45..         ORL       A,?V3
   \   000041   7003         JNZ       $+5
   \   000043   02....       LJMP      ??ZDO_ParseMgmtLqiRsp_1 & 0xFFFF
   3217            {
   3218              uint8 x;
   3219              ZDP_MgmtLqiItem_t *pList = pRsp->list;
   \   000046   12....       LCALL     ?Subroutine129 & 0xFFFF
   3220              pRsp->status = status;
   \                     ??CrossCallReturnLabel_230:
   \   000049   12....       LCALL     ?Subroutine10 & 0xFFFF
   3221              pRsp->neighborLqiEntries = neighborLqiEntries;
   3222              pRsp->startIndex = startIndex;
   3223              pRsp->neighborLqiCount = neighborLqiCount;
   3224          
   3225              for ( x = 0; x < neighborLqiCount; x++ )
   \                     ??CrossCallReturnLabel_2:
   \   00004C   02....       LJMP      ??ZDO_ParseMgmtLqiRsp_2 & 0xFFFF
   3226              {
   3227                uint8 tmp;
   3228          
   3229                pList->panID = 0; // This isn't in the record, why is it in the structure?
   \                     ??ZDO_ParseMgmtLqiRsp_3:
   \   00004F   85..82       MOV       DPL,?V0
   \   000052   85..83       MOV       DPH,?V1
   \   000055   E4           CLR       A
   \   000056   F0           MOVX      @DPTR,A
   \   000057   A3           INC       DPTR
   \   000058   F0           MOVX      @DPTR,A
   3230                osal_cpyExtAddr(pList->extPanID, msg);   //Copy extended PAN ID
   \   000059                ; Setup parameters for call to function sAddrExtCpy
   \   000059   EE           MOV       A,R6
   \   00005A   12....       LCALL     ?Subroutine118 & 0xFFFF
   \                     ??CrossCallReturnLabel_378:
   \   00005D   35..         ADDC      A,?V1
   \   00005F   FB           MOV       R3,A
   \   000060   12....       LCALL     `??sAddrExtCpy::?relay`; Banked call to: sAddrExtCpy
   3231                msg += Z_EXTADDR_LEN;
   \   000063   EE           MOV       A,R6
   \   000064   2408         ADD       A,#0x8
   \   000066   FE           MOV       R6,A
   \   000067   5001         JNC       ??ZDO_ParseMgmtLqiRsp_4
   \   000069   0F           INC       R7
   3232          
   3233                osal_cpyExtAddr(pList->extAddr, msg);   //Copy extended address
   \                     ??ZDO_ParseMgmtLqiRsp_4:
   \   00006A                ; Setup parameters for call to function sAddrExtCpy
   \   00006A   FC           MOV       R4,A
   \   00006B   EF           MOV       A,R7
   \   00006C   FD           MOV       R5,A
   \   00006D   E5..         MOV       A,?V0
   \   00006F   12....       LCALL     ??Subroutine220_0 & 0xFFFF
   \                     ??CrossCallReturnLabel_571:
   \   000072   35..         ADDC      A,?V1
   \   000074   FB           MOV       R3,A
   \   000075   12....       LCALL     `??sAddrExtCpy::?relay`; Banked call to: sAddrExtCpy
   3234                msg += Z_EXTADDR_LEN;
   \   000078   EE           MOV       A,R6
   \   000079   2408         ADD       A,#0x8
   \   00007B   FE           MOV       R6,A
   \   00007C   5001         JNC       ??ZDO_ParseMgmtLqiRsp_5
   \   00007E   0F           INC       R7
   3235          
   3236                pList->nwkAddr = BUILD_UINT16( msg[0], msg[1] );
   \                     ??ZDO_ParseMgmtLqiRsp_5:
   \   00007F   12....       LCALL     ?Subroutine75 & 0xFFFF
   \                     ??CrossCallReturnLabel_520:
   \   000082   F8           MOV       R0,A
   \   000083   E5..         MOV       A,?V0
   \   000085   2412         ADD       A,#0x12
   \   000087   12....       LCALL     ??Subroutine182_0 & 0xFFFF
   \                     ??CrossCallReturnLabel_362:
   \   00008A   E8           MOV       A,R0
   \   00008B   12....       LCALL     ?Subroutine20 & 0xFFFF
   3237                msg += 2;
   3238          
   3239                tmp = *msg++;
   \                     ??CrossCallReturnLabel_534:
   \   00008E   F8           MOV       R0,A
   3240                pList->devType = tmp & 0x03;
   \   00008F   7403         MOV       A,#0x3
   \   000091   58           ANL       A,R0
   \   000092   C0E0         PUSH      A
   \   000094   E5..         MOV       A,?V0
   \   000096   2414         ADD       A,#0x14
   \   000098   12....       LCALL     ??Subroutine182_0 & 0xFFFF
   \                     ??CrossCallReturnLabel_363:
   \   00009B   D0E0         POP       A
   \   00009D   F0           MOVX      @DPTR,A
   3241                pList->rxOnIdle = (tmp >> 2) & 0x03;
   \   00009E   E8           MOV       A,R0
   \   00009F   13           RRC       A
   \   0000A0   13           RRC       A
   \   0000A1   543F         ANL       A,#0x3f
   \   0000A3   5403         ANL       A,#0x3
   \   0000A5   C0E0         PUSH      A
   \   0000A7   E5..         MOV       A,?V0
   \   0000A9   2415         ADD       A,#0x15
   \   0000AB   12....       LCALL     ??Subroutine182_0 & 0xFFFF
   \                     ??CrossCallReturnLabel_364:
   \   0000AE   D0E0         POP       A
   \   0000B0   F0           MOVX      @DPTR,A
   3242                pList->relation = (tmp >> 4) & 0x07;
   \   0000B1   E8           MOV       A,R0
   \   0000B2   C4           SWAP      A
   \   0000B3   540F         ANL       A,#0xf
   \   0000B5   5407         ANL       A,#0x7
   \   0000B7   C0E0         PUSH      A
   \   0000B9   E5..         MOV       A,?V0
   \   0000BB   2416         ADD       A,#0x16
   \   0000BD   12....       LCALL     ??Subroutine182_0 & 0xFFFF
   \                     ??CrossCallReturnLabel_365:
   \   0000C0   D0E0         POP       A
   \   0000C2   12....       LCALL     ?Subroutine14 & 0xFFFF
   3243          
   3244                pList->permit = (*msg++) & 0x03;
   \                     ??CrossCallReturnLabel_11:
   \   0000C5   5403         ANL       A,#0x3
   \   0000C7   C0E0         PUSH      A
   \   0000C9   E5..         MOV       A,?V0
   \   0000CB   2417         ADD       A,#0x17
   \   0000CD   12....       LCALL     ??Subroutine182_0 & 0xFFFF
   \                     ??CrossCallReturnLabel_366:
   \   0000D0   D0E0         POP       A
   \   0000D2   12....       LCALL     ?Subroutine41 & 0xFFFF
   3245          
   3246                pList->depth = *msg++;
   \                     ??CrossCallReturnLabel_61:
   \   0000D5   E0           MOVX      A,@DPTR
   \   0000D6   C0E0         PUSH      A
   \   0000D8   E5..         MOV       A,?V0
   \   0000DA   2418         ADD       A,#0x18
   \   0000DC   12....       LCALL     ??Subroutine182_0 & 0xFFFF
   \                     ??CrossCallReturnLabel_367:
   \   0000DF   D0E0         POP       A
   \   0000E1   12....       LCALL     ?Subroutine32 & 0xFFFF
   3247          
   3248                pList->lqi = *msg++;
   \                     ??CrossCallReturnLabel_42:
   \   0000E4   C0E0         PUSH      A
   \   0000E6   E5..         MOV       A,?V0
   \   0000E8   2419         ADD       A,#0x19
   \   0000EA   12....       LCALL     ??Subroutine182_0 & 0xFFFF
   \                     ??CrossCallReturnLabel_368:
   \   0000ED   D0E0         POP       A
   \   0000EF   F0           MOVX      @DPTR,A
   \   0000F0   EE           MOV       A,R6
   \   0000F1   2406         ADD       A,#0x6
   \   0000F3   FE           MOV       R6,A
   \   0000F4   5001         JNC       ??ZDO_ParseMgmtLqiRsp_6
   \   0000F6   0F           INC       R7
   3249                pList++;
   \                     ??ZDO_ParseMgmtLqiRsp_6:
   \   0000F7   E5..         MOV       A,?V0
   \   0000F9   241A         ADD       A,#0x1a
   \   0000FB   F5..         MOV       ?V0,A
   \   0000FD   5002         JNC       ??ZDO_ParseMgmtLqiRsp_7
   \   0000FF   05..         INC       ?V1
   3250              }
   \                     ??ZDO_ParseMgmtLqiRsp_7:
   \   000101   05..         INC       ?V5
   \                     ??ZDO_ParseMgmtLqiRsp_2:
   \   000103   E5..         MOV       A,?V5
   \   000105   C3           CLR       C
   \   000106   95..         SUBB      A,?V4
   \   000108   5003         JNC       $+5
   \   00010A   02....       LJMP      ??ZDO_ParseMgmtLqiRsp_3 & 0xFFFF
   3251            }
   3252          
   3253            return ( pRsp );
   \                     ??ZDO_ParseMgmtLqiRsp_1:
   \   00010D   02....       LJMP      ?Subroutine4 & 0xFFFF
   3254          }

   \                                 In  segment BANKED_CODE, align 1, keep-with-next
   \                     ?Subroutine54:
   \   000000   12....       LCALL     ?Subroutine156 & 0xFFFF
   \                     ??CrossCallReturnLabel_273:
   \   000003                REQUIRE ??Subroutine211_0
   \   000003                ; // Fall through to label ??Subroutine211_0

   \                                 In  segment BANKED_CODE, align 1, keep-with-next
   \                     ?Subroutine20:
   \   000000   F0           MOVX      @DPTR,A
   \   000001   A3           INC       DPTR
   \   000002   E9           MOV       A,R1
   \   000003                REQUIRE ??Subroutine213_0
   \   000003                ; // Fall through to label ??Subroutine213_0

   \                                 In  segment BANKED_CODE, align 1, keep-with-next
   \                     ??Subroutine213_0:
   \   000000   12....       LCALL     ?Subroutine166 & 0xFFFF
   \                     ??CrossCallReturnLabel_538:
   \   000003   A3           INC       DPTR
   \   000004   E0           MOVX      A,@DPTR
   \   000005   22           RET

   \                                 In  segment BANKED_CODE, align 1, keep-with-next
   \                     ?Subroutine129:
   \   000000   EA           MOV       A,R2
   \   000001   2404         ADD       A,#0x4
   \   000003   F5..         MOV       ?V0,A
   \   000005   E4           CLR       A
   \   000006   35..         ADDC      A,?V3
   \   000008   F5..         MOV       ?V1,A
   \   00000A   22           RET

   \                                 In  segment BANKED_CODE, align 1, keep-with-next
   \                     ?Subroutine128:
   \   000000   A4           MUL       AB
   \   000001   A9F0         MOV       R1,B
   \   000003   12....       LCALL     ??Subroutine214_0 & 0xFFFF
   \                     ??CrossCallReturnLabel_543:
   \   000006   39           ADDC      A,R1
   \   000007   FB           MOV       R3,A
   \   000008   22           RET

   \                                 In  segment BANKED_CODE, align 1, keep-with-next
   \                     ?Subroutine135:
   \   000000   F0           MOVX      @DPTR,A
   \   000001   8A82         MOV       DPL,R2
   \   000003   8B83         MOV       DPH,R3
   \   000005   A3           INC       DPTR
   \   000006   A3           INC       DPTR
   \   000007   A3           INC       DPTR
   \   000008   22           RET

   \                                 In  segment BANKED_CODE, align 1, keep-with-next
   \                     ?Subroutine10:
   \   000000   8A82         MOV       DPL,R2
   \   000002   8B83         MOV       DPH,R3
   \   000004   E5..         MOV       A,?V7
   \   000006   F0           MOVX      @DPTR,A
   \   000007   A3           INC       DPTR
   \   000008   E5..         MOV       A,?V6
   \   00000A   12....       LCALL     ?Subroutine140 & 0xFFFF
   \                     ??CrossCallReturnLabel_257:
   \   00000D   A3           INC       DPTR
   \   00000E   A3           INC       DPTR
   \   00000F   E5..         MOV       A,?V5
   \   000011   12....       LCALL     ?Subroutine135 & 0xFFFF
   \                     ??CrossCallReturnLabel_242:
   \   000014   E5..         MOV       A,?V4
   \   000016   F0           MOVX      @DPTR,A
   \   000017   75..00       MOV       ?V5,#0x0
   \   00001A   22           RET
   3255          
   3256          /*********************************************************************
   3257           * @fn          ZDO_ParseMgmNwkDiscRsp
   3258           *
   3259           * @brief       This function parses the incoming Management
   3260           *              Network Discover response.
   3261           *
   3262           * @param       inMsg - incoming message
   3263           *
   3264           * @return      pointer to parsed response.  This structure was
   3265           *          allocated using osal_mem_alloc, so it must be freed
   3266           *          by the calling function [osal_mem_free()].
   3267           */

   \                                 In  segment BANKED_CODE, align 1, keep-with-next
   3268          ZDO_MgmNwkDiscRsp_t *ZDO_ParseMgmNwkDiscRsp( zdoIncomingMsg_t *inMsg )
   \                     ZDO_ParseMgmNwkDiscRsp:
   3269          {
   \   000000                REQUIRE ?V0
   \   000000                REQUIRE ?V1
   \   000000                REQUIRE ?V2
   \   000000                REQUIRE ?V3
   \   000000                REQUIRE ?V4
   \   000000                REQUIRE ?V5
   \   000000                REQUIRE ?V6
   \   000000                REQUIRE ?V7
   \   000000   74F0         MOV       A,#-0x10
   \   000002   12....       LCALL     ?BANKED_ENTER_XDATA
   \   000005                ; Saved register size: 16
   \   000005                ; Auto size: 0
   3270            ZDO_MgmNwkDiscRsp_t *pRsp;
   3271            uint8 status;
   3272            uint8 networkCount = 0;
   \   000005   75..00       MOV       ?V1,#0x0
   3273            uint8 startIndex = 0;
   \   000008   75..00       MOV       ?V0,#0x0
   3274            uint8 networkListCount = 0;
   \   00000B   75..00       MOV       ?V4,#0x0
   3275            uint8 *msg;
   3276          
   3277            msg = inMsg->asdu;
   \   00000E   12....       LCALL     ?Subroutine54 & 0xFFFF
   3278            status = *msg++;
   \                     ??CrossCallReturnLabel_526:
   \   000011   F5..         MOV       ?V5,A
   \   000013   A3           INC       DPTR
   \   000014   AE82         MOV       R6,DPL
   \   000016   AF83         MOV       R7,DPH
   3279          
   3280            if ( status == ZSuccess )
   \   000018   7017         JNZ       ??ZDO_ParseMgmNwkDiscRsp_0
   3281            {
   3282              networkCount = *msg++;
   \   00001A   E0           MOVX      A,@DPTR
   \   00001B   F5..         MOV       ?V1,A
   3283              startIndex = *msg++;
   \   00001D   A3           INC       DPTR
   \   00001E   E0           MOVX      A,@DPTR
   \   00001F   F5..         MOV       ?V0,A
   3284              networkListCount = *msg++;
   \   000021   8E82         MOV       DPL,R6
   \   000023   8F83         MOV       DPH,R7
   \   000025   A3           INC       DPTR
   \   000026   A3           INC       DPTR
   \   000027   E0           MOVX      A,@DPTR
   \   000028   F5..         MOV       ?V4,A
   \   00002A   EE           MOV       A,R6
   \   00002B   2403         ADD       A,#0x3
   \   00002D   FE           MOV       R6,A
   \   00002E   5001         JNC       ??ZDO_ParseMgmNwkDiscRsp_0
   \   000030   0F           INC       R7
   3285            }
   3286          
   3287            // Allocate a buffer big enough to handle the list.
   3288            pRsp = (ZDO_MgmNwkDiscRsp_t *)osal_mem_alloc( sizeof( ZDO_MgmNwkDiscRsp_t )
   3289                                            + (networkListCount * sizeof( mgmtNwkDiscItem_t )) );
   \                     ??ZDO_ParseMgmNwkDiscRsp_0:
   \   000031                ; Setup parameters for call to function osal_mem_alloc
   \   000031   E5..         MOV       A,?V4
   \   000033   F5..         MOV       ?V2,A
   \   000035   75..00       MOV       ?V3,#0x0
   \   000038   7404         MOV       A,#0x4
   \   00003A   78..         MOV       R0,#?V2
   \   00003C   12....       LCALL     ?S_SHL
   \   00003F   E5..         MOV       A,?V2
   \   000041   12....       LCALL     ??Subroutine214_0 & 0xFFFF
   \                     ??CrossCallReturnLabel_541:
   \   000044   35..         ADDC      A,?V3
   \   000046   FB           MOV       R3,A
   \   000047   12....       LCALL     `??osal_mem_alloc::?relay`; Banked call to: osal_mem_alloc
   \   00004A   8A..         MOV       ?V2,R2
   \   00004C   8B..         MOV       ?V3,R3
   3290            if ( pRsp )
   \   00004E   EA           MOV       A,R2
   \   00004F   45..         ORL       A,?V3
   \   000051   7003         JNZ       $+5
   \   000053   02....       LJMP      ??ZDO_ParseMgmNwkDiscRsp_1 & 0xFFFF
   3291            {
   3292              uint8 x;
   3293              mgmtNwkDiscItem_t *pList;
   3294          
   3295              pRsp->status = status;
   \   000056   8A82         MOV       DPL,R2
   \   000058   8B83         MOV       DPH,R3
   \   00005A   E5..         MOV       A,?V5
   \   00005C   F0           MOVX      @DPTR,A
   3296              pRsp->networkCount = networkCount;
   \   00005D   A3           INC       DPTR
   \   00005E   E5..         MOV       A,?V1
   \   000060   12....       LCALL     ?Subroutine47 & 0xFFFF
   3297              pRsp->startIndex = startIndex;
   \                     ??CrossCallReturnLabel_76:
   \   000063   E5..         MOV       A,?V0
   \   000065   12....       LCALL     ?Subroutine46 & 0xFFFF
   3298              pRsp->networkListCount = networkListCount;
   \                     ??CrossCallReturnLabel_73:
   \   000068   E5..         MOV       A,?V4
   \   00006A   F0           MOVX      @DPTR,A
   3299              pList = pRsp->list;
   \   00006B   12....       LCALL     ?Subroutine129 & 0xFFFF
   3300          
   3301              for ( x = 0; x < networkListCount; x++ )
   \                     ??CrossCallReturnLabel_231:
   \   00006E   75..00       MOV       ?V5,#0x0
   \   000071   02....       LJMP      ??ZDO_ParseMgmNwkDiscRsp_2 & 0xFFFF
   3302              {
   3303                osal_cpyExtAddr(pList->extendedPANID, msg);   //Copy extended PAN ID
   \                     ??ZDO_ParseMgmNwkDiscRsp_3:
   \   000074                ; Setup parameters for call to function sAddrExtCpy
   \   000074   EE           MOV       A,R6
   \   000075   FC           MOV       R4,A
   \   000076   EF           MOV       A,R7
   \   000077   FD           MOV       R5,A
   \   000078   AA..         MOV       R2,?V0
   \   00007A   AB..         MOV       R3,?V1
   \   00007C   12....       LCALL     `??sAddrExtCpy::?relay`; Banked call to: sAddrExtCpy
   3304                pList->PANId = BUILD_UINT16( msg[0], msg[1] );
   \   00007F   12....       LCALL     ?Subroutine62 & 0xFFFF
   \                     ??CrossCallReturnLabel_103:
   \   000082   A3           INC       DPTR
   \   000083   F0           MOVX      @DPTR,A
   \   000084   A3           INC       DPTR
   \   000085   E9           MOV       A,R1
   \   000086   12....       LCALL     ?Subroutine17 & 0xFFFF
   3305                msg += Z_EXTADDR_LEN;
   3306          
   3307                pList->logicalChannel = *msg++;
   \                     ??CrossCallReturnLabel_21:
   \   000089   85..82       MOV       DPL,?V0
   \   00008C   85..83       MOV       DPH,?V1
   \   00008F   A3           INC       DPTR
   \   000090   A3           INC       DPTR
   \   000091   A3           INC       DPTR
   \   000092   A3           INC       DPTR
   \   000093   A3           INC       DPTR
   \   000094   A3           INC       DPTR
   \   000095   A3           INC       DPTR
   \   000096   A3           INC       DPTR
   \   000097   A3           INC       DPTR
   \   000098   A3           INC       DPTR
   \   000099   F0           MOVX      @DPTR,A
   3308                pList->stackProfile = (*msg) & 0x0F;
   \   00009A   EE           MOV       A,R6
   \   00009B   2409         ADD       A,#0x9
   \   00009D   F8           MOV       R0,A
   \   00009E   12....       LCALL     ?Subroutine102 & 0xFFFF
   \                     ??CrossCallReturnLabel_161:
   \   0000A1   C0E0         PUSH      A
   \   0000A3   E5..         MOV       A,?V0
   \   0000A5   240B         ADD       A,#0xb
   \   0000A7   12....       LCALL     ??Subroutine182_0 & 0xFFFF
   \                     ??CrossCallReturnLabel_369:
   \   0000AA   D0E0         POP       A
   \   0000AC   12....       LCALL     ?Subroutine43 & 0xFFFF
   3309                pList->version = (*msg++ >> 4) & 0x0F;
   \                     ??CrossCallReturnLabel_65:
   \   0000AF   C0E0         PUSH      A
   \   0000B1   12....       LCALL     ?Subroutine124 & 0xFFFF
   \                     ??CrossCallReturnLabel_372:
   \   0000B4   D0E0         POP       A
   \   0000B6   F0           MOVX      @DPTR,A
   3310                pList->beaconOrder = (*msg) & 0x0F;
   \   0000B7   EE           MOV       A,R6
   \   0000B8   240A         ADD       A,#0xa
   \   0000BA   08           INC       R0
   \   0000BB   12....       LCALL     ?Subroutine102 & 0xFFFF
   \                     ??CrossCallReturnLabel_162:
   \   0000BE   C0E0         PUSH      A
   \   0000C0   E5..         MOV       A,?V0
   \   0000C2   240D         ADD       A,#0xd
   \   0000C4   12....       LCALL     ??Subroutine182_0 & 0xFFFF
   \                     ??CrossCallReturnLabel_370:
   \   0000C7   D0E0         POP       A
   \   0000C9   12....       LCALL     ?Subroutine43 & 0xFFFF
   3311                pList->superFrameOrder = (*msg++ >> 4) & 0x0F;
   \                     ??CrossCallReturnLabel_66:
   \   0000CC   C0E0         PUSH      A
   \   0000CE   E5..         MOV       A,?V0
   \   0000D0   12....       LCALL     ?Subroutine116 & 0xFFFF
   \                     ??CrossCallReturnLabel_199:
   \   0000D3   12....       LCALL     ??Subroutine183_0 & 0xFFFF
   \                     ??CrossCallReturnLabel_360:
   \   0000D6   D0E0         POP       A
   \   0000D8   F0           MOVX      @DPTR,A
   3312                pList->permitJoining = *msg++;
   \   0000D9   EE           MOV       A,R6
   \   0000DA   240B         ADD       A,#0xb
   \   0000DC   12....       LCALL     ??Subroutine187_0 & 0xFFFF
   \                     ??CrossCallReturnLabel_392:
   \   0000DF   C0E0         PUSH      A
   \   0000E1   12....       LCALL     ?Subroutine119 & 0xFFFF
   \                     ??CrossCallReturnLabel_203:
   \   0000E4   D0E0         POP       A
   \   0000E6   F0           MOVX      @DPTR,A
   \   0000E7   EE           MOV       A,R6
   \   0000E8   240C         ADD       A,#0xc
   \   0000EA   FE           MOV       R6,A
   \   0000EB   5001         JNC       ??ZDO_ParseMgmNwkDiscRsp_4
   \   0000ED   0F           INC       R7
   3313                pList++;
   \                     ??ZDO_ParseMgmNwkDiscRsp_4:
   \   0000EE   E5..         MOV       A,?V0
   \   0000F0   2410         ADD       A,#0x10
   \   0000F2   F5..         MOV       ?V0,A
   \   0000F4   5002         JNC       ??ZDO_ParseMgmNwkDiscRsp_5
   \   0000F6   05..         INC       ?V1
   3314              }
   \                     ??ZDO_ParseMgmNwkDiscRsp_5:
   \   0000F8   05..         INC       ?V5
   \                     ??ZDO_ParseMgmNwkDiscRsp_2:
   \   0000FA   E5..         MOV       A,?V5
   \   0000FC   C3           CLR       C
   \   0000FD   95..         SUBB      A,?V4
   \   0000FF   5003         JNC       $+5
   \   000101   02....       LJMP      ??ZDO_ParseMgmNwkDiscRsp_3 & 0xFFFF
   3315            }
   3316          
   3317            return ( pRsp );
   \                     ??ZDO_ParseMgmNwkDiscRsp_1:
   \   000104   02....       LJMP      ?Subroutine4 & 0xFFFF
   3318          }

   \                                 In  segment BANKED_CODE, align 1, keep-with-next
   \                     ?Subroutine102:
   \   000000   E4           CLR       A
   \   000001   3F           ADDC      A,R7
   \   000002   F9           MOV       R1,A
   \   000003   8882         MOV       DPL,R0
   \   000005   8983         MOV       DPH,R1
   \   000007   E0           MOVX      A,@DPTR
   \   000008   540F         ANL       A,#0xf
   \   00000A   22           RET

   \                                 In  segment BANKED_CODE, align 1, keep-with-next
   \                     ?Subroutine43:
   \   000000   12....       LCALL     ?Subroutine139 & 0xFFFF
   \                     ??CrossCallReturnLabel_253:
   \   000003   C4           SWAP      A
   \   000004   540F         ANL       A,#0xf
   \   000006   22           RET

   \                                 In  segment BANKED_CODE, align 1, keep-with-next
   \                     ?Subroutine46:
   \   000000   12....       LCALL     ?Subroutine135 & 0xFFFF
   \                     ??CrossCallReturnLabel_241:
   \   000003   22           RET

   \                                 In  segment BANKED_CODE, align 1, keep-with-next
   \                     ?Subroutine62:
   \   000000   8E82         MOV       DPL,R6
   \   000002   8F83         MOV       DPH,R7
   \   000004   12....       LCALL     ?Subroutine151 & 0xFFFF
   \                     ??CrossCallReturnLabel_523:
   \   000007   85..82       MOV       DPL,?V0
   \   00000A   85..83       MOV       DPH,?V1
   \   00000D   A3           INC       DPTR
   \   00000E   A3           INC       DPTR
   \   00000F   A3           INC       DPTR
   \   000010   A3           INC       DPTR
   \   000011   A3           INC       DPTR
   \   000012   A3           INC       DPTR
   \   000013   A3           INC       DPTR
   \   000014   22           RET
   3319          
   3320          /*********************************************************************
   3321           * @fn          ZDO_ParseMgmtRtgRsp
   3322           *
   3323           * @brief       This function parses the incoming Management
   3324           *              Routing response.
   3325           *
   3326           * @param       inMsg - incoming message
   3327           *
   3328           * @return      a pointer to parsed response structure (NULL if not allocated).
   3329           *          This structure was allocated using osal_mem_alloc, so it must be freed
   3330           *          by the calling function [osal_mem_free()].
   3331           */

   \                                 In  segment BANKED_CODE, align 1, keep-with-next
   3332          ZDO_MgmtRtgRsp_t *ZDO_ParseMgmtRtgRsp( zdoIncomingMsg_t *inMsg )
   \                     ZDO_ParseMgmtRtgRsp:
   3333          {
   \   000000                REQUIRE ?V0
   \   000000                REQUIRE ?V1
   \   000000                REQUIRE ?V2
   \   000000                REQUIRE ?V3
   \   000000                REQUIRE ?V4
   \   000000                REQUIRE ?V5
   \   000000   74F2         MOV       A,#-0xe
   \   000002   12....       LCALL     ?BANKED_ENTER_XDATA
   \   000005                ; Saved register size: 14
   \   000005                ; Auto size: 0
   3334            ZDO_MgmtRtgRsp_t *pRsp;
   3335            uint8 status;
   3336            uint8 rtgCount = 0;
   \   000005   75..00       MOV       ?V2,#0x0
   3337            uint8 startIndex = 0;
   \   000008   75..00       MOV       ?V1,#0x0
   3338            uint8 rtgListCount = 0;
   \   00000B   75..00       MOV       ?V0,#0x0
   3339            uint8 *msg;
   3340          
   3341            msg = inMsg->asdu;
   \   00000E   12....       LCALL     ?Subroutine54 & 0xFFFF
   3342          
   3343            status = *msg++;
   \                     ??CrossCallReturnLabel_527:
   \   000011   F5..         MOV       ?V3,A
   \   000013   A3           INC       DPTR
   \   000014   AE82         MOV       R6,DPL
   \   000016   AF83         MOV       R7,DPH
   3344            if ( status == ZSuccess )
   \   000018   7017         JNZ       ??ZDO_ParseMgmtRtgRsp_0
   3345            {
   3346              rtgCount = *msg++;
   \   00001A   E0           MOVX      A,@DPTR
   \   00001B   F5..         MOV       ?V2,A
   3347              startIndex = *msg++;
   \   00001D   A3           INC       DPTR
   \   00001E   E0           MOVX      A,@DPTR
   \   00001F   F5..         MOV       ?V1,A
   3348              rtgListCount = *msg++;
   \   000021   8E82         MOV       DPL,R6
   \   000023   8F83         MOV       DPH,R7
   \   000025   A3           INC       DPTR
   \   000026   A3           INC       DPTR
   \   000027   E0           MOVX      A,@DPTR
   \   000028   F5..         MOV       ?V0,A
   \   00002A   EE           MOV       A,R6
   \   00002B   2403         ADD       A,#0x3
   \   00002D   FE           MOV       R6,A
   \   00002E   5001         JNC       ??ZDO_ParseMgmtRtgRsp_0
   \   000030   0F           INC       R7
   3349            }
   3350          
   3351            // Allocate a buffer big enough to handle the list
   3352            pRsp = (ZDO_MgmtRtgRsp_t *)osal_mem_alloc(
   3353                    sizeof( ZDO_MgmtRtgRsp_t ) + (rtgListCount * sizeof( rtgItem_t )) );
   \                     ??ZDO_ParseMgmtRtgRsp_0:
   \   000031                ; Setup parameters for call to function osal_mem_alloc
   \   000031   E5..         MOV       A,?V0
   \   000033   75F007       MOV       B,#0x7
   \   000036   12....       LCALL     ?Subroutine128 & 0xFFFF
   \                     ??CrossCallReturnLabel_228:
   \   000039   12....       LCALL     `??osal_mem_alloc::?relay`; Banked call to: osal_mem_alloc
   3354            if ( pRsp )
   \   00003C   EA           MOV       A,R2
   \   00003D   4B           ORL       A,R3
   \   00003E   6076         JZ        ??ZDO_ParseMgmtRtgRsp_1
   3355            {
   3356              uint8 x;
   3357              rtgItem_t *pList = pRsp->list;
   \   000040   EA           MOV       A,R2
   \   000041   2404         ADD       A,#0x4
   \   000043   F8           MOV       R0,A
   \   000044   E4           CLR       A
   \   000045   3B           ADDC      A,R3
   \   000046   F9           MOV       R1,A
   3358              pRsp->status = status;
   \   000047   8A82         MOV       DPL,R2
   \   000049   8B83         MOV       DPH,R3
   \   00004B   E5..         MOV       A,?V3
   \   00004D   F0           MOVX      @DPTR,A
   3359              pRsp->rtgCount = rtgCount;
   \   00004E   A3           INC       DPTR
   \   00004F   E5..         MOV       A,?V2
   \   000051   12....       LCALL     ?Subroutine47 & 0xFFFF
   3360              pRsp->startIndex = startIndex;
   \                     ??CrossCallReturnLabel_77:
   \   000054   E5..         MOV       A,?V1
   \   000056   12....       LCALL     ?Subroutine46 & 0xFFFF
   3361              pRsp->rtgListCount = rtgListCount;
   \                     ??CrossCallReturnLabel_74:
   \   000059   E5..         MOV       A,?V0
   \   00005B   F0           MOVX      @DPTR,A
   3362          
   3363              for ( x = 0; x < rtgListCount; x++ )
   \   00005C   7C00         MOV       R4,#0x0
   \   00005E   8050         SJMP      ??ZDO_ParseMgmtRtgRsp_2
   3364              {
   3365                uint8 statOpt;
   3366          
   3367                pList->dstAddress = BUILD_UINT16( msg[0], msg[1] );
   \                     ??ZDO_ParseMgmtRtgRsp_3:
   \   000060   8E82         MOV       DPL,R6
   \   000062   8F83         MOV       DPH,R7
   \   000064   E0           MOVX      A,@DPTR
   \   000065   12....       LCALL     ?Subroutine93 & 0xFFFF
   \                     ??CrossCallReturnLabel_148:
   \   000068   F0           MOVX      @DPTR,A
   \   000069   A3           INC       DPTR
   \   00006A   E5..         MOV       A,?V3
   \   00006C   12....       LCALL     ??Subroutine213_0 & 0xFFFF
   3368                msg += 2;
   3369                statOpt = *msg++;
   \                     ??CrossCallReturnLabel_536:
   \   00006F   FD           MOV       R5,A
   \   000070   EE           MOV       A,R6
   \   000071   2403         ADD       A,#0x3
   \   000073   FE           MOV       R6,A
   \   000074   5001         JNC       ??ZDO_ParseMgmtRtgRsp_4
   \   000076   0F           INC       R7
   3370                pList->status = (statOpt & 0x07);
   \                     ??ZDO_ParseMgmtRtgRsp_4:
   \   000077   7407         MOV       A,#0x7
   \   000079   5D           ANL       A,R5
   \   00007A   8882         MOV       DPL,R0
   \   00007C   8983         MOV       DPH,R1
   \   00007E   A3           INC       DPTR
   \   00007F   A3           INC       DPTR
   \   000080   A3           INC       DPTR
   \   000081   A3           INC       DPTR
   \   000082   A3           INC       DPTR
   \   000083   F0           MOVX      @DPTR,A
   3371                pList->options = ((statOpt >> 3) & 0x07);
   \   000084   ED           MOV       A,R5
   \   000085   13           RRC       A
   \   000086   13           RRC       A
   \   000087   13           RRC       A
   \   000088   541F         ANL       A,#0x1f
   \   00008A   5407         ANL       A,#0x7
   \   00008C   8882         MOV       DPL,R0
   \   00008E   8983         MOV       DPH,R1
   \   000090   A3           INC       DPTR
   \   000091   A3           INC       DPTR
   \   000092   A3           INC       DPTR
   \   000093   A3           INC       DPTR
   \   000094   A3           INC       DPTR
   \   000095   A3           INC       DPTR
   \   000096   12....       LCALL     ??Subroutine215_0 & 0xFFFF
   3372                pList->nextHopAddress = BUILD_UINT16( msg[0], msg[1] );
   \                     ??CrossCallReturnLabel_549:
   \   000099   12....       LCALL     ?Subroutine93 & 0xFFFF
   \                     ??CrossCallReturnLabel_149:
   \   00009C   A3           INC       DPTR
   \   00009D   A3           INC       DPTR
   \   00009E   F0           MOVX      @DPTR,A
   \   00009F   A3           INC       DPTR
   \   0000A0   E5..         MOV       A,?V3
   \   0000A2   12....       LCALL     ??Subroutine219_0 & 0xFFFF
   3373                msg += 2;
   \                     ??CrossCallReturnLabel_567:
   \   0000A5   5001         JNC       ??ZDO_ParseMgmtRtgRsp_5
   \   0000A7   0F           INC       R7
   3374                pList++;
   \                     ??ZDO_ParseMgmtRtgRsp_5:
   \   0000A8   E8           MOV       A,R0
   \   0000A9   2407         ADD       A,#0x7
   \   0000AB   F8           MOV       R0,A
   \   0000AC   5001         JNC       ??ZDO_ParseMgmtRtgRsp_6
   \   0000AE   09           INC       R1
   3375              }
   \                     ??ZDO_ParseMgmtRtgRsp_6:
   \   0000AF   0C           INC       R4
   \                     ??ZDO_ParseMgmtRtgRsp_2:
   \   0000B0   EC           MOV       A,R4
   \   0000B1   C3           CLR       C
   \   0000B2   95..         SUBB      A,?V0
   \   0000B4   40AA         JC        ??ZDO_ParseMgmtRtgRsp_3
   3376            }
   3377          
   3378            return ( pRsp );
   \                     ??ZDO_ParseMgmtRtgRsp_1:
   \   0000B6   02....       LJMP      ?Subroutine5 & 0xFFFF
   3379          }

   \                                 In  segment BANKED_CODE, align 1, keep-with-next
   \                     ?Subroutine93:
   \   000000   F5..         MOV       ?V4,A
   \   000002   A3           INC       DPTR
   \   000003   E0           MOVX      A,@DPTR
   \   000004   F5..         MOV       ?V3,A
   \   000006   E5..         MOV       A,?V4
   \   000008   8882         MOV       DPL,R0
   \   00000A   8983         MOV       DPH,R1
   \   00000C   22           RET

   \                                 In  segment BANKED_CODE, align 1, keep-with-next
   \                     ??Subroutine219_0:
   \   000000   F0           MOVX      @DPTR,A
   \   000001   EE           MOV       A,R6
   \   000002   2402         ADD       A,#0x2
   \   000004   FE           MOV       R6,A
   \   000005   22           RET
   3380          
   3381          /*********************************************************************
   3382           * @fn          ZDO_ParseMgmtBindRsp
   3383           *
   3384           * @brief       This function parses the incoming Management
   3385           *              Binding response.
   3386           *
   3387           * @param       inMsg - pointer to message to parse
   3388           *
   3389           * @return      a pointer to parsed response structure (NULL if not allocated).
   3390           *          This structure was allocated using osal_mem_alloc, so it must be freed
   3391           *          by the calling function [osal_mem_free()].
   3392           */

   \                                 In  segment BANKED_CODE, align 1, keep-with-next
   3393          ZDO_MgmtBindRsp_t *ZDO_ParseMgmtBindRsp( zdoIncomingMsg_t *inMsg )
   \                     ZDO_ParseMgmtBindRsp:
   3394          {
   \   000000                REQUIRE ?V0
   \   000000                REQUIRE ?V1
   \   000000                REQUIRE ?V2
   \   000000                REQUIRE ?V3
   \   000000                REQUIRE ?V4
   \   000000                REQUIRE ?V5
   \   000000                REQUIRE ?V6
   \   000000                REQUIRE ?V7
   \   000000                REQUIRE ?V8
   \   000000                REQUIRE ?V9
   \   000000   74EE         MOV       A,#-0x12
   \   000002   12....       LCALL     ?BANKED_ENTER_XDATA
   \   000005                ; Saved register size: 18
   \   000005                ; Auto size: 0
   3395            ZDO_MgmtBindRsp_t *pRsp;
   3396            uint8 status;
   3397            uint8 bindingCount = 0;
   \   000005   75..00       MOV       ?V6,#0x0
   3398            uint8 startIndex = 0;
   \   000008   75..00       MOV       ?V5,#0x0
   3399            uint8 bindingListCount = 0;
   \   00000B   75..00       MOV       ?V4,#0x0
   3400            uint8 *msg;
   3401          
   3402            msg = inMsg->asdu;
   \   00000E   12....       LCALL     ?Subroutine85 & 0xFFFF
   3403          
   3404            status = *msg++;
   \                     ??CrossCallReturnLabel_137:
   \   000011   F5..         MOV       ?V7,A
   \   000013   A3           INC       DPTR
   \   000014   8582..       MOV       ?V2,DPL
   \   000017   8583..       MOV       ?V3,DPH
   3405            if ( status == ZSuccess )
   \   00001A   701A         JNZ       ??ZDO_ParseMgmtBindRsp_0
   3406            {
   3407              bindingCount = *msg++;
   \   00001C   12....       LCALL     ?Subroutine91 & 0xFFFF
   3408              startIndex = *msg++;
   \                     ??CrossCallReturnLabel_143:
   \   00001F   F5..         MOV       ?V5,A
   3409              bindingListCount = *msg++;
   \   000021   85..82       MOV       DPL,?V2
   \   000024   85..83       MOV       DPH,?V3
   \   000027   A3           INC       DPTR
   \   000028   A3           INC       DPTR
   \   000029   E0           MOVX      A,@DPTR
   \   00002A   F5..         MOV       ?V4,A
   \   00002C   E5..         MOV       A,?V2
   \   00002E   2403         ADD       A,#0x3
   \   000030   F5..         MOV       ?V2,A
   \   000032   5002         JNC       ??ZDO_ParseMgmtBindRsp_0
   \   000034   05..         INC       ?V3
   3410            }
   3411          
   3412            // Allocate a buffer big enough to handle the list
   3413            pRsp = (ZDO_MgmtBindRsp_t *)osal_mem_alloc(
   3414                    (sizeof ( ZDO_MgmtBindRsp_t ) + (bindingListCount * sizeof( apsBindingItem_t ))) );
   \                     ??ZDO_ParseMgmtBindRsp_0:
   \   000036                ; Setup parameters for call to function osal_mem_alloc
   \   000036   E5..         MOV       A,?V4
   \   000038   75F015       MOV       B,#0x15
   \   00003B   12....       LCALL     ?Subroutine128 & 0xFFFF
   \                     ??CrossCallReturnLabel_229:
   \   00003E   12....       LCALL     `??osal_mem_alloc::?relay`; Banked call to: osal_mem_alloc
   \   000041   8A..         MOV       ?V0,R2
   \   000043   8B..         MOV       ?V1,R3
   3415            if ( pRsp )
   \   000045   EA           MOV       A,R2
   \   000046   45..         ORL       A,?V1
   \   000048   7003         JNZ       $+5
   \   00004A   02....       LJMP      ??ZDO_ParseMgmtBindRsp_1 & 0xFFFF
   3416            {
   3417              uint8 x;
   3418              apsBindingItem_t *pList = pRsp->list;
   \   00004D   EA           MOV       A,R2
   \   00004E   2404         ADD       A,#0x4
   \   000050   FE           MOV       R6,A
   \   000051   E4           CLR       A
   \   000052   35..         ADDC      A,?V1
   \   000054   FF           MOV       R7,A
   3419              pRsp->status = status;
   \   000055   12....       LCALL     ?Subroutine10 & 0xFFFF
   3420              pRsp->bindingCount = bindingCount;
   3421              pRsp->startIndex = startIndex;
   3422              pRsp->bindingListCount = bindingListCount;
   3423          
   3424              for ( x = 0; x < bindingListCount; x++ )
   \                     ??CrossCallReturnLabel_3:
   \   000058   8019         SJMP      ??ZDO_ParseMgmtBindRsp_2
   3425              {
   3426                osal_cpyExtAddr( pList->srcAddr, msg );
   3427                msg += Z_EXTADDR_LEN;
   3428                pList->srcEP = *msg++;
   3429          
   3430                // Get the Cluster ID
   3431          
   3432                pList->clusterID = BUILD_UINT16( msg[0], msg[1] );
   3433                msg += 2;
   3434                pList->dstAddr.addrMode = *msg++;
   3435                if ( pList->dstAddr.addrMode == Addr64Bit )
   3436                {
   3437                  osal_cpyExtAddr( pList->dstAddr.addr.extAddr, msg );
   3438                  msg += Z_EXTADDR_LEN;
   3439                  pList->dstEP = *msg++;
   3440                }
   3441                else
   3442                {
   3443                  pList->dstAddr.addr.shortAddr = BUILD_UINT16( msg[0], msg[1] );
   \                     ??ZDO_ParseMgmtBindRsp_3:
   \   00005A   85..82       MOV       DPL,?V2
   \   00005D   85..83       MOV       DPH,?V3
   \   000060   12....       LCALL     ?Subroutine86 & 0xFFFF
   3444                  msg += 2;
   3445                }
   \                     ??CrossCallReturnLabel_139:
   \   000063   12....       LCALL     ?Subroutine36 & 0xFFFF
   \                     ??CrossCallReturnLabel_52:
   \   000066   5002         JNC       ??ZDO_ParseMgmtBindRsp_4
   \   000068   05..         INC       ?V3
   3446          
   3447                pList++;
   \                     ??ZDO_ParseMgmtBindRsp_4:
   \   00006A   EE           MOV       A,R6
   \   00006B   2415         ADD       A,#0x15
   \   00006D   FE           MOV       R6,A
   \   00006E   5001         JNC       ??ZDO_ParseMgmtBindRsp_5
   \   000070   0F           INC       R7
   \                     ??ZDO_ParseMgmtBindRsp_5:
   \   000071   05..         INC       ?V5
   \                     ??ZDO_ParseMgmtBindRsp_2:
   \   000073   E5..         MOV       A,?V5
   \   000075   C3           CLR       C
   \   000076   95..         SUBB      A,?V4
   \   000078   5061         JNC       ??ZDO_ParseMgmtBindRsp_1
   \   00007A                ; Setup parameters for call to function sAddrExtCpy
   \   00007A   AC..         MOV       R4,?V2
   \   00007C   AD..         MOV       R5,?V3
   \   00007E   EE           MOV       A,R6
   \   00007F   FA           MOV       R2,A
   \   000080   EF           MOV       A,R7
   \   000081   FB           MOV       R3,A
   \   000082   12....       LCALL     `??sAddrExtCpy::?relay`; Banked call to: sAddrExtCpy
   \   000085   85..82       MOV       DPL,?V2
   \   000088   85..83       MOV       DPH,?V3
   \   00008B   12....       LCALL     ?Subroutine77 & 0xFFFF
   \                     ??CrossCallReturnLabel_125:
   \   00008E   12....       LCALL     ?Subroutine35 & 0xFFFF
   \                     ??CrossCallReturnLabel_49:
   \   000091   5002         JNC       ??ZDO_ParseMgmtBindRsp_6
   \   000093   05..         INC       ?V3
   \                     ??ZDO_ParseMgmtBindRsp_6:
   \   000095   F582         MOV       DPL,A
   \   000097   85..83       MOV       DPH,?V3
   \   00009A   12....       LCALL     ?Subroutine61 & 0xFFFF
   \                     ??CrossCallReturnLabel_102:
   \   00009D   F0           MOVX      @DPTR,A
   \   00009E   A3           INC       DPTR
   \   00009F   E9           MOV       A,R1
   \   0000A0   12....       LCALL     ?Subroutine27 & 0xFFFF
   \                     ??CrossCallReturnLabel_33:
   \   0000A3   12....       LCALL     ?Subroutine109 & 0xFFFF
   \                     ??CrossCallReturnLabel_181:
   \   0000A6   E5..         MOV       A,?V2
   \   0000A8   2403         ADD       A,#0x3
   \   0000AA   F5..         MOV       ?V2,A
   \   0000AC   5002         JNC       ??ZDO_ParseMgmtBindRsp_7
   \   0000AE   05..         INC       ?V3
   \                     ??ZDO_ParseMgmtBindRsp_7:
   \   0000B0   12....       LCALL     ?Subroutine126 & 0xFFFF
   \                     ??CrossCallReturnLabel_226:
   \   0000B3   70A5         JNZ       ??ZDO_ParseMgmtBindRsp_3
   \   0000B5                ; Setup parameters for call to function sAddrExtCpy
   \   0000B5   AC..         MOV       R4,?V2
   \   0000B7   AD..         MOV       R5,?V3
   \   0000B9   12....       LCALL     `??sAddrExtCpy::?relay`; Banked call to: sAddrExtCpy
   \   0000BC   85..82       MOV       DPL,?V2
   \   0000BF   85..83       MOV       DPH,?V3
   \   0000C2   A3           INC       DPTR
   \   0000C3   A3           INC       DPTR
   \   0000C4   A3           INC       DPTR
   \   0000C5   A3           INC       DPTR
   \   0000C6   A3           INC       DPTR
   \   0000C7   A3           INC       DPTR
   \   0000C8   A3           INC       DPTR
   \   0000C9   A3           INC       DPTR
   \   0000CA   E0           MOVX      A,@DPTR
   \   0000CB   C0E0         PUSH      A
   \   0000CD   12....       LCALL     ?Subroutine130 & 0xFFFF
   3448              }
   3449            }
   \                     ??CrossCallReturnLabel_233:
   \   0000D0   D0E0         POP       A
   \   0000D2   12....       LCALL     ?Subroutine35 & 0xFFFF
   \                     ??CrossCallReturnLabel_50:
   \   0000D5   5093         JNC       ??ZDO_ParseMgmtBindRsp_4
   \   0000D7   05..         INC       ?V3
   \                     ??ZDO_ParseMgmtBindRsp_8:
   \   0000D9   808F         SJMP      ??ZDO_ParseMgmtBindRsp_4
   3450          
   3451            return ( pRsp );
   \                     ??ZDO_ParseMgmtBindRsp_1:
   \   0000DB   AA..         MOV       R2,?V0
   \   0000DD   AB..         MOV       R3,?V1
   \   0000DF   02....       LJMP      ??Subroutine206_0 & 0xFFFF
   3452          }
   3453          
   3454          /*********************************************************************
   3455           * @fn          ZDO_ParseUserDescRsp
   3456           *
   3457           * @brief       This function parses the incoming User
   3458           *              Descriptor Response.
   3459           *
   3460           * @param       inMsg - incoming response message
   3461           *
   3462           * @return      a pointer to parsed response structure (NULL if not allocated).
   3463           *          This structure was allocated using osal_mem_alloc, so it must be freed
   3464           *          by the calling function [osal_mem_free()].
   3465           */

   \                                 In  segment BANKED_CODE, align 1, keep-with-next
   3466          ZDO_UserDescRsp_t *ZDO_ParseUserDescRsp( zdoIncomingMsg_t *inMsg )
   \                     ZDO_ParseUserDescRsp:
   3467          {
   \   000000                REQUIRE ?V0
   \   000000                REQUIRE ?V1
   \   000000                REQUIRE ?V2
   \   000000                REQUIRE ?V3
   \   000000                REQUIRE ?V4
   \   000000                REQUIRE ?V5
   \   000000                REQUIRE ?V6
   \   000000                REQUIRE ?V7
   \   000000   74F0         MOV       A,#-0x10
   \   000002   12....       LCALL     ?BANKED_ENTER_XDATA
   \   000005                ; Saved register size: 16
   \   000005                ; Auto size: 0
   3468            ZDO_UserDescRsp_t *pRsp;
   3469            uint8 *msg;
   3470            uint8 descLen = 0;
   \   000005   75..00       MOV       ?V4,#0x0
   3471          
   3472            msg = inMsg->asdu;
   \   000008   12....       LCALL     ?Subroutine111 & 0xFFFF
   \                     ??CrossCallReturnLabel_186:
   \   00000B   12....       LCALL     ??Subroutine177_0 & 0xFFFF
   \                     ??CrossCallReturnLabel_326:
   \   00000E   88..         MOV       ?V2,R0
   \   000010   89..         MOV       ?V3,R1
   3473          
   3474            if ( msg[0] == ZSuccess )
   \   000012   8882         MOV       DPL,R0
   \   000014   F583         MOV       DPH,A
   \   000016   E0           MOVX      A,@DPTR
   \   000017   7006         JNZ       ??ZDO_ParseUserDescRsp_0
   3475            {
   3476              descLen = msg[3];
   \   000019   A3           INC       DPTR
   \   00001A   A3           INC       DPTR
   \   00001B   A3           INC       DPTR
   \   00001C   E0           MOVX      A,@DPTR
   \   00001D   F5..         MOV       ?V4,A
   3477            }
   3478          
   3479            pRsp = (ZDO_UserDescRsp_t *)osal_mem_alloc( sizeof ( ZDO_UserDescRsp_t ) + descLen );
   \                     ??ZDO_ParseUserDescRsp_0:
   \   00001F   AE..         MOV       R6,?V4
   \   000021                ; Setup parameters for call to function osal_mem_alloc
   \   000021   12....       LCALL     ?Subroutine158 & 0xFFFF
   \                     ??CrossCallReturnLabel_545:
   \   000024   3400         ADDC      A,#0x0
   \   000026   FB           MOV       R3,A
   \   000027   12....       LCALL     `??osal_mem_alloc::?relay`; Banked call to: osal_mem_alloc
   \   00002A   8A..         MOV       ?V0,R2
   \   00002C   8B..         MOV       ?V1,R3
   3480            if ( pRsp )
   \   00002E   EA           MOV       A,R2
   \   00002F   45..         ORL       A,?V1
   \   000031   6053         JZ        ??ZDO_ParseUserDescRsp_1
   3481            {
   3482              pRsp->status = msg[0];
   \   000033   85..82       MOV       DPL,?V2
   \   000036   85..83       MOV       DPH,?V3
   \   000039   12....       LCALL     ??Subroutine216_0 & 0xFFFF
   \                     ??CrossCallReturnLabel_553:
   \   00003C   12....       LCALL     ?Subroutine28 & 0xFFFF
   3483              pRsp->nwkAddr = BUILD_UINT16( msg[1], msg[2] );
   \                     ??CrossCallReturnLabel_35:
   \   00003F   E0           MOVX      A,@DPTR
   \   000040   FA           MOV       R2,A
   \   000041   85..82       MOV       DPL,?V2
   \   000044   85..83       MOV       DPH,?V3
   \   000047   A3           INC       DPTR
   \   000048   12....       LCALL     ??Subroutine209_0 & 0xFFFF
   \                     ??CrossCallReturnLabel_514:
   \   00004B   85..82       MOV       DPL,?V0
   \   00004E   8B83         MOV       DPH,R3
   \   000050   A3           INC       DPTR
   \   000051   12....       LCALL     ??Subroutine179_0 & 0xFFFF
   3484              pRsp->length = descLen;
   \                     ??CrossCallReturnLabel_335:
   \   000054   85..82       MOV       DPL,?V0
   \   000057   8B83         MOV       DPH,R3
   \   000059   A3           INC       DPTR
   \   00005A   A3           INC       DPTR
   \   00005B   A3           INC       DPTR
   \   00005C   EE           MOV       A,R6
   \   00005D   F0           MOVX      @DPTR,A
   3485              if ( descLen )
   \   00005E   6026         JZ        ??ZDO_ParseUserDescRsp_1
   3486              {
   3487                osal_memcpy( pRsp->desc, &msg[4], descLen );
   \   000060                ; Setup parameters for call to function osal_memcpy
   \   000060   E5..         MOV       A,?V2
   \   000062   2404         ADD       A,#0x4
   \   000064   F5..         MOV       ?V4,A
   \   000066   E4           CLR       A
   \   000067   35..         ADDC      A,?V3
   \   000069   F5..         MOV       ?V5,A
   \   00006B   88..         MOV       ?V6,R0
   \   00006D   78..         MOV       R0,#?V4
   \   00006F   12....       LCALL     ?PUSH_XSTACK_I_THREE
   \   000072   EE           MOV       A,R6
   \   000073   FC           MOV       R4,A
   \   000074   7D00         MOV       R5,#0x0
   \   000076   E5..         MOV       A,?V0
   \   000078   12....       LCALL     ??Subroutine214_0 & 0xFFFF
   3488              }
   3489            }
   \                     ??CrossCallReturnLabel_542:
   \   00007B   35..         ADDC      A,?V1
   \   00007D   FB           MOV       R3,A
   \   00007E   12....       LCALL     `??osal_memcpy::?relay`; Banked call to: osal_memcpy
   \   000081   7403         MOV       A,#0x3
   \   000083   12....       LCALL     ?DEALLOC_XSTACK8
   3490          
   3491            return ( pRsp );
   \                     ??ZDO_ParseUserDescRsp_1:
   \   000086   AA..         MOV       R2,?V0
   \   000088   AB..         MOV       R3,?V1
   \   00008A   02....       LJMP      ??Subroutine189_0 & 0xFFFF
   3492          }

   \                                 In  segment BANKED_CODE, align 1, keep-with-next
   \                     ?Subroutine111:
   \   000000   12....       LCALL     ?Subroutine156 & 0xFFFF
   \                     ??CrossCallReturnLabel_274:
   \   000003   F583         MOV       DPH,A
   \   000005   22           RET
   3493          
   3494          /*********************************************************************
   3495           * @fn          ZDO_ParseSimpleDescBuf
   3496           *
   3497           * @brief       Parse a byte sequence representation of a Simple Descriptor.
   3498           *
   3499           * @param       buf  - pointer to a byte array representing a Simple Desc.
   3500           * @param       desc - SimpleDescriptionFormat_t *
   3501           *
   3502           *              This routine allocates storage for the cluster IDs because
   3503           *              they are 16-bit and need to be aligned to be properly processed.
   3504           *              This routine returns non-zero if an allocation fails.
   3505           *
   3506           *              NOTE: This means that the caller or user of the input structure
   3507           *                    is responsible for freeing the memory
   3508           *
   3509           * @return      0: success
   3510           *              1: failure due to malloc failure.
   3511           */

   \                                 In  segment BANKED_CODE, align 1, keep-with-next
   3512          uint8 ZDO_ParseSimpleDescBuf( uint8 *buf, SimpleDescriptionFormat_t *desc )
   \                     ZDO_ParseSimpleDescBuf:
   3513          {
   \   000000                REQUIRE ?V0
   \   000000                REQUIRE ?V1
   \   000000                REQUIRE ?V2
   \   000000                REQUIRE ?V3
   \   000000                REQUIRE ?V4
   \   000000                REQUIRE ?V6
   \   000000                REQUIRE ?V7
   \   000000   74F0         MOV       A,#-0x10
   \   000002   12....       LCALL     ?BANKED_ENTER_XDATA
   \   000005                ; Saved register size: 16
   \   000005                ; Auto size: 0
   \   000005   EA           MOV       A,R2
   \   000006   FE           MOV       R6,A
   \   000007   EB           MOV       A,R3
   \   000008   FF           MOV       R7,A
   \   000009   8C..         MOV       ?V0,R4
   \   00000B   8D..         MOV       ?V1,R5
   3514            uint8 num, i;
   3515          
   3516            desc->EndPoint = *buf++;
   \   00000D   8E82         MOV       DPL,R6
   \   00000F   8F83         MOV       DPH,R7
   \   000011   12....       LCALL     ??Subroutine217_0 & 0xFFFF
   \                     ??CrossCallReturnLabel_559:
   \   000014   12....       LCALL     ?Subroutine38 & 0xFFFF
   3517            desc->AppProfId = BUILD_UINT16( buf[0], buf[1] );
   \                     ??CrossCallReturnLabel_54:
   \   000017   12....       LCALL     ?Subroutine72 & 0xFFFF
   \                     ??CrossCallReturnLabel_563:
   \   00001A   12....       LCALL     ?Subroutine30 & 0xFFFF
   3518            buf += 2;
   \                     ??CrossCallReturnLabel_565:
   \   00001D   5001         JNC       ??ZDO_ParseSimpleDescBuf_0
   \   00001F   0F           INC       R7
   3519            desc->AppDeviceId = BUILD_UINT16( buf[0], buf[1] );
   \                     ??ZDO_ParseSimpleDescBuf_0:
   \   000020   8E82         MOV       DPL,R6
   \   000022   8F83         MOV       DPH,R7
   \   000024   12....       LCALL     ?Subroutine72 & 0xFFFF
   \                     ??CrossCallReturnLabel_564:
   \   000027   A3           INC       DPTR
   \   000028   A3           INC       DPTR
   \   000029   12....       LCALL     ?Subroutine20 & 0xFFFF
   3520            buf += 2;
   3521            desc->AppDevVer = *buf >> 4;
   \                     ??CrossCallReturnLabel_535:
   \   00002C   C4           SWAP      A
   \   00002D   540F         ANL       A,#0xf
   3522          
   3523            desc->Reserved = 0;
   \   00002F   8C82         MOV       DPL,R4
   \   000031   8D83         MOV       DPH,R5
   \   000033   A3           INC       DPTR
   \   000034   A3           INC       DPTR
   \   000035   A3           INC       DPTR
   \   000036   A3           INC       DPTR
   \   000037   A3           INC       DPTR
   \   000038   12....       LCALL     ?Subroutine14 & 0xFFFF
   3524            buf++;
   3525          
   3526            // move in input cluster list (if any). allocate aligned memory.
   3527            num = desc->AppNumInClusters = *buf++;
   \                     ??CrossCallReturnLabel_12:
   \   00003B   F5..         MOV       ?V4,A
   \   00003D   EE           MOV       A,R6
   \   00003E   2404         ADD       A,#0x4
   \   000040   FE           MOV       R6,A
   \   000041   5001         JNC       ??ZDO_ParseSimpleDescBuf_1
   \   000043   0F           INC       R7
   \                     ??ZDO_ParseSimpleDescBuf_1:
   \   000044   8C82         MOV       DPL,R4
   \   000046   8D83         MOV       DPH,R5
   \   000048   A3           INC       DPTR
   \   000049   A3           INC       DPTR
   \   00004A   A3           INC       DPTR
   \   00004B   A3           INC       DPTR
   \   00004C   A3           INC       DPTR
   \   00004D   A3           INC       DPTR
   \   00004E   E5..         MOV       A,?V4
   \   000050   F0           MOVX      @DPTR,A
   3528            if ( num )
   \   000051   EC           MOV       A,R4
   \   000052   2407         ADD       A,#0x7
   \   000054   F5..         MOV       ?V2,A
   \   000056   E4           CLR       A
   \   000057   35..         ADDC      A,?V1
   \   000059   F5..         MOV       ?V3,A
   \   00005B   E5..         MOV       A,?V4
   \   00005D   604A         JZ        ??ZDO_ParseSimpleDescBuf_2
   3529            {
   3530              if (!(desc->pAppInClusterList = (uint16 *)osal_mem_alloc(num*sizeof(uint16))))
   \   00005F                ; Setup parameters for call to function osal_mem_alloc
   \   00005F   12....       LCALL     ?Subroutine104 & 0xFFFF
   \                     ??CrossCallReturnLabel_171:
   \   000062   12....       LCALL     `??osal_mem_alloc::?relay`; Banked call to: osal_mem_alloc
   \   000065   8A..         MOV       ?V6,R2
   \   000067   8B..         MOV       ?V7,R3
   \   000069   A8..         MOV       R0,?V6
   \   00006B   A9..         MOV       R1,?V7
   \   00006D   85..82       MOV       DPL,?V2
   \   000070   85..83       MOV       DPH,?V3
   \   000073   12....       LCALL     ??Subroutine178_0 & 0xFFFF
   \                     ??CrossCallReturnLabel_345:
   \   000076   E8           MOV       A,R0
   \   000077   49           ORL       A,R1
   \   000078   7003         JNZ       $+5
   \   00007A   02....       LJMP      ??ZDO_ParseSimpleDescBuf_3 & 0xFFFF
   3531              {
   3532                // malloc failed. we're done.
   3533                return 1;
   3534              }
   3535              for (i=0; i<num; ++i)
   \   00007D   7A00         MOV       R2,#0x0
   \   00007F   8022         SJMP      ??ZDO_ParseSimpleDescBuf_4
   3536              {
   3537                desc->pAppInClusterList[i] = BUILD_UINT16( buf[0], buf[1] );
   \                     ??ZDO_ParseSimpleDescBuf_5:
   \   000081   8E82         MOV       DPL,R6
   \   000083   8F83         MOV       DPH,R7
   \   000085   12....       LCALL     ?Subroutine91 & 0xFFFF
   3538                buf += 2;
   3539              }
   \                     ??CrossCallReturnLabel_145:
   \   000088   FC           MOV       R4,A
   \   000089   E4           CLR       A
   \   00008A   CC           XCH       A,R4
   \   00008B   FD           MOV       R5,A
   \   00008C   E5..         MOV       A,?V6
   \   00008E   2C           ADD       A,R4
   \   00008F   E4           CLR       A
   \   000090   3D           ADDC      A,R5
   \   000091   F5..         MOV       ?V7,A
   \   000093   12....       LCALL     ?Subroutine106 & 0xFFFF
   \                     ??CrossCallReturnLabel_176:
   \   000096   E5..         MOV       A,?V6
   \   000098   F0           MOVX      @DPTR,A
   \   000099   A3           INC       DPTR
   \   00009A   E5..         MOV       A,?V7
   \   00009C   12....       LCALL     ??Subroutine219_0 & 0xFFFF
   \                     ??CrossCallReturnLabel_568:
   \   00009F   5001         JNC       ??ZDO_ParseSimpleDescBuf_6
   \   0000A1   0F           INC       R7
   \                     ??ZDO_ParseSimpleDescBuf_6:
   \   0000A2   0A           INC       R2
   \                     ??ZDO_ParseSimpleDescBuf_4:
   \   0000A3   EA           MOV       A,R2
   \   0000A4   C3           CLR       C
   \   0000A5   95..         SUBB      A,?V4
   \   0000A7   40D8         JC        ??ZDO_ParseSimpleDescBuf_5
   3540            }
   3541          
   3542            // move in output cluster list (if any). allocate aligned memory.
   3543            num = desc->AppNumOutClusters = *buf++;
   \                     ??ZDO_ParseSimpleDescBuf_2:
   \   0000A9   8E82         MOV       DPL,R6
   \   0000AB   8F83         MOV       DPH,R7
   \   0000AD   E0           MOVX      A,@DPTR
   \   0000AE   F5..         MOV       ?V4,A
   \   0000B0   A3           INC       DPTR
   \   0000B1   AE82         MOV       R6,DPL
   \   0000B3   AF83         MOV       R7,DPH
   \   0000B5   85..82       MOV       DPL,?V0
   \   0000B8   85..83       MOV       DPH,?V1
   \   0000BB   A3           INC       DPTR
   \   0000BC   A3           INC       DPTR
   \   0000BD   A3           INC       DPTR
   \   0000BE   A3           INC       DPTR
   \   0000BF   A3           INC       DPTR
   \   0000C0   A3           INC       DPTR
   \   0000C1   A3           INC       DPTR
   \   0000C2   A3           INC       DPTR
   \   0000C3   A3           INC       DPTR
   \   0000C4   F0           MOVX      @DPTR,A
   3544            if (num)
   \   0000C5   606D         JZ        ??ZDO_ParseSimpleDescBuf_7
   3545            {
   3546              if (!(desc->pAppOutClusterList = (uint16 *)osal_mem_alloc(num*sizeof(uint16))))
   \   0000C7                ; Setup parameters for call to function osal_mem_alloc
   \   0000C7   12....       LCALL     ?Subroutine104 & 0xFFFF
   \                     ??CrossCallReturnLabel_172:
   \   0000CA   12....       LCALL     `??osal_mem_alloc::?relay`; Banked call to: osal_mem_alloc
   \   0000CD   8A..         MOV       ?V6,R2
   \   0000CF   8B..         MOV       ?V7,R3
   \   0000D1   A8..         MOV       R0,?V6
   \   0000D3   A9..         MOV       R1,?V7
   \   0000D5   85..82       MOV       DPL,?V0
   \   0000D8   85..83       MOV       DPH,?V1
   \   0000DB   A3           INC       DPTR
   \   0000DC   A3           INC       DPTR
   \   0000DD   A3           INC       DPTR
   \   0000DE   A3           INC       DPTR
   \   0000DF   A3           INC       DPTR
   \   0000E0   A3           INC       DPTR
   \   0000E1   A3           INC       DPTR
   \   0000E2   A3           INC       DPTR
   \   0000E3   A3           INC       DPTR
   \   0000E4   A3           INC       DPTR
   \   0000E5   12....       LCALL     ??Subroutine178_0 & 0xFFFF
   \                     ??CrossCallReturnLabel_346:
   \   0000E8   E8           MOV       A,R0
   \   0000E9   49           ORL       A,R1
   \   0000EA   701C         JNZ       ??ZDO_ParseSimpleDescBuf_8
   3547              {
   3548                // malloc failed. free input cluster list memory if there is any
   3549                if ( desc->pAppInClusterList != NULL )
   \   0000EC   85..82       MOV       DPL,?V2
   \   0000EF   85..83       MOV       DPH,?V3
   \   0000F2   12....       LCALL     ??Subroutine176_0 & 0xFFFF
   \                     ??CrossCallReturnLabel_311:
   \   0000F5   600D         JZ        ??ZDO_ParseSimpleDescBuf_3
   3550                {
   3551                  osal_mem_free(desc->pAppInClusterList);
   \   0000F7                ; Setup parameters for call to function osal_mem_free
   \   0000F7   12....       LCALL     `??osal_mem_free::?relay`; Banked call to: osal_mem_free
   3552          
   3553                  desc->pAppInClusterList = NULL;
   \   0000FA   85..82       MOV       DPL,?V2
   \   0000FD   85..83       MOV       DPH,?V3
   \   000100   E4           CLR       A
   \   000101   F0           MOVX      @DPTR,A
   \   000102   A3           INC       DPTR
   \   000103   F0           MOVX      @DPTR,A
   3554                }
   3555                return 1;
   \                     ??ZDO_ParseSimpleDescBuf_3:
   \   000104   7901         MOV       R1,#0x1
   \   000106   802E         SJMP      ??ZDO_ParseSimpleDescBuf_9
   3556              }
   3557              for (i=0; i<num; ++i)
   \                     ??ZDO_ParseSimpleDescBuf_8:
   \   000108   7A00         MOV       R2,#0x0
   \   00010A   8022         SJMP      ??ZDO_ParseSimpleDescBuf_10
   3558              {
   3559                desc->pAppOutClusterList[i] = BUILD_UINT16( buf[0], buf[1] );
   \                     ??ZDO_ParseSimpleDescBuf_11:
   \   00010C   8E82         MOV       DPL,R6
   \   00010E   8F83         MOV       DPH,R7
   \   000110   12....       LCALL     ?Subroutine152 & 0xFFFF
   3560                buf += 2;
   3561              }
   \                     ??CrossCallReturnLabel_303:
   \   000113   FC           MOV       R4,A
   \   000114   E4           CLR       A
   \   000115   CC           XCH       A,R4
   \   000116   FD           MOV       R5,A
   \   000117   E5..         MOV       A,?V0
   \   000119   2C           ADD       A,R4
   \   00011A   E4           CLR       A
   \   00011B   3D           ADDC      A,R5
   \   00011C   F5..         MOV       ?V1,A
   \   00011E   12....       LCALL     ?Subroutine106 & 0xFFFF
   \                     ??CrossCallReturnLabel_177:
   \   000121   E5..         MOV       A,?V0
   \   000123   F0           MOVX      @DPTR,A
   \   000124   A3           INC       DPTR
   \   000125   E5..         MOV       A,?V1
   \   000127   12....       LCALL     ??Subroutine219_0 & 0xFFFF
   \                     ??CrossCallReturnLabel_569:
   \   00012A   5001         JNC       ??ZDO_ParseSimpleDescBuf_12
   \   00012C   0F           INC       R7
   \                     ??ZDO_ParseSimpleDescBuf_12:
   \   00012D   0A           INC       R2
   \                     ??ZDO_ParseSimpleDescBuf_10:
   \   00012E   EA           MOV       A,R2
   \   00012F   C3           CLR       C
   \   000130   95..         SUBB      A,?V4
   \   000132   40D8         JC        ??ZDO_ParseSimpleDescBuf_11
   3562            }
   3563            return 0;
   \                     ??ZDO_ParseSimpleDescBuf_7:
   \   000134   7900         MOV       R1,#0x0
   \                     ??ZDO_ParseSimpleDescBuf_9:
   \   000136   02....       LJMP      ??Subroutine189_0 & 0xFFFF
   3564          }

   \                                 In  segment BANKED_CODE, align 1, keep-with-next
   \                     ?Subroutine106:
   \   000000   EA           MOV       A,R2
   \   000001   25E0         ADD       A,0xE0 /* A   */
   \   000003   FC           MOV       R4,A
   \   000004   E4           CLR       A
   \   000005   33           RLC       A
   \   000006   FD           MOV       R5,A
   \   000007   E8           MOV       A,R0
   \   000008   2C           ADD       A,R4
   \   000009   F582         MOV       DPL,A
   \   00000B   E9           MOV       A,R1
   \   00000C   3D           ADDC      A,R5
   \   00000D   F583         MOV       DPH,A
   \   00000F   22           RET

   \                                 In  segment BANKED_CODE, align 1, keep-with-next
   \                     ?Subroutine72:
   \   000000   E0           MOVX      A,@DPTR
   \   000001   FA           MOV       R2,A
   \   000002                REQUIRE ??Subroutine218_0
   \   000002                ; // Fall through to label ??Subroutine218_0

   \                                 In  segment BANKED_CODE, align 1, keep-with-next
   \                     ?Subroutine30:
   \   000000   F0           MOVX      @DPTR,A
   \   000001   A3           INC       DPTR
   \   000002   E9           MOV       A,R1
   \   000003                REQUIRE ??Subroutine219_0
   \   000003                ; // Fall through to label ??Subroutine219_0
   3565          
   3566          /*********************************************************************
   3567           * @fn          ZDO_ParseDeviceAnnce
   3568           *
   3569           * @brief       Parse a Device Announce message.
   3570           *
   3571           * @param       inMsg - Incoming message
   3572           * @param       pAnnce - place to put the parsed information
   3573           *
   3574           * @return      none
   3575           */

   \                                 In  segment BANKED_CODE, align 1, keep-with-next
   3576          void ZDO_ParseDeviceAnnce( zdoIncomingMsg_t *inMsg, ZDO_DeviceAnnce_t *pAnnce )
   \                     ZDO_ParseDeviceAnnce:
   3577          {
   \   000000                REQUIRE ?V0
   \   000000                REQUIRE ?V1
   \   000000   74F6         MOV       A,#-0xa
   \   000002   12....       LCALL     ?BANKED_ENTER_XDATA
   \   000005                ; Saved register size: 10
   \   000005                ; Auto size: 0
   \   000005   8C..         MOV       ?V0,R4
   \   000007   8D..         MOV       ?V1,R5
   3578            uint8 *msg;
   3579          
   3580            // Parse incoming message
   3581            msg = inMsg->asdu;
   \   000009   12....       LCALL     ?Subroutine111 & 0xFFFF
   \                     ??CrossCallReturnLabel_187:
   \   00000C   12....       LCALL     ?Subroutine98 & 0xFFFF
   \                     ??CrossCallReturnLabel_158:
   \   00000F   FF           MOV       R7,A
   3582            pAnnce->nwkAddr = BUILD_UINT16( msg[0], msg[1] );
   \   000010   12....       LCALL     ?Subroutine75 & 0xFFFF
   \                     ??CrossCallReturnLabel_521:
   \   000013   8C82         MOV       DPL,R4
   \   000015   8D83         MOV       DPH,R5
   \   000017   12....       LCALL     ?Subroutine30 & 0xFFFF
   3583            msg += 2;
   \                     ??CrossCallReturnLabel_566:
   \   00001A   5001         JNC       ??ZDO_ParseDeviceAnnce_0
   \   00001C   0F           INC       R7
   3584            osal_cpyExtAddr( pAnnce->extAddr, msg );
   \                     ??ZDO_ParseDeviceAnnce_0:
   \   00001D                ; Setup parameters for call to function sAddrExtCpy
   \   00001D   12....       LCALL     ?Subroutine118 & 0xFFFF
   \                     ??CrossCallReturnLabel_379:
   \   000020   35..         ADDC      A,?V1
   \   000022   FB           MOV       R3,A
   \   000023   12....       LCALL     `??sAddrExtCpy::?relay`; Banked call to: sAddrExtCpy
   3585            msg += Z_EXTADDR_LEN;
   3586            pAnnce->capabilities = *msg;
   \   000026   8E82         MOV       DPL,R6
   \   000028   8F83         MOV       DPH,R7
   \   00002A   A3           INC       DPTR
   \   00002B   A3           INC       DPTR
   \   00002C   A3           INC       DPTR
   \   00002D   12....       LCALL     ?Subroutine78 & 0xFFFF
   \                     ??CrossCallReturnLabel_126:
   \   000030   A3           INC       DPTR
   \   000031   A3           INC       DPTR
   \   000032   A3           INC       DPTR
   \   000033   A3           INC       DPTR
   \   000034   F0           MOVX      @DPTR,A
   3587          }
   \   000035   02....       LJMP      ??Subroutine173_0 & 0xFFFF

   \                                 In  segment BANKED_CODE, align 1, keep-with-next
   \                     ?Subroutine78:
   \   000000   12....       LCALL     ?Subroutine147 & 0xFFFF
   \                     ??CrossCallReturnLabel_267:
   \   000003   A3           INC       DPTR
   \   000004   22           RET

   \                                 In  segment BANKED_CODE, align 1, keep-with-next
   \                     ?Subroutine147:
   \   000000   A3           INC       DPTR
   \   000001   A3           INC       DPTR
   \   000002   A3           INC       DPTR
   \   000003   A3           INC       DPTR
   \   000004   A3           INC       DPTR
   \   000005   E0           MOVX      A,@DPTR
   \   000006   85..82       MOV       DPL,?V0
   \   000009   85..83       MOV       DPH,?V1
   \   00000C   A3           INC       DPTR
   \   00000D   A3           INC       DPTR
   \   00000E   A3           INC       DPTR
   \   00000F   A3           INC       DPTR
   \   000010   A3           INC       DPTR
   \   000011   22           RET
   3588          
   3589          /*********************************************************************
   3590           * @fn          ZDO_ParseParentAnnce
   3591           *
   3592           * @brief       Parse Parent Announce and Parent Announce Rsp messages,
   3593           *              both messages have the same payload.
   3594           *
   3595           * @param       inMsg - Incoming message
   3596           *
   3597           * @return      a pointer to parsed response structure (NULL if not allocated).
   3598           *          This structure was allocated using osal_mem_alloc, so it must be freed
   3599           *          by the calling function [osal_mem_free()].
   3600           */

   \                                 In  segment BANKED_CODE, align 1, keep-with-next
   3601          ZDO_ParentAnnce_t *ZDO_ParseParentAnnce( zdoIncomingMsg_t *inMsg )
   \                     ZDO_ParseParentAnnce:
   3602          {
   \   000000                REQUIRE ?V0
   \   000000                REQUIRE ?V1
   \   000000                REQUIRE ?V2
   \   000000                REQUIRE ?V3
   \   000000                REQUIRE ?V4
   \   000000                REQUIRE ?V5
   \   000000   74F2         MOV       A,#-0xe
   \   000002   12....       LCALL     ?BANKED_ENTER_XDATA
   \   000005                ; Saved register size: 14
   \   000005                ; Auto size: 0
   3603            ZDO_ParentAnnce_t *pRcvdMsg;
   3604            uint8 *msg;
   3605            uint8 numChildren;
   3606          
   3607            msg = inMsg->asdu;
   \   000005   12....       LCALL     ?Subroutine105 & 0xFFFF
   \                     ??CrossCallReturnLabel_174:
   \   000008   FE           MOV       R6,A
   \   000009   A3           INC       DPTR
   \   00000A   E0           MOVX      A,@DPTR
   \   00000B   FF           MOV       R7,A
   3608            if ( inMsg->clusterID == Parent_annce_rsp)
   \   00000C   EA           MOV       A,R2
   \   00000D   240C         ADD       A,#0xc
   \   00000F   F582         MOV       DPL,A
   \   000011   E4           CLR       A
   \   000012   3B           ADDC      A,R3
   \   000013   F583         MOV       DPH,A
   \   000015   E0           MOVX      A,@DPTR
   \   000016   641F         XRL       A,#0x1f
   \   000018   7004         JNZ       ??ZDO_ParseParentAnnce_0
   \   00001A   A3           INC       DPTR
   \   00001B   E0           MOVX      A,@DPTR
   \   00001C   6480         XRL       A,#0x80
   \                     ??ZDO_ParseParentAnnce_0:
   \   00001E   7009         JNZ       ??ZDO_ParseParentAnnce_1
   3609            {
   3610              *msg++;
   \   000020   8E82         MOV       DPL,R6
   \   000022   8F83         MOV       DPH,R7
   \   000024   A3           INC       DPTR
   \   000025   AE82         MOV       R6,DPL
   \   000027   AF83         MOV       R7,DPH
   3611            }
   3612            numChildren = *msg++;
   \                     ??ZDO_ParseParentAnnce_1:
   \   000029   8E82         MOV       DPL,R6
   \   00002B   8F83         MOV       DPH,R7
   \   00002D   E0           MOVX      A,@DPTR
   \   00002E   F5..         MOV       ?V5,A
   \   000030   A3           INC       DPTR
   \   000031   AE82         MOV       R6,DPL
   \   000033   AF83         MOV       R7,DPH
   3613          
   3614            // Allocate a buffer big enough to handle the list
   3615            pRcvdMsg = (ZDO_ParentAnnce_t *)osal_mem_alloc(
   3616                       (sizeof(ZDO_ParentAnnce_t) + (numChildren * sizeof(ZDO_ChildInfo_t))));
   \   000035                ; Setup parameters for call to function osal_mem_alloc
   \   000035   F5..         MOV       ?V0,A
   \   000037   75..00       MOV       ?V1,#0x0
   \   00003A   7403         MOV       A,#0x3
   \   00003C   78..         MOV       R0,#?V0
   \   00003E   12....       LCALL     ?S_SHL
   \   000041   E5..         MOV       A,?V0
   \   000043   2401         ADD       A,#0x1
   \   000045   FA           MOV       R2,A
   \   000046   E4           CLR       A
   \   000047   35..         ADDC      A,?V1
   \   000049   FB           MOV       R3,A
   \   00004A   12....       LCALL     `??osal_mem_alloc::?relay`; Banked call to: osal_mem_alloc
   \   00004D   8A..         MOV       ?V2,R2
   \   00004F   8B..         MOV       ?V3,R3
   3617          
   3618            if ( pRcvdMsg )
   \   000051   EA           MOV       A,R2
   \   000052   45..         ORL       A,?V3
   \   000054   603C         JZ        ??ZDO_ParseParentAnnce_2
   3619            {
   3620              uint8 x;
   3621              ZDO_ChildInfo_t *pList = pRcvdMsg->childInfo;
   \   000056   8A82         MOV       DPL,R2
   \   000058   8B83         MOV       DPH,R3
   \   00005A   A3           INC       DPTR
   \   00005B   8582..       MOV       ?V0,DPL
   \   00005E   8583..       MOV       ?V1,DPH
   3622          
   3623              pRcvdMsg->numOfChildren = numChildren;
   \   000061   8A82         MOV       DPL,R2
   \   000063   8B83         MOV       DPH,R3
   \   000065   E5..         MOV       A,?V5
   \   000067   F0           MOVX      @DPTR,A
   3624          
   3625              for ( x = 0; x < numChildren; x++ )
   \   000068   75..00       MOV       ?V4,#0x0
   \   00006B   801E         SJMP      ??ZDO_ParseParentAnnce_3
   3626              {
   3627                osal_cpyExtAddr( pList->extAddr, msg );
   \                     ??ZDO_ParseParentAnnce_4:
   \   00006D                ; Setup parameters for call to function sAddrExtCpy
   \   00006D   EE           MOV       A,R6
   \   00006E   FC           MOV       R4,A
   \   00006F   EF           MOV       A,R7
   \   000070   FD           MOV       R5,A
   \   000071   AA..         MOV       R2,?V0
   \   000073   AB..         MOV       R3,?V1
   \   000075   12....       LCALL     `??sAddrExtCpy::?relay`; Banked call to: sAddrExtCpy
   3628                msg += Z_EXTADDR_LEN;
   \   000078   EE           MOV       A,R6
   \   000079   2408         ADD       A,#0x8
   \   00007B   FE           MOV       R6,A
   \   00007C   5001         JNC       ??ZDO_ParseParentAnnce_5
   \   00007E   0F           INC       R7
   3629          
   3630                pList++;
   \                     ??ZDO_ParseParentAnnce_5:
   \   00007F   E5..         MOV       A,?V0
   \   000081   2408         ADD       A,#0x8
   \   000083   F5..         MOV       ?V0,A
   \   000085   5002         JNC       ??ZDO_ParseParentAnnce_6
   \   000087   05..         INC       ?V1
   3631              }
   \                     ??ZDO_ParseParentAnnce_6:
   \   000089   05..         INC       ?V4
   \                     ??ZDO_ParseParentAnnce_3:
   \   00008B   E5..         MOV       A,?V4
   \   00008D   C3           CLR       C
   \   00008E   95..         SUBB      A,?V5
   \   000090   40DB         JC        ??ZDO_ParseParentAnnce_4
   3632            }
   3633          
   3634            return ( pRcvdMsg );
   \                     ??ZDO_ParseParentAnnce_2:
   \   000092   AA..         MOV       R2,?V2
   \   000094   AB..         MOV       R3,?V3
   \   000096   02....       LJMP      ?Subroutine5 & 0xFFFF
   3635          }
   3636          
   3637          /*********************************************************************
   3638           * @fn          ZDO_ParseMgmtNwkUpdateNotify
   3639           *
   3640           * @brief       This function handles parsing of the incoming Management
   3641           *              Network Update notify.
   3642           *
   3643           * @param       inMsg - incoming message (request)
   3644           *
   3645           * @return      a pointer to parsed response structure (NULL if not allocated).
   3646           *          This structure was allocated using osal_mem_alloc, so it must be freed
   3647           *          by the calling function [osal_mem_free()].
   3648           */

   \                                 In  segment BANKED_CODE, align 1, keep-with-next
   3649          ZDO_MgmtNwkUpdateNotify_t *ZDO_ParseMgmtNwkUpdateNotify( zdoIncomingMsg_t *inMsg )
   \                     ZDO_ParseMgmtNwkUpdateNotify:
   3650          {
   \   000000                REQUIRE ?V0
   \   000000                REQUIRE ?V1
   \   000000                REQUIRE ?V2
   \   000000                REQUIRE ?V3
   \   000000                REQUIRE ?V4
   \   000000                REQUIRE ?V5
   \   000000                REQUIRE ?V6
   \   000000                REQUIRE ?V7
   \   000000                REQUIRE ?V8
   \   000000                REQUIRE ?V9
   \   000000                REQUIRE ?V10
   \   000000                REQUIRE ?V11
   \   000000                REQUIRE ?V12
   \   000000                REQUIRE ?V13
   \   000000                REQUIRE ?V14
   \   000000                REQUIRE ?V15
   \   000000   74E8         MOV       A,#-0x18
   \   000002   12....       LCALL     ?BANKED_ENTER_XDATA
   \   000005                ; Saved register size: 24
   \   000005                ; Auto size: 0
   3651            uint8 status;
   3652            uint32 scannedChannels = 0;
   \   000005   75..00       MOV       ?V4,#0x0
   \   000008   75..00       MOV       ?V5,#0x0
   \   00000B   75..00       MOV       ?V6,#0x0
   \   00000E   75..00       MOV       ?V7,#0x0
   3653            uint16 totalTransmissions = 0;
   \   000011   75..00       MOV       ?V0,#0x0
   \   000014   75..00       MOV       ?V1,#0x0
   3654            uint16 transmissionFailures = 0;
   \   000017   75..00       MOV       ?V2,#0x0
   \   00001A   75..00       MOV       ?V3,#0x0
   3655            uint8 listCount = 0;
   \   00001D   75..00       MOV       ?V10,#0x0
   3656            uint8 *msg = inMsg->asdu;
   \   000020   12....       LCALL     ?Subroutine105 & 0xFFFF
   \                     ??CrossCallReturnLabel_175:
   \   000023   F5..         MOV       ?V8,A
   \   000025   A3           INC       DPTR
   \   000026   E0           MOVX      A,@DPTR
   3657            ZDO_MgmtNwkUpdateNotify_t *pRsp;
   3658          
   3659            status = *msg++;
   \   000027   85..82       MOV       DPL,?V8
   \   00002A   F583         MOV       DPH,A
   \   00002C   E0           MOVX      A,@DPTR
   \   00002D   F5..         MOV       ?V11,A
   \   00002F   A3           INC       DPTR
   \   000030   8582..       MOV       ?V8,DPL
   \   000033   8583..       MOV       ?V9,DPH
   3660            if ( status == ZSuccess )
   \   000036   7051         JNZ       ??ZDO_ParseMgmtNwkUpdateNotify_0
   3661            {
   3662              scannedChannels = osal_build_uint32( msg, 4 );
   \   000038                ; Setup parameters for call to function osal_build_uint32
   \   000038   7904         MOV       R1,#0x4
   \   00003A   AA..         MOV       R2,?V8
   \   00003C   AB..         MOV       R3,?V9
   \   00003E   12....       LCALL     `??osal_build_uint32::?relay`; Banked call to: osal_build_uint32
   \   000041   8A..         MOV       ?V4,R2
   \   000043   8B..         MOV       ?V5,R3
   \   000045   8C..         MOV       ?V6,R4
   \   000047   8D..         MOV       ?V7,R5
   3663              msg += 4;
   \   000049   E5..         MOV       A,?V8
   \   00004B   2404         ADD       A,#0x4
   \   00004D   F5..         MOV       ?V8,A
   \   00004F   5002         JNC       ??ZDO_ParseMgmtNwkUpdateNotify_1
   \   000051   05..         INC       ?V9
   3664              totalTransmissions = BUILD_UINT16( msg[0], msg[1] );
   \                     ??ZDO_ParseMgmtNwkUpdateNotify_1:
   \   000053   F582         MOV       DPL,A
   \   000055   85..83       MOV       DPH,?V9
   \   000058   12....       LCALL     ?Subroutine89 & 0xFFFF
   \                     ??CrossCallReturnLabel_516:
   \   00005B   28           ADD       A,R0
   \   00005C   F5..         MOV       ?V0,A
   \   00005E   E4           CLR       A
   \   00005F   39           ADDC      A,R1
   \   000060   F5..         MOV       ?V1,A
   3665              msg += 2;
   \   000062   E5..         MOV       A,?V8
   \   000064   2402         ADD       A,#0x2
   \   000066   F5..         MOV       ?V8,A
   \   000068   5002         JNC       ??ZDO_ParseMgmtNwkUpdateNotify_2
   \   00006A   05..         INC       ?V9
   3666              transmissionFailures = BUILD_UINT16( msg[0], msg[1] );
   \                     ??ZDO_ParseMgmtNwkUpdateNotify_2:
   \   00006C   F582         MOV       DPL,A
   \   00006E   85..83       MOV       DPH,?V9
   \   000071   12....       LCALL     ?Subroutine59 & 0xFFFF
   3667              msg += 2;
   3668              listCount = *msg++;
   \                     ??CrossCallReturnLabel_308:
   \   000074   85..82       MOV       DPL,?V8
   \   000077   85..83       MOV       DPH,?V9
   \   00007A   A3           INC       DPTR
   \   00007B   A3           INC       DPTR
   \   00007C   E0           MOVX      A,@DPTR
   \   00007D   F5..         MOV       ?V10,A
   \   00007F   E5..         MOV       A,?V8
   \   000081   2403         ADD       A,#0x3
   \   000083   F5..         MOV       ?V8,A
   \   000085   5002         JNC       ??ZDO_ParseMgmtNwkUpdateNotify_0
   \   000087   05..         INC       ?V9
   3669            }
   3670          
   3671            pRsp = (ZDO_MgmtNwkUpdateNotify_t *)osal_mem_alloc( sizeof ( ZDO_MgmtNwkUpdateNotify_t ) + listCount );
   \                     ??ZDO_ParseMgmtNwkUpdateNotify_0:
   \   000089   AE..         MOV       R6,?V10
   \   00008B                ; Setup parameters for call to function osal_mem_alloc
   \   00008B   12....       LCALL     ?Subroutine127 & 0xFFFF
   \                     ??CrossCallReturnLabel_575:
   \   00008E   3400         ADDC      A,#0x0
   \   000090   FB           MOV       R3,A
   \   000091   12....       LCALL     `??osal_mem_alloc::?relay`; Banked call to: osal_mem_alloc
   \   000094   8A..         MOV       ?V14,R2
   \   000096   8B..         MOV       ?V15,R3
   3672          
   3673            if ( pRsp )
   \   000098   EA           MOV       A,R2
   \   000099   45..         ORL       A,?V15
   \   00009B   6049         JZ        ??ZDO_ParseMgmtNwkUpdateNotify_3
   3674            {
   3675              pRsp->status = status;
   \   00009D   8A82         MOV       DPL,R2
   \   00009F   8B83         MOV       DPH,R3
   \   0000A1   E5..         MOV       A,?V11
   \   0000A3   F0           MOVX      @DPTR,A
   3676              pRsp->scannedChannels = scannedChannels;
   \   0000A4   A3           INC       DPTR
   \   0000A5   78..         MOV       R0,#?V4
   \   0000A7   12....       LCALL     ?L_MOV_TO_X
   3677              pRsp->totalTransmissions = totalTransmissions;
   \   0000AA   8A82         MOV       DPL,R2
   \   0000AC   8B83         MOV       DPH,R3
   \   0000AE   A3           INC       DPTR
   \   0000AF   A3           INC       DPTR
   \   0000B0   A3           INC       DPTR
   \   0000B1   A3           INC       DPTR
   \   0000B2   A3           INC       DPTR
   \   0000B3   E5..         MOV       A,?V0
   \   0000B5   F0           MOVX      @DPTR,A
   \   0000B6   A3           INC       DPTR
   \   0000B7   E5..         MOV       A,?V1
   \   0000B9   12....       LCALL     ?Subroutine25 & 0xFFFF
   3678              pRsp->transmissionFailures = transmissionFailures;
   \                     ??CrossCallReturnLabel_28:
   \   0000BC   E5..         MOV       A,?V2
   \   0000BE   F0           MOVX      @DPTR,A
   \   0000BF   A3           INC       DPTR
   \   0000C0   E5..         MOV       A,?V3
   \   0000C2   12....       LCALL     ?Subroutine25 & 0xFFFF
   3679              pRsp->listCount = listCount;
   \                     ??CrossCallReturnLabel_29:
   \   0000C5   A3           INC       DPTR
   \   0000C6   A3           INC       DPTR
   \   0000C7   EE           MOV       A,R6
   \   0000C8   F0           MOVX      @DPTR,A
   3680          
   3681              // Allocate a buffer big enough to handle the list.
   3682              if ( listCount > 0 )
   \   0000C9   601B         JZ        ??ZDO_ParseMgmtNwkUpdateNotify_3
   3683              {
   3684                osal_memcpy( pRsp->energyValues, msg, listCount );
   \   0000CB                ; Setup parameters for call to function osal_memcpy
   \   0000CB   75..00       MOV       ?V10,#0x0
   \   0000CE   78..         MOV       R0,#?V8
   \   0000D0   12....       LCALL     ?PUSH_XSTACK_I_THREE
   \   0000D3   EE           MOV       A,R6
   \   0000D4   FC           MOV       R4,A
   \   0000D5   7D00         MOV       R5,#0x0
   \   0000D7   EA           MOV       A,R2
   \   0000D8   12....       LCALL     ??Subroutine220_0 & 0xFFFF
   3685              }
   3686            }
   \                     ??CrossCallReturnLabel_572:
   \   0000DB   35..         ADDC      A,?V15
   \   0000DD   FB           MOV       R3,A
   \   0000DE   12....       LCALL     `??osal_memcpy::?relay`; Banked call to: osal_memcpy
   \   0000E1   7403         MOV       A,#0x3
   \   0000E3   12....       LCALL     ?DEALLOC_XSTACK8
   3687          
   3688            return ( pRsp );
   \                     ??ZDO_ParseMgmtNwkUpdateNotify_3:
   \   0000E6   AA..         MOV       R2,?V14
   \   0000E8   AB..         MOV       R3,?V15
   \   0000EA   02....       LJMP      ??Subroutine175_0 & 0xFFFF
   3689          }

   \                                 In  segment BANKED_CODE, align 1, keep-with-next
   \                     ?Subroutine25:
   \   000000   12....       LCALL     ?Subroutine135 & 0xFFFF
   \                     ??CrossCallReturnLabel_243:
   \   000003   A3           INC       DPTR
   \   000004   A3           INC       DPTR
   \   000005   A3           INC       DPTR
   \   000006   A3           INC       DPTR
   \   000007   22           RET
   3690          
   3691          /*********************************************************************
   3692           * @fn          ZDO_ParseMgmtNwkUpdateReq
   3693           *
   3694           * @brief       This function handles parsing the incoming Management
   3695           *              Network Update request and starts the request (if needed).
   3696           *
   3697           * @param       inMsg - incoming message (request)
   3698           * @param       pReq - pointer to place to parse message to
   3699           *
   3700           * @return      none
   3701           */

   \                                 In  segment BANKED_CODE, align 1, keep-with-next
   3702          void ZDO_ParseMgmtNwkUpdateReq( zdoIncomingMsg_t *inMsg, ZDO_MgmtNwkUpdateReq_t *pReq )
   \                     ZDO_ParseMgmtNwkUpdateReq:
   3703          {
   \   000000                REQUIRE ?V0
   \   000000                REQUIRE ?V1
   \   000000   74F6         MOV       A,#-0xa
   \   000002   12....       LCALL     ?BANKED_ENTER_XDATA
   \   000005                ; Saved register size: 10
   \   000005                ; Auto size: 0
   \   000005   8C..         MOV       ?V0,R4
   \   000007   8D..         MOV       ?V1,R5
   3704            uint8 *msg = inMsg->asdu;
   \   000009   12....       LCALL     ?Subroutine112 & 0xFFFF
   \                     ??CrossCallReturnLabel_190:
   \   00000C   12....       LCALL     ?Subroutine79 & 0xFFFF
   3705          
   3706            pReq->channelMask = osal_build_uint32( msg, 4 );
   \                     ??CrossCallReturnLabel_129:
   \   00000F   12....       LCALL     `??osal_build_uint32::?relay`; Banked call to: osal_build_uint32
   \   000012   EA           MOV       A,R2
   \   000013   F8           MOV       R0,A
   \   000014   EB           MOV       A,R3
   \   000015   F9           MOV       R1,A
   \   000016   EC           MOV       A,R4
   \   000017   FA           MOV       R2,A
   \   000018   ED           MOV       A,R5
   \   000019   FB           MOV       R3,A
   \   00001A   85..82       MOV       DPL,?V0
   \   00001D   85..83       MOV       DPH,?V1
   \   000020   12....       LCALL     ?XSTORE_R0123
   3707            msg += 4;
   3708            pReq->scanDuration = *msg++;
   \   000023   8E82         MOV       DPL,R6
   \   000025   8F83         MOV       DPH,R7
   \   000027   A3           INC       DPTR
   \   000028   A3           INC       DPTR
   \   000029   A3           INC       DPTR
   \   00002A   A3           INC       DPTR
   \   00002B   E0           MOVX      A,@DPTR
   \   00002C   FA           MOV       R2,A
   \   00002D   E5..         MOV       A,?V0
   \   00002F   2404         ADD       A,#0x4
   \   000031   F8           MOV       R0,A
   \   000032   E4           CLR       A
   \   000033   35..         ADDC      A,?V1
   \   000035   F9           MOV       R1,A
   \   000036   EA           MOV       A,R2
   \   000037   8882         MOV       DPL,R0
   \   000039   8983         MOV       DPH,R1
   \   00003B   F0           MOVX      @DPTR,A
   3709          
   3710            if ( pReq->scanDuration <= 0x05 )
   \   00003C   C3           CLR       C
   \   00003D   9406         SUBB      A,#0x6
   \   00003F   5009         JNC       ??ZDO_ParseMgmtNwkUpdateReq_0
   3711            {
   3712              // Request is to scan over channelMask
   3713              pReq->scanCount = *msg;
   \   000041   8E82         MOV       DPL,R6
   \   000043   8F83         MOV       DPH,R7
   \   000045   12....       LCALL     ?Subroutine147 & 0xFFFF
   3714            }
   \                     ??CrossCallReturnLabel_266:
   \   000048   8027         SJMP      ??ZDO_ParseMgmtNwkUpdateReq_1
   3715            else if ( ( pReq->scanDuration == 0xFE ) || ( pReq->scanDuration == 0xFF ) )
   \                     ??ZDO_ParseMgmtNwkUpdateReq_0:
   \   00004A   74FE         MOV       A,#-0x2
   \   00004C   6A           XRL       A,R2
   \   00004D   6005         JZ        ??ZDO_ParseMgmtNwkUpdateReq_2
   \   00004F   74FF         MOV       A,#-0x1
   \   000051   6A           XRL       A,R2
   \   000052   701E         JNZ       ??ZDO_ParseMgmtNwkUpdateReq_3
   3716            {
   3717              // Request is to change Channel (0xFE) or apsChannelMask and NwkManagerAddr (0xFF)
   3718              pReq->nwkUpdateId = *msg++;
   \                     ??ZDO_ParseMgmtNwkUpdateReq_2:
   \   000054   8E82         MOV       DPL,R6
   \   000056   8F83         MOV       DPH,R7
   \   000058   12....       LCALL     ?Subroutine78 & 0xFFFF
   \                     ??CrossCallReturnLabel_127:
   \   00005B   F0           MOVX      @DPTR,A
   \   00005C   EE           MOV       A,R6
   \   00005D   2406         ADD       A,#0x6
   \   00005F   FE           MOV       R6,A
   \   000060   5001         JNC       ??ZDO_ParseMgmtNwkUpdateReq_4
   \   000062   0F           INC       R7
   3719          
   3720              if ( pReq->scanDuration == 0xFF )
   \                     ??ZDO_ParseMgmtNwkUpdateReq_4:
   \   000063   8882         MOV       DPL,R0
   \   000065   8983         MOV       DPH,R1
   \   000067   E0           MOVX      A,@DPTR
   \   000068   F4           CPL       A
   \   000069   7007         JNZ       ??ZDO_ParseMgmtNwkUpdateReq_3
   3721              {
   3722                pReq->nwkManagerAddr = BUILD_UINT16( msg[0], msg[1] );
   \   00006B   12....       LCALL     ?Subroutine62 & 0xFFFF
   3723              }
   3724            }
   \                     ??CrossCallReturnLabel_104:
   \   00006E   F0           MOVX      @DPTR,A
   \   00006F   A3           INC       DPTR
   \   000070   E9           MOV       A,R1
   \                     ??ZDO_ParseMgmtNwkUpdateReq_1:
   \   000071   F0           MOVX      @DPTR,A
   3725          }
   \                     ??ZDO_ParseMgmtNwkUpdateReq_3:
   \   000072   02....       LJMP      ??Subroutine173_0 & 0xFFFF

   \                                 In  segment XDATA_ID, align 1, keep-with-next
   \                     `?<Initializer for zdpExternalStateTaskID>`:
   \   000000   FFFF         DW -1

   \                                 In  segment BANK_RELAYS, align 1
   \                     `??ZDO_Init::?relay`:
   \   000000   12....       LCALL   ?BDISPATCH
   \   000003   ......       DC24    ZDO_Init

   \                                 In  segment BANK_RELAYS, align 1
   \                     `??ZDO_StartDevice::?relay`:
   \   000000   12....       LCALL   ?BDISPATCH
   \   000003   ......       DC24    ZDO_StartDevice

   \                                 In  segment BANK_RELAYS, align 1
   \                     `??zdoSendStateChangeMsg::?relay`:
   \   000000   12....       LCALL   ?BDISPATCH
   \   000003   ......       DC24    zdoSendStateChangeMsg

   \                                 In  segment BANK_RELAYS, align 1
   \                     `??ZDO_UpdateNwkStatus::?relay`:
   \   000000   12....       LCALL   ?BDISPATCH
   \   000003   ......       DC24    ZDO_UpdateNwkStatus

   \                                 In  segment BANK_RELAYS, align 1
   \                     `??ZDO_CompareClusterLists::?relay`:
   \   000000   12....       LCALL   ?BDISPATCH
   \   000003   ......       DC24    ZDO_CompareClusterLists

   \                                 In  segment BANK_RELAYS, align 1
   \                     `??ZDO_AnyClusterMatches::?relay`:
   \   000000   12....       LCALL   ?BDISPATCH
   \   000003   ......       DC24    ZDO_AnyClusterMatches

   \                                 In  segment BANK_RELAYS, align 1
   \                     `??ZDO_ProcessNodeDescRsp::?relay`:
   \   000000   12....       LCALL   ?BDISPATCH
   \   000003   ......       DC24    ZDO_ProcessNodeDescRsp

   \                                 In  segment BANK_RELAYS, align 1
   \                     `??ZDO_ProcessNodeDescReq::?relay`:
   \   000000   12....       LCALL   ?BDISPATCH
   \   000003   ......       DC24    ZDO_ProcessNodeDescReq

   \                                 In  segment BANK_RELAYS, align 1
   \                     `??ZDO_ProcessPowerDescReq::?relay`:
   \   000000   12....       LCALL   ?BDISPATCH
   \   000003   ......       DC24    ZDO_ProcessPowerDescReq

   \                                 In  segment BANK_RELAYS, align 1
   \                     `??ZDO_ProcessSimpleDescReq::?relay`:
   \   000000   12....       LCALL   ?BDISPATCH
   \   000003   ......       DC24    ZDO_ProcessSimpleDescReq

   \                                 In  segment BANK_RELAYS, align 1
   \                     `??ZDO_ProcessSimpleDescRsp::?relay`:
   \   000000   12....       LCALL   ?BDISPATCH
   \   000003   ......       DC24    ZDO_ProcessSimpleDescRsp

   \                                 In  segment BANK_RELAYS, align 1
   \                     `??ZDO_ProcessActiveEPReq::?relay`:
   \   000000   12....       LCALL   ?BDISPATCH
   \   000003   ......       DC24    ZDO_ProcessActiveEPReq

   \                                 In  segment BANK_RELAYS, align 1
   \                     `??ZDO_ConvertOTAClusters::?relay`:
   \   000000   12....       LCALL   ?BDISPATCH
   \   000003   ......       DC24    ZDO_ConvertOTAClusters

   \                                 In  segment BANK_RELAYS, align 1
   \                     `??ZDO_ProcessMatchDescReq::?relay`:
   \   000000   12....       LCALL   ?BDISPATCH
   \   000003   ......       DC24    ZDO_ProcessMatchDescReq

   \                                 In  segment BANK_RELAYS, align 1
   \                     `??ZDO_ProcessBindUnbindReq::?relay`:
   \   000000   12....       LCALL   ?BDISPATCH
   \   000003   ......       DC24    ZDO_ProcessBindUnbindReq

   \                                 In  segment BANK_RELAYS, align 1
   \                     `??ZDO_UpdateAddrManager::?relay`:
   \   000000   12....       LCALL   ?BDISPATCH
   \   000003   ......       DC24    ZDO_UpdateAddrManager

   \                                 In  segment BANK_RELAYS, align 1
   \                     `??ZDO_ProcessServerDiscReq::?relay`:
   \   000000   12....       LCALL   ?BDISPATCH
   \   000003   ......       DC24    ZDO_ProcessServerDiscReq

   \                                 In  segment BANK_RELAYS, align 1
   \                     `??ZDO_EndDeviceTimeoutCB::?relay`:
   \   000000   12....       LCALL   ?BDISPATCH
   \   000003   ......       DC24    ZDO_EndDeviceTimeoutCB

   \                                 In  segment BANK_RELAYS, align 1
   \                     `??ZDO_ProcessMgmtLqiReq::?relay`:
   \   000000   12....       LCALL   ?BDISPATCH
   \   000003   ......       DC24    ZDO_ProcessMgmtLqiReq

   \                                 In  segment BANK_RELAYS, align 1
   \                     `??ZDO_ProcessMgmtNwkDiscReq::?relay`:
   \   000000   12....       LCALL   ?BDISPATCH
   \   000003   ......       DC24    ZDO_ProcessMgmtNwkDiscReq

   \                                 In  segment BANK_RELAYS, align 1
   \                     `??ZDO_ProcessMgmtRtgReq::?relay`:
   \   000000   12....       LCALL   ?BDISPATCH
   \   000003   ......       DC24    ZDO_ProcessMgmtRtgReq

   \                                 In  segment BANK_RELAYS, align 1
   \                     `??ZDO_ProcessMgmtBindReq::?relay`:
   \   000000   12....       LCALL   ?BDISPATCH
   \   000003   ......       DC24    ZDO_ProcessMgmtBindReq

   \                                 In  segment BANK_RELAYS, align 1
   \                     `??ZDO_ProcessMgmtDirectJoinReq::?relay`:
   \   000000   12....       LCALL   ?BDISPATCH
   \   000003   ......       DC24    ZDO_ProcessMgmtDirectJoinReq

   \                                 In  segment BANK_RELAYS, align 1
   \                     `??ZDO_ProcessMgmtLeaveReq::?relay`:
   \   000000   12....       LCALL   ?BDISPATCH
   \   000003   ......       DC24    ZDO_ProcessMgmtLeaveReq

   \                                 In  segment BANK_RELAYS, align 1
   \                     `??ZDO_ProcessMgmtPermitJoinReq::?relay`:
   \   000000   12....       LCALL   ?BDISPATCH
   \   000003   ......       DC24    ZDO_ProcessMgmtPermitJoinReq

   \                                 In  segment BANK_RELAYS, align 1
   \                     `??NLME_PermitJoiningTimeout::?relay`:
   \   000000   12....       LCALL   ?BDISPATCH
   \   000003   ......       DC24    NLME_PermitJoiningTimeout

   \                                 In  segment BANK_RELAYS, align 1
   \                     `??ZDO_ProcessUserDescReq::?relay`:
   \   000000   12....       LCALL   ?BDISPATCH
   \   000003   ......       DC24    ZDO_ProcessUserDescReq

   \                                 In  segment BANK_RELAYS, align 1
   \                     `??ZDO_ProcessUserDescSet::?relay`:
   \   000000   12....       LCALL   ?BDISPATCH
   \   000003   ......       DC24    ZDO_ProcessUserDescSet

   \                                 In  segment BANK_RELAYS, align 1
   \                     `??ZDO_ProcessDeviceAnnce::?relay`:
   \   000000   12....       LCALL   ?BDISPATCH
   \   000003   ......       DC24    ZDO_ProcessDeviceAnnce

   \                                 In  segment BANK_RELAYS, align 1
   \                     `??ZDO_ProcessParentAnnce::?relay`:
   \   000000   12....       LCALL   ?BDISPATCH
   \   000003   ......       DC24    ZDO_ProcessParentAnnce

   \                                 In  segment BANK_RELAYS, align 1
   \                     `??ZDO_ProcessParentAnnceRsp::?relay`:
   \   000000   12....       LCALL   ?BDISPATCH
   \   000003   ......       DC24    ZDO_ProcessParentAnnceRsp

   \                                 In  segment BANK_RELAYS, align 1
   \                     `??ZDO_BuildSimpleDescBuf::?relay`:
   \   000000   12....       LCALL   ?BDISPATCH
   \   000003   ......       DC24    ZDO_BuildSimpleDescBuf

   \                                 In  segment BANK_RELAYS, align 1
   \                     `??ZDO_MatchEndDeviceBind::?relay`:
   \   000000   12....       LCALL   ?BDISPATCH
   \   000003   ......       DC24    ZDO_MatchEndDeviceBind

   \                                 In  segment BANK_RELAYS, align 1
   \                     `??ZDO_RemoveMatchMemory::?relay`:
   \   000000   12....       LCALL   ?BDISPATCH
   \   000003   ......       DC24    ZDO_RemoveMatchMemory

   \                                 In  segment BANK_RELAYS, align 1
   \                     `??ZDO_CopyMatchInfo::?relay`:
   \   000000   12....       LCALL   ?BDISPATCH
   \   000003   ......       DC24    ZDO_CopyMatchInfo

   \                                 In  segment BANK_RELAYS, align 1
   \                     `??ZDMatchSendState::?relay`:
   \   000000   12....       LCALL   ?BDISPATCH
   \   000003   ......       DC24    ZDMatchSendState

   \                                 In  segment BANK_RELAYS, align 1
   \                     `??ZDO_EndDeviceBindMatchTimeoutCB::?relay`:
   \   000000   12....       LCALL   ?BDISPATCH
   \   000003   ......       DC24    ZDO_EndDeviceBindMatchTimeoutCB

   \                                 In  segment BANK_RELAYS, align 1
   \                     `??ZDO_ParseEndDeviceBindReq::?relay`:
   \   000000   12....       LCALL   ?BDISPATCH
   \   000003   ......       DC24    ZDO_ParseEndDeviceBindReq

   \                                 In  segment BANK_RELAYS, align 1
   \                     `??ZDO_ParseBindUnbindReq::?relay`:
   \   000000   12....       LCALL   ?BDISPATCH
   \   000003   ......       DC24    ZDO_ParseBindUnbindReq

   \                                 In  segment BANK_RELAYS, align 1
   \                     `??ZDO_ParseAddrRsp::?relay`:
   \   000000   12....       LCALL   ?BDISPATCH
   \   000003   ......       DC24    ZDO_ParseAddrRsp

   \                                 In  segment BANK_RELAYS, align 1
   \                     `??ZDO_ParseNodeDescRsp::?relay`:
   \   000000   12....       LCALL   ?BDISPATCH
   \   000003   ......       DC24    ZDO_ParseNodeDescRsp

   \                                 In  segment BANK_RELAYS, align 1
   \                     `??ZDO_ParsePowerDescRsp::?relay`:
   \   000000   12....       LCALL   ?BDISPATCH
   \   000003   ......       DC24    ZDO_ParsePowerDescRsp

   \                                 In  segment BANK_RELAYS, align 1
   \                     `??ZDO_ParseSimpleDescRsp::?relay`:
   \   000000   12....       LCALL   ?BDISPATCH
   \   000003   ......       DC24    ZDO_ParseSimpleDescRsp

   \                                 In  segment BANK_RELAYS, align 1
   \                     `??ZDO_ParseEPListRsp::?relay`:
   \   000000   12....       LCALL   ?BDISPATCH
   \   000003   ......       DC24    ZDO_ParseEPListRsp

   \                                 In  segment BANK_RELAYS, align 1
   \                     `??ZDO_ParseServerDiscRsp::?relay`:
   \   000000   12....       LCALL   ?BDISPATCH
   \   000003   ......       DC24    ZDO_ParseServerDiscRsp

   \                                 In  segment BANK_RELAYS, align 1
   \                     `??ZDO_ParseMgmtLqiRsp::?relay`:
   \   000000   12....       LCALL   ?BDISPATCH
   \   000003   ......       DC24    ZDO_ParseMgmtLqiRsp

   \                                 In  segment BANK_RELAYS, align 1
   \                     `??ZDO_ParseMgmNwkDiscRsp::?relay`:
   \   000000   12....       LCALL   ?BDISPATCH
   \   000003   ......       DC24    ZDO_ParseMgmNwkDiscRsp

   \                                 In  segment BANK_RELAYS, align 1
   \                     `??ZDO_ParseMgmtRtgRsp::?relay`:
   \   000000   12....       LCALL   ?BDISPATCH
   \   000003   ......       DC24    ZDO_ParseMgmtRtgRsp

   \                                 In  segment BANK_RELAYS, align 1
   \                     `??ZDO_ParseMgmtBindRsp::?relay`:
   \   000000   12....       LCALL   ?BDISPATCH
   \   000003   ......       DC24    ZDO_ParseMgmtBindRsp

   \                                 In  segment BANK_RELAYS, align 1
   \                     `??ZDO_ParseUserDescRsp::?relay`:
   \   000000   12....       LCALL   ?BDISPATCH
   \   000003   ......       DC24    ZDO_ParseUserDescRsp

   \                                 In  segment BANK_RELAYS, align 1
   \                     `??ZDO_ParseSimpleDescBuf::?relay`:
   \   000000   12....       LCALL   ?BDISPATCH
   \   000003   ......       DC24    ZDO_ParseSimpleDescBuf

   \                                 In  segment BANK_RELAYS, align 1
   \                     `??ZDO_ParseDeviceAnnce::?relay`:
   \   000000   12....       LCALL   ?BDISPATCH
   \   000003   ......       DC24    ZDO_ParseDeviceAnnce

   \                                 In  segment BANK_RELAYS, align 1
   \                     `??ZDO_ParseParentAnnce::?relay`:
   \   000000   12....       LCALL   ?BDISPATCH
   \   000003   ......       DC24    ZDO_ParseParentAnnce

   \                                 In  segment BANK_RELAYS, align 1
   \                     `??ZDO_ParseMgmtNwkUpdateNotify::?relay`:
   \   000000   12....       LCALL   ?BDISPATCH
   \   000003   ......       DC24    ZDO_ParseMgmtNwkUpdateNotify

   \                                 In  segment BANK_RELAYS, align 1
   \                     `??ZDO_ParseMgmtNwkUpdateReq::?relay`:
   \   000000   12....       LCALL   ?BDISPATCH
   \   000003   ......       DC24    ZDO_ParseMgmtNwkUpdateReq

   \                                 In  segment XDATA_ROM_C, align 1
   \                     `?<Constant "StartDevice ERR">`:
   \   000000   53746172     DB "StartDevice ERR"
   \            74446576
   \            69636520
   \            45525200

   \                                 In  segment XDATA_ROM_C, align 1
   \                     `?<Constant "MODE unknown">`:
   \   000000   4D4F4445     DB "MODE unknown"
   \            20756E6B
   \            6E6F776E
   \            00      

   \                                 In  segment XDATA_ROM_C, align 1
   \                     `?<Constant "End Device Bind">`:
   \   000000   456E6420     DB "End Device Bind"
   \            44657669
   \            63652042
   \            696E6400

   \                                 In  segment XDATA_ROM_C, align 1
   \                     `?<Constant "Success Sent">`:
   \   000000   53756363     DB "Success Sent"
   \            65737320
   \            53656E74
   \            00      

   \                                 In  segment XDATA_ROM_C, align 1
   \                     `?<Constant "Timeout">`:
   \   000000   54696D65     DB "Timeout"
   \            6F757400

   \                                 In  segment XDATA_ROM_C, align 1
   \                     `?<Constant "Match Desc Req">`:
   \   000000   4D617463     DB "Match Desc Req"
   \            68204465
   \            73632052
   \            657100  

   \                                 In  segment XDATA_ROM_C, align 1
   \                     `?<Constant "Rsp Sent">`:
   \   000000   52737020     DB "Rsp Sent"
   \            53656E74
   \            00      

   \                                 In  segment XDATA_ROM_C, align 1
   \                     `?<Constant "Rsp Non Matched">`:
   \   000000   52737020     DB "Rsp Non Matched"
   \            4E6F6E20
   \            4D617463
   \            68656400

   \                                 In  segment XDATA_ROM_C, align 1
   \                     `?<Constant "Non Matched">`:
   \   000000   4E6F6E20     DB "Non Matched"
   \            4D617463
   \            68656400

   \                                 In  segment XDATA_ROM_C, align 1
   \                     `?<Constant {255, 255, 255, 255, 255, 255, 255,`:
   \   000000   FF           DB 255
   \   000001   FF           DB 255
   \   000002   FF           DB 255
   \   000003   FF           DB 255
   \   000004   FF           DB 255
   \   000005   FF           DB 255
   \   000006   FF           DB 255
   \   000007   FF           DB 255

   \                                 In  segment XDATA_ROM_C, align 1
   \                     __Constant_3e8:
   \   000000   E8030000     DD 1000
   3726          
   3727          /*********************************************************************
   3728          *********************************************************************/

   Maximum stack usage in bytes:

   ISTACK XSTACK Function
   ------ ------ --------
      2      0   NLME_PermitJoiningTimeout
        2      0   -> ZDSecMgrPermitJoiningTimeout
      1     75   ZDMatchSendState
        0     37   -> APS_SetEndDeviceBindTimeout
        0     37   -> ZDO_RemoveMatchMemory
        0     45   -> ZDP_BindUnbindReq
        0     42   -> ZDP_SendData
        0     37   -> sAddrExtCpy
      0     46   ZDO_AnyClusterMatches
      1     14   ZDO_BuildSimpleDescBuf
      0     50   ZDO_CompareClusterLists
      0     42   ZDO_ConvertOTAClusters
      0     51   ZDO_CopyMatchInfo
        0     18   -> osal_mem_alloc
        0     18   -> osal_mem_free
        0     21   -> osal_memcpy
      2      0   ZDO_EndDeviceBindMatchTimeoutCB
        2      0   -> ZDMatchSendState
      1     17   ZDO_EndDeviceTimeoutCB
        0     12   -> HalLcdWriteString
        0     17   -> ZDP_SendData
        0     12   -> osal_mem_free
      2      0   ZDO_Init
        2      0   -> APS_ReflectorInit
        2      0   -> NLME_CoordinatorInit
        2      0   -> sAddrExtCpy
      1     35   ZDO_MatchEndDeviceBind
        0     30   -> APS_SetEndDeviceBindTimeout
        0     30   -> ZDMatchSendState
        0     34   -> ZDO_CompareClusterLists
        0     30   -> ZDO_CopyMatchInfo
        0     30   -> ZDO_RemoveMatchMemory
        0     35   -> ZDP_SendData
        0     30   -> osal_mem_alloc
        0     33   -> osal_memcpy
        0     30   -> osal_memset
      1     14   ZDO_ParseAddrRsp
        0     14   -> osal_mem_alloc
        0     14   -> sAddrExtCpy
      1     10   ZDO_ParseBindUnbindReq
        0     10   -> sAddrExtCpy
      1     66   ZDO_ParseDeviceAnnce
        0     10   -> sAddrExtCpy
      1     19   ZDO_ParseEPListRsp
        0     16   -> osal_mem_alloc
        0     19   -> osal_memcpy
      1     18   ZDO_ParseEndDeviceBindReq
        0     18   -> ZDO_ConvertOTAClusters
        0     18   -> osal_mem_alloc
        0     18   -> sAddrExtCpy
      1     16   ZDO_ParseMgmNwkDiscRsp
        0     16   -> osal_mem_alloc
        0     16   -> sAddrExtCpy
      1     18   ZDO_ParseMgmtBindRsp
        0     18   -> osal_mem_alloc
        0     18   -> sAddrExtCpy
      1     16   ZDO_ParseMgmtLqiRsp
        0     16   -> osal_mem_alloc
        0     16   -> sAddrExtCpy
      1     27   ZDO_ParseMgmtNwkUpdateNotify
        0     24   -> osal_build_uint32
        0     24   -> osal_mem_alloc
        0     27   -> osal_memcpy
      1     10   ZDO_ParseMgmtNwkUpdateReq
        0     10   -> osal_build_uint32
      1     14   ZDO_ParseMgmtRtgRsp
        0     14   -> osal_mem_alloc
      1     10   ZDO_ParseNodeDescRsp
      1     45   ZDO_ParseParentAnnce
        0     14   -> osal_mem_alloc
        0     14   -> sAddrExtCpy
      1     12   ZDO_ParsePowerDescRsp
      1      9   ZDO_ParseServerDiscRsp
      1     25   ZDO_ParseSimpleDescBuf
        0     16   -> osal_mem_alloc
        0     16   -> osal_mem_free
      1      9   ZDO_ParseSimpleDescRsp
        0      9   -> ZDO_ParseSimpleDescBuf
      1     19   ZDO_ParseUserDescRsp
        0     16   -> osal_mem_alloc
        0     19   -> osal_memcpy
      0     21   ZDO_ProcessActiveEPReq
        0     14   -> NLME_GetShortAddr
        0     21   -> ZDP_EPRsp
        0     14   -> afEndPoints
        0     14   -> afNumEndPoints
      0     34   ZDO_ProcessBindUnbindReq
        0     30   -> APSME_BindRequest
        0     29   -> APSME_LookupNwkAddr
        0     30   -> APSME_UnBindRequest
        0     29   -> NLME_GetExtAddr
        0     29   -> ZDApp_NVUpdate
        0     29   -> ZDP_NwkAddrReq
        0     34   -> ZDP_SendData
        0     29   -> sAddrExtCmp
        0     29   -> sAddrExtCpy
      0     59   ZDO_ProcessDeviceAnnce
        0     56   -> AddrMgrEntryLookupExt
        0     56   -> AddrMgrEntryLookupNwk
        0     56   -> AddrMgrEntryUpdate
        0     56   -> AddrMgrExtAddrSet
        0     56   -> AssocGetWithExt
        0     56   -> AssocRemove
        0     56   -> NLME_CheckNewAddrSet
        0     56   -> NLME_GetCoordExtAddr
        0     56   -> NLME_GetCoordShortAddr
        0     56   -> NLME_GetShortAddr
        0     56   -> RTG_RemoveRtgEntry
        0     56   -> ZDO_ParseDeviceAnnce
        0     56   -> ZMacSetReq
        0     56   -> nwkNeighborRemove
        0     56   -> nwkNeighborRemoveAllStranded
        0     56   -> osal_get_timeoutEx
        0     59   -> osal_memcmp
        0     56   -> osal_memset
        0     56   -> osal_stop_timerEx
        0     56   -> sAddrExtCmp
      1     39   ZDO_ProcessMatchDescReq
        0     32   -> HalLcdWriteScreen
        0     32   -> NLME_IsAddressBroadcast
        0     34   -> ZDO_AnyClusterMatches
        0     32   -> ZDO_ConvertOTAClusters
        0     39   -> ZDP_EPRsp
        0     32   -> osal_mem_alloc
        0     32   -> osal_mem_free
        0     35   -> osal_memcpy
        0     32   -> osal_msg_allocate
        0     32   -> osal_msg_send
      0     25   ZDO_ProcessMgmtBindReq
        0     20   -> APSME_GetRequest
        0     25   -> ZDP_MgmtBindRsp
        0     20   -> osal_mem_alloc
        0     20   -> osal_mem_free
      1     16   ZDO_ProcessMgmtDirectJoinReq
        0     11   -> NLME_DirectJoinRequest
        0     16   -> ZDP_SendData
      0     23   ZDO_ProcessMgmtLeaveReq
        0     18   -> AddrMgrExtAddrValid
        0     18   -> NLME_GetExtAddr
        0     18   -> NLME_LeaveReq
        0     23   -> ZDP_SendData
        0     18   -> bdb_setFN
        0     18   -> sAddrExtCmp
      1     66   ZDO_ProcessMgmtLqiReq
        0     61   -> AddrMgrEntryLookupNwk
        0     61   -> AssocCount
        0     61   -> AssocFindDevice
        0     61   -> NLME_GetRequest
        0     66   -> ZDP_MgmtLqiRsp
        0     61   -> osal_mem_alloc
        0     61   -> osal_mem_free
        0     61   -> osal_memset
        0     61   -> sAddrExtCpy
      1     17   ZDO_ProcessMgmtNwkDiscReq
        0     17   -> NLME_NwkDiscReq2
        0     17   -> NLME_NwkDiscTerm
        0     17   -> osal_build_uint32
      1     18   ZDO_ProcessMgmtPermitJoinReq
        0     13   -> APSME_IsDistributedSecurity
        0     13   -> NLME_PermitJoiningRequest
        0     18   -> ZDP_SendData
        0     13   -> ZDSecMgrPermitJoining
      0     22   ZDO_ProcessMgmtRtgReq
        0     17   -> NLME_GetRequest
        0     22   -> ZDP_MgmtRtgRsp
        0     17   -> osal_mem_alloc
        0     17   -> osal_mem_free
      0     14   ZDO_ProcessNodeDescReq
        0     14   -> ZDP_GenericRsp
        0     12   -> ZDP_NodeDescMsg
      0      0   ZDO_ProcessNodeDescRsp
      0     36   ZDO_ProcessParentAnnce
        0     31   -> AssocGetWithExt
        0     31   -> ZDO_ParseParentAnnce
        0     36   -> ZDP_ParentAnnce
        0     31   -> osal_mem_alloc
        0     31   -> osal_mem_free
        0     31   -> sAddrExtCpy
      0     14   ZDO_ProcessParentAnnceRsp
        0     14   -> AssocGetWithExt
        0     14   -> AssocRemove
        0     14   -> ZDO_ParseParentAnnce
        0     14   -> osal_mem_free
      0     14   ZDO_ProcessPowerDescReq
        0     14   -> ZDP_GenericRsp
        0     12   -> ZDP_PowerDescMsg
      0     14   ZDO_ProcessServerDiscReq
        0     14   -> ZDP_ServerDiscRsp
      0     12   ZDO_ProcessSimpleDescReq
        0     12   -> AssocIsChild
        0     12   -> ZDP_SimpleDescMsg
        0     12   -> afFindSimpleDesc
        0     12   -> osal_mem_free
      0      0   ZDO_ProcessSimpleDescRsp
      0     37   ZDO_ProcessUserDescReq
        0     37   -> ZDP_GenericRsp
        0     36   -> ZDP_UserDescRsp
        0     37   -> osal_nv_read
      1     41   ZDO_ProcessUserDescSet
        0     41   -> ZDP_SendData
        0     39   -> osal_memcpy
        0     40   -> osal_nv_write
      2     37   ZDO_RemoveMatchMemory
        2      0   -> osal_mem_free
      0     22   ZDO_StartDevice
        0     12   -> HalLcdWriteScreen
        0     22   -> NLME_NetworkFormationRequest
        0     12   -> NLME_StartRouterRequest
        0     12   -> ZDApp_ChangeState
        0     16   -> osal_start_timerEx
      2     13   ZDO_UpdateAddrManager
        2     13   -> AddrMgrEntryUpdate
        2     13   -> AddrMgrExtAddrSet
      0      9   ZDO_UpdateNwkStatus
        0      9   -> NLME_GetExtAddr
        0      9   -> NLME_GetShortAddr
        0      9   -> zdoSendStateChangeMsg
      1     19   zdoSendStateChangeMsg
        0     10   -> osal_msg_allocate
        0     10   -> osal_msg_find
        0     10   -> osal_msg_send
        0     10   -> osal_set_event


   Segment part sizes:

   Bytes  Function/Label
   -----  --------------
      16  ?<Constant "End Device Bind">
      13  ?<Constant "MODE unknown">
      15  ?<Constant "Match Desc Req">
      12  ?<Constant "Non Matched">
      16  ?<Constant "Rsp Non Matched">
       9  ?<Constant "Rsp Sent">
      16  ?<Constant "StartDevice ERR">
      13  ?<Constant "Success Sent">
       8  ?<Constant "Timeout">
       8  ?<Constant {255, 255, 255, 255, 255, 255, 255,
       2  ?<Initializer for zdpExternalStateTaskID>
       5  ??Subroutine167_0
       4  ??Subroutine168_0
       6  ??Subroutine169_0
       4  ??Subroutine170_0
       6  ??Subroutine171_0
       3  ??Subroutine172_0
       5  ??Subroutine173_0
      16  ??Subroutine174_0
       5  ??Subroutine175_0
       6  ??Subroutine176_0
       4  ??Subroutine177_0
       1  ??Subroutine178_0
       5  ??Subroutine179_0
       1  ??Subroutine180_0
       5  ??Subroutine181_0
       3  ??Subroutine182_0
       5  ??Subroutine183_0
       5  ??Subroutine184_0
       1  ??Subroutine185_0
       4  ??Subroutine186_0
       3  ??Subroutine187_0
       5  ??Subroutine188_0
       5  ??Subroutine189_0
       1  ??Subroutine190_0
       9  ??Subroutine191_0
       6  ??Subroutine192_0
       6  ??Subroutine193_0
       4  ??Subroutine194_0
       2  ??Subroutine195_0
       6  ??Subroutine196_0
       9  ??Subroutine197_0
       8  ??Subroutine198_0
       5  ??Subroutine199_0
       5  ??Subroutine200_0
       5  ??Subroutine201_0
       7  ??Subroutine202_0
       3  ??Subroutine203_0
       4  ??Subroutine204_0
       6  ??Subroutine205_0
       5  ??Subroutine206_0
       5  ??Subroutine207_0
       6  ??Subroutine208_0
       8  ??Subroutine209_0
       4  ??Subroutine210_0
       2  ??Subroutine211_0
       9  ??Subroutine212_0
       6  ??Subroutine213_0
       5  ??Subroutine214_0
       7  ??Subroutine215_0
       6  ??Subroutine216_0
       6  ??Subroutine217_0
      10  ??Subroutine218_0
       6  ??Subroutine219_0
       5  ??Subroutine220_0
       7  ?Subroutine0
       3  ?Subroutine1
      27  ?Subroutine10
      17  ?Subroutine100
       3  ?Subroutine101
      11  ?Subroutine102
      12  ?Subroutine103
       7  ?Subroutine104
       4  ?Subroutine105
      16  ?Subroutine106
      15  ?Subroutine107
       7  ?Subroutine108
       6  ?Subroutine109
      17  ?Subroutine11
       6  ?Subroutine110
       6  ?Subroutine111
       4  ?Subroutine112
       4  ?Subroutine113
      21  ?Subroutine114
      13  ?Subroutine115
       6  ?Subroutine116
      11  ?Subroutine117
       5  ?Subroutine118
      12  ?Subroutine119
      20  ?Subroutine12
       6  ?Subroutine120
      10  ?Subroutine121
       8  ?Subroutine122
       4  ?Subroutine123
       4  ?Subroutine124
      14  ?Subroutine125
      11  ?Subroutine126
       1  ?Subroutine127
       9  ?Subroutine128
      11  ?Subroutine129
      17  ?Subroutine13
      10  ?Subroutine130
       9  ?Subroutine131
      10  ?Subroutine132
       9  ?Subroutine133
       1  ?Subroutine134
       9  ?Subroutine135
      13  ?Subroutine136
       6  ?Subroutine137
       4  ?Subroutine138
       7  ?Subroutine139
       5  ?Subroutine14
       6  ?Subroutine140
       4  ?Subroutine141
       9  ?Subroutine142
       5  ?Subroutine143
      21  ?Subroutine144
       8  ?Subroutine145
       2  ?Subroutine146
      18  ?Subroutine147
       3  ?Subroutine148
       6  ?Subroutine149
       6  ?Subroutine15
       2  ?Subroutine150
       7  ?Subroutine151
       6  ?Subroutine152
       9  ?Subroutine153
       5  ?Subroutine154
       8  ?Subroutine155
       5  ?Subroutine156
       8  ?Subroutine157
       1  ?Subroutine158
       9  ?Subroutine159
       6  ?Subroutine16
       6  ?Subroutine160
       3  ?Subroutine161
       3  ?Subroutine162
       9  ?Subroutine163
       1  ?Subroutine164
       9  ?Subroutine165
       7  ?Subroutine166
       8  ?Subroutine17
      15  ?Subroutine18
      14  ?Subroutine19
       2  ?Subroutine2
       3  ?Subroutine20
       8  ?Subroutine21
       6  ?Subroutine22
       1  ?Subroutine23
      10  ?Subroutine24
       8  ?Subroutine25
      11  ?Subroutine26
       8  ?Subroutine27
       4  ?Subroutine28
       7  ?Subroutine29
       5  ?Subroutine3
       3  ?Subroutine30
      11  ?Subroutine31
       5  ?Subroutine32
       4  ?Subroutine33
       8  ?Subroutine34
       8  ?Subroutine35
      11  ?Subroutine36
       7  ?Subroutine37
       8  ?Subroutine38
       6  ?Subroutine39
       4  ?Subroutine4
       4  ?Subroutine40
       5  ?Subroutine41
       5  ?Subroutine42
       7  ?Subroutine43
       4  ?Subroutine44
       8  ?Subroutine45
       4  ?Subroutine46
       6  ?Subroutine47
       4  ?Subroutine48
       4  ?Subroutine49
       5  ?Subroutine5
       6  ?Subroutine50
       6  ?Subroutine51
       9  ?Subroutine52
       8  ?Subroutine53
       3  ?Subroutine54
      19  ?Subroutine55
      35  ?Subroutine56
       9  ?Subroutine57
       3  ?Subroutine58
       1  ?Subroutine59
       3  ?Subroutine6
      32  ?Subroutine60
      17  ?Subroutine61
      21  ?Subroutine62
      11  ?Subroutine63
      10  ?Subroutine64
       4  ?Subroutine65
       6  ?Subroutine66
       8  ?Subroutine67
      12  ?Subroutine68
       1  ?Subroutine69
       3  ?Subroutine7
       9  ?Subroutine70
       7  ?Subroutine71
       2  ?Subroutine72
       8  ?Subroutine73
       4  ?Subroutine74
       4  ?Subroutine75
       2  ?Subroutine76
      22  ?Subroutine77
       5  ?Subroutine78
      12  ?Subroutine79
       6  ?Subroutine8
       8  ?Subroutine80
       2  ?Subroutine81
       6  ?Subroutine82
      22  ?Subroutine83
       2  ?Subroutine84
      14  ?Subroutine85
      11  ?Subroutine86
       8  ?Subroutine87
       6  ?Subroutine88
       2  ?Subroutine89
      42  ?Subroutine9
       6  ?Subroutine90
       6  ?Subroutine91
      17  ?Subroutine92
      13  ?Subroutine93
      13  ?Subroutine94
       7  ?Subroutine95
       1  ?Subroutine96
      14  ?Subroutine97
       7  ?Subroutine98
       6  ?Subroutine99
       7  NLME_PermitJoiningTimeout
       6  NLME_PermitJoiningTimeout::?relay
     622  ZDMatchSendState
       6  ZDMatchSendState::?relay
      52  ZDOBuildBuf
      78  ZDO_AnyClusterMatches
       6  ZDO_AnyClusterMatches::?relay
     237  ZDO_BuildSimpleDescBuf
       6  ZDO_BuildSimpleDescBuf::?relay
     120  ZDO_CompareClusterLists
       6  ZDO_CompareClusterLists::?relay
      67  ZDO_ConvertOTAClusters
       6  ZDO_ConvertOTAClusters::?relay
     204  ZDO_CopyMatchInfo
       6  ZDO_CopyMatchInfo::?relay
       2  ZDO_EDBind
      16  ZDO_EndDeviceBindMatchTimeoutCB
       6  ZDO_EndDeviceBindMatchTimeoutCB::?relay
     202  ZDO_EndDeviceTimeoutCB
       6  ZDO_EndDeviceTimeoutCB::?relay
      31  ZDO_Init
       6  ZDO_Init::?relay
     674  ZDO_MatchEndDeviceBind
       6  ZDO_MatchEndDeviceBind::?relay
     225  ZDO_ParseAddrRsp
       6  ZDO_ParseAddrRsp::?relay
     132  ZDO_ParseBindUnbindReq
       6  ZDO_ParseBindUnbindReq::?relay
      56  ZDO_ParseDeviceAnnce
       6  ZDO_ParseDeviceAnnce::?relay
     115  ZDO_ParseEPListRsp
       6  ZDO_ParseEPListRsp::?relay
     347  ZDO_ParseEndDeviceBindReq
       6  ZDO_ParseEndDeviceBindReq::?relay
     263  ZDO_ParseMgmNwkDiscRsp
       6  ZDO_ParseMgmNwkDiscRsp::?relay
     226  ZDO_ParseMgmtBindRsp
       6  ZDO_ParseMgmtBindRsp::?relay
     272  ZDO_ParseMgmtLqiRsp
       6  ZDO_ParseMgmtLqiRsp::?relay
     237  ZDO_ParseMgmtNwkUpdateNotify
       6  ZDO_ParseMgmtNwkUpdateNotify::?relay
     117  ZDO_ParseMgmtNwkUpdateReq
       6  ZDO_ParseMgmtNwkUpdateReq::?relay
     185  ZDO_ParseMgmtRtgRsp
       6  ZDO_ParseMgmtRtgRsp::?relay
     283  ZDO_ParseNodeDescRsp
       6  ZDO_ParseNodeDescRsp::?relay
     153  ZDO_ParseParentAnnce
       6  ZDO_ParseParentAnnce::?relay
     204  ZDO_ParsePowerDescRsp
       6  ZDO_ParsePowerDescRsp::?relay
      50  ZDO_ParseServerDiscRsp
       6  ZDO_ParseServerDiscRsp::?relay
     313  ZDO_ParseSimpleDescBuf
       6  ZDO_ParseSimpleDescBuf::?relay
      30  ZDO_ParseSimpleDescRsp
       6  ZDO_ParseSimpleDescRsp::?relay
     141  ZDO_ParseUserDescRsp
       6  ZDO_ParseUserDescRsp::?relay
     122  ZDO_ProcessActiveEPReq
       6  ZDO_ProcessActiveEPReq::?relay
     415  ZDO_ProcessBindUnbindReq
       6  ZDO_ProcessBindUnbindReq::?relay
     614  ZDO_ProcessDeviceAnnce
       6  ZDO_ProcessDeviceAnnce::?relay
    1131  ZDO_ProcessMatchDescReq
       6  ZDO_ProcessMatchDescReq::?relay
     271  ZDO_ProcessMgmtBindReq
       6  ZDO_ProcessMgmtBindReq::?relay
      96  ZDO_ProcessMgmtDirectJoinReq
       6  ZDO_ProcessMgmtDirectJoinReq::?relay
     176  ZDO_ProcessMgmtLeaveReq
       6  ZDO_ProcessMgmtLeaveReq::?relay
     803  ZDO_ProcessMgmtLqiReq
       6  ZDO_ProcessMgmtLqiReq::?relay
     133  ZDO_ProcessMgmtNwkDiscReq
       6  ZDO_ProcessMgmtNwkDiscReq::?relay
     145  ZDO_ProcessMgmtPermitJoinReq
       6  ZDO_ProcessMgmtPermitJoinReq::?relay
     247  ZDO_ProcessMgmtRtgReq
       6  ZDO_ProcessMgmtRtgReq::?relay
      72  ZDO_ProcessNodeDescReq
       6  ZDO_ProcessNodeDescReq::?relay
       3  ZDO_ProcessNodeDescRsp
       6  ZDO_ProcessNodeDescRsp::?relay
     433  ZDO_ProcessParentAnnce
       6  ZDO_ProcessParentAnnce::?relay
     119  ZDO_ProcessParentAnnceRsp
       6  ZDO_ProcessParentAnnceRsp::?relay
      71  ZDO_ProcessPowerDescReq
       6  ZDO_ProcessPowerDescReq::?relay
      70  ZDO_ProcessServerDiscReq
       6  ZDO_ProcessServerDiscReq::?relay
     136  ZDO_ProcessSimpleDescReq
       6  ZDO_ProcessSimpleDescReq::?relay
       3  ZDO_ProcessSimpleDescRsp
       6  ZDO_ProcessSimpleDescRsp::?relay
     189  ZDO_ProcessUserDescReq
       6  ZDO_ProcessUserDescReq::?relay
     298  ZDO_ProcessUserDescSet
       6  ZDO_ProcessUserDescSet::?relay
     108  ZDO_RemoveMatchMemory
       6  ZDO_RemoveMatchMemory::?relay
     155  ZDO_StartDevice
       6  ZDO_StartDevice::?relay
      51  ZDO_UpdateAddrManager
       6  ZDO_UpdateAddrManager::?relay
      81  ZDO_UpdateNwkStatus
       6  ZDO_UpdateNwkStatus::?relay
       4  __Constant_3e8
       4  apsChannelMask
       2  matchED
      73  zdoSendStateChangeMsg
       6  zdoSendStateChangeMsg::?relay
       2  zdpExternalStateTaskID

 
 13 297 bytes in segment BANKED_CODE
    330 bytes in segment BANK_RELAYS
      2 bytes in segment XDATA_I
      2 bytes in segment XDATA_ID
    130 bytes in segment XDATA_ROM_C
     60 bytes in segment XDATA_Z
 
    332 bytes of CODE     memory
    126 bytes of CONST    memory (+ 4 bytes shared)
 13 297 bytes of HUGECODE memory
     62 bytes of XDATA    memory

Errors: none
Warnings: none
